

Microchip MPLAB XC8 Assembler V2.41 build 20230208172133 
                                                                                               Sat Jun 03 23:51:14 2023

Microchip MPLAB XC8 C Compiler v2.41 (Free license) build 20230208172133 Og1 
     1                           	processor	18F46K42
     2                           	fnconf	rparam,??,?,0
     3                           	pagewidth 120
     4                           	opt	flic
     5                           	psect	idataBANK0,global,class=CODE,delta=1,noexec
     6                           	psect	idataBANK1,global,class=CODE,delta=1,noexec
     7                           	psect	idataBANK2,global,class=CODE,delta=1,noexec
     8                           	psect	nvBANK1,global,class=BANK1,space=1,delta=1,lowdata,noexec
     9                           	psect	nvBANK2,global,class=BANK2,space=1,delta=1,lowdata,noexec
    10                           	psect	smallconst,global,reloc=2,class=SMALLCONST,delta=1,noexec
    11                           	psect	cinit,global,reloc=2,class=CODE,delta=1
    12                           	psect	bssBANK0,global,class=BANK0,space=1,delta=1,lowdata,noexec
    13                           	psect	dataBANK0,global,class=BANK0,space=1,delta=1,lowdata,noexec
    14                           	psect	bssBANK1,global,class=BANK1,space=1,delta=1,lowdata,noexec
    15                           	psect	dataBANK1,global,class=BANK1,space=1,delta=1,lowdata,noexec
    16                           	psect	dataBANK2,global,class=BANK2,space=1,delta=1,lowdata,noexec
    17                           	psect	cstackBANK0,global,class=BANK0,space=1,delta=1,lowdata,noexec
    18                           	psect	cstackCOMRAM,global,class=COMRAM,space=1,delta=1,lowdata,noexec
    19                           	psect	text0,global,reloc=2,class=CODE,delta=1
    20                           	psect	text1,global,reloc=2,class=CODE,delta=1
    21                           	psect	text2,global,reloc=2,class=CODE,delta=1,group=3
    22                           	psect	text3,global,reloc=2,class=CODE,delta=1,group=1
    23                           	psect	text4,global,reloc=2,class=CODE,delta=1,group=1
    24                           	psect	text5,global,reloc=2,class=CODE,delta=1,group=1
    25                           	psect	text6,global,reloc=2,class=CODE,delta=1,group=3
    26                           	psect	text7,global,reloc=2,class=CODE,delta=1,group=3
    27                           	psect	text8,global,reloc=2,class=CODE,delta=1,group=3
    28                           	psect	text9,global,reloc=2,class=CODE,delta=1,group=3
    29                           	psect	text10,global,reloc=2,class=CODE,delta=1,group=3
    30                           	psect	text11,global,reloc=2,class=CODE,delta=1,group=2
    31                           	psect	text12,global,reloc=2,class=CODE,delta=1,group=2
    32                           	psect	text13,global,reloc=2,class=CODE,delta=1,group=2
    33                           	psect	text14,global,reloc=2,class=CODE,delta=1,group=2
    34                           	psect	text15,global,reloc=2,class=CODE,delta=1,group=2
    35                           	psect	text16,global,reloc=2,class=CODE,delta=1,group=1
    36                           	psect	text17,global,reloc=2,class=CODE,delta=1,group=1
    37                           	psect	text18,global,reloc=2,class=CODE,delta=1,group=3
    38                           	psect	text19,global,reloc=2,class=CODE,delta=1,group=3
    39                           	psect	text20,global,reloc=2,class=CODE,delta=1,group=3
    40                           	psect	text21,global,reloc=2,class=CODE,delta=1,group=3
    41                           	psect	text22,global,reloc=2,class=CODE,delta=1,group=2
    42                           	psect	text23,global,reloc=2,class=CODE,delta=1,group=2
    43                           	psect	text24,global,reloc=2,class=CODE,delta=1
    44                           	psect	text25,global,reloc=2,class=CODE,delta=1
    45                           	psect	text26,global,reloc=2,class=CODE,delta=1
    46                           	psect	text27,global,reloc=2,class=CODE,delta=1
    47                           	psect	text28,global,reloc=2,class=CODE,delta=1
    48                           	psect	text29,global,reloc=2,class=CODE,delta=1
    49                           	psect	text30,global,reloc=2,class=CODE,delta=1
    50                           	psect	text31,global,reloc=2,class=CODE,delta=1
    51                           	psect	text32,global,reloc=2,class=CODE,delta=1
    52                           	psect	text33,global,reloc=2,class=CODE,delta=1
    53                           	psect	text34,global,reloc=2,class=CODE,delta=1
    54                           	psect	text35,global,reloc=2,class=CODE,delta=1
    55                           	psect	text36,global,reloc=2,class=CODE,delta=1
    56                           	psect	text37,global,reloc=2,class=CODE,delta=1
    57                           	psect	text38,global,reloc=2,class=CODE,delta=1
    58                           	psect	text39,global,reloc=2,class=CODE,delta=1
    59                           	psect	text40,global,reloc=2,class=CODE,delta=1,group=2
    60                           	psect	text41,global,reloc=2,class=CODE,delta=1,group=2
    61                           	psect	text42,global,reloc=2,class=CODE,delta=1
    62                           	psect	text43,global,reloc=2,class=CODE,delta=1,group=2
    63                           	psect	text44,global,reloc=2,class=CODE,delta=1
    64                           	psect	text45,global,reloc=2,class=CODE,delta=1,group=2
    65                           	psect	text46,global,reloc=2,class=CODE,delta=1,group=2
    66                           	psect	text47,global,reloc=2,class=CODE,delta=1,group=2
    67                           	psect	text48,global,reloc=2,class=CODE,delta=1
    68                           	psect	text49,global,reloc=2,class=CODE,delta=1
    69                           	psect	text50,global,reloc=2,class=CODE,delta=1
    70                           	psect	text51,global,reloc=2,class=CODE,delta=1
    71                           	psect	text52,global,reloc=2,class=CODE,delta=1
    72                           	psect	text53,global,reloc=2,class=CODE,delta=1
    73                           	psect	text54,global,reloc=2,class=CODE,delta=1
    74                           	psect	text55,global,reloc=2,class=CODE,delta=1
    75                           	psect	text56,global,reloc=2,class=CODE,delta=1
    76                           	psect	text57,global,reloc=2,class=CODE,delta=1
    77                           	psect	text58,global,reloc=2,class=CODE,delta=1
    78                           	psect	text59,global,reloc=2,class=CODE,delta=1
    79                           	psect	text60,global,reloc=2,class=CODE,delta=1
    80                           	psect	text61,global,reloc=2,class=CODE,delta=1
    81                           	psect	text62,global,reloc=2,class=CODE,delta=1
    82                           	psect	text63,global,reloc=2,class=CODE,delta=1
    83                           	psect	text64,global,reloc=2,class=CODE,delta=1
    84                           	psect	text65,global,reloc=2,class=CODE,delta=1
    85                           	psect	text66,global,reloc=2,class=CODE,delta=1
    86                           	psect	text67,global,reloc=2,class=CODE,delta=1,group=2
    87                           	psect	text68,global,reloc=2,class=CODE,delta=1
    88                           	psect	text69,global,reloc=2,class=CODE,delta=1
    89                           	psect	text70,global,reloc=2,class=CODE,delta=1
    90                           	psect	text71,global,reloc=2,class=CODE,delta=1
    91                           	psect	text72,global,reloc=2,class=CODE,delta=1
    92                           	psect	text73,global,reloc=2,class=CODE,delta=1
    93                           	psect	text74,global,reloc=2,class=CODE,delta=1
    94                           	psect	text75,global,reloc=2,class=CODE,delta=1
    95                           	psect	ivt0x8,global,reloc=2,class=CODE,delta=1,noexec,keep,optim=
    96                           	psect	intsave_regs,global,class=BIGRAM,space=1,delta=1,noexec
    97                           	psect	text76,global,reloc=2,class=CODE,delta=1
    98                           	psect	rparam,global,class=COMRAM,space=1,delta=1,noexec
    99                           	psect	idloc,global,abs,ovrld,class=IDLOC,space=5,delta=1,noexec
   100                           	psect	config,global,abs,ovrld,class=CONFIG,space=4,delta=1,noexec
   101   000000                     
   102                           ; Generated 06/04/2022 GMT
   103                           ; 
   104                           ; Copyright © 2022, Microchip Technology Inc. and its subsidiaries ("Microchip")
   105                           ; All rights reserved.
   106                           ; 
   107                           ; This software is developed by Microchip Technology Inc. and its subsidiaries ("Microch
      +                          ip").
   108                           ; 
   109                           ; Redistribution and use in source and binary forms, with or without modification, are
   110                           ; permitted provided that the following conditions are met:
   111                           ; 
   112                           ;     1. Redistributions of source code must retain the above copyright notice, this lis
      +                          t of
   113                           ;        conditions and the following disclaimer.
   114                           ; 
   115                           ;     2. Redistributions in binary form must reproduce the above copyright notice, this 
      +                          list
   116                           ;        of conditions and the following disclaimer in the documentation and/or other
   117                           ;        materials provided with the distribution. Publication is not required when
   118                           ;        this file is used in an embedded application.
   119                           ; 
   120                           ;     3. Microchip's name may not be used to endorse or promote products derived from th
      +                          is
   121                           ;        software without specific prior written permission.
   122                           ; 
   123                           ; THIS SOFTWARE IS PROVIDED BY MICROCHIP "AS IS" AND ANY EXPRESS OR IMPLIED WARRANTIES,
   124                           ; INCLUDING, BUT NOT LIMITED TO, THE IMPLIED WARRANTIES OF MERCHANTABILITY AND FITNESS F
      +                          OR
   125                           ; PURPOSE ARE DISCLAIMED.  IN NO EVENT SHALL MICROCHIP BE LIABLE FOR ANY DIRECT, INDIREC
      +                          T,
   126                           ; INCIDENTAL, SPECIAL, EXEMPLARY, OR CONSEQUENTIAL DAMAGES (INCLUDING BUT NOT LIMITED TO
   127                           ; PROCUREMENT OF SUBSTITUTE GOODS OR SERVICES; LOSS OF USE, DATA OR PROFITS; OR BUSINESS
   128                           ; INTERRUPTION) HOWSOEVER CAUSED AND ON ANY THEORY OF LIABILITY, WHETHER IN CONTRACT, ST
      +                          RICT
   129                           ; LIABILITY, OR TORT (INCLUDING NEGLIGENCE OR OTHERWISE) ARISING IN ANY WAY OUT OF THE U
      +                          SE OF
   130                           ; THIS SOFTWARE, EVEN IF ADVISED OF THE POSSIBILITY OF SUCH DAMAGE.
   131                           ; 
   132                           ; 
   133                           ; Code-generator required, PIC18F46K42 Definitions
   134                           ; 
   135                           ; SFR Addresses
   136   000000                     
   137 ;; Function _TMR2_DefaultInterruptHandler is unused but had its address taken
   138   000000                     
   139 ;; Function _TMR4_DefaultInterruptHandler is unused but had its address taken
   140   000000                     
   141                           	psect	idataBANK0
   142   0054D8                     __pidataBANK0:
   143                           	callstack 0
   144                           
   145                           ;initializer for _GAIN
   146   0054D8  0001               	dw	1
   147                           
   148                           	psect	idataBANK1
   149   004A00                     __pidataBANK1:
   150                           	callstack 0
   151                           
   152                           ;initializer for mensaje_boton@F16541
   153   004A00  0A                 	db	10
   154   004A01  50                 	db	80
   155   004A02  75                 	db	117
   156   004A03  6C                 	db	108
   157   004A04  73                 	db	115
   158   004A05  65                 	db	101
   159   004A06  09                 	db	9
   160   004A07  70                 	db	112
   161   004A08  61                 	db	97
   162   004A09  72                 	db	114
   163   004A0A  61                 	db	97
   164   004A0B  09                 	db	9
   165   004A0C  69                 	db	105
   166   004A0D  6E                 	db	110
   167   004A0E  69                 	db	105
   168   004A0F  63                 	db	99
   169   004A10  69                 	db	105
   170   004A11  61                 	db	97
   171   004A12  72                 	db	114
   172   004A13  00                 	db	0
   173                           
   174                           ;initializer for mensaje_final@F16514
   175   004A14  0A                 	db	10
   176   004A15  50                 	db	80
   177   004A16  52                 	db	82
   178   004A17  4F                 	db	79
   179   004A18  43                 	db	67
   180   004A19  45                 	db	69
   181   004A1A  53                 	db	83
   182   004A1B  4F                 	db	79
   183   004A1C  09                 	db	9
   184   004A1D  54                 	db	84
   185   004A1E  45                 	db	69
   186   004A1F  52                 	db	82
   187   004A20  4D                 	db	77
   188   004A21  49                 	db	73
   189   004A22  4E                 	db	78
   190   004A23  41                 	db	65
   191   004A24  44                 	db	68
   192   004A25  4F                 	db	79
   193   004A26  00                 	db	0
   194                           
   195                           ;initializer for send_t@F16535
   196   004A27  0A                 	db	10
   197   004A28  54                 	db	84
   198   004A29  69                 	db	105
   199   004A2A  65                 	db	101
   200   004A2B  6D                 	db	109
   201   004A2C  70                 	db	112
   202   004A2D  6F                 	db	111
   203   004A2E  09                 	db	9
   204   004A2F  65                 	db	101
   205   004A30  73                 	db	115
   206   004A31  74                 	db	116
   207   004A32  69                 	db	105
   208   004A33  6D                 	db	109
   209   004A34  61                 	db	97
   210   004A35  64                 	db	100
   211   004A36  6F                 	db	111
   212   004A37  3A                 	db	58
   213   004A38  00                 	db	0
   214                           
   215                           ;initializer for mensaje_L@F16490
   216   004A39  0A                 	db	10
   217   004A3A  4C                 	db	76
   218   004A3B  6F                 	db	111
   219   004A3C  6E                 	db	110
   220   004A3D  67                 	db	103
   221   004A3E  69                 	db	105
   222   004A3F  74                 	db	116
   223   004A40  75                 	db	117
   224   004A41  64                 	db	100
   225   004A42  09                 	db	9
   226   004A43  65                 	db	101
   227   004A44  6E                 	db	110
   228   004A45  09                 	db	9
   229   004A46  75                 	db	117
   230   004A47  6D                 	db	109
   231   004A48  3A                 	db	58
   232   004A49  00                 	db	0
   233                           
   234                           ;initializer for mensaje_terminado@F16506
   235   004A4A  0A                 	db	10
   236   004A4B  43                 	db	67
   237   004A4C  61                 	db	97
   238   004A4D  70                 	db	112
   239   004A4E  61                 	db	97
   240   004A4F  5F                 	db	95
   241   004A50  74                 	db	116
   242   004A51  65                 	db	101
   243   004A52  72                 	db	114
   244   004A53  6D                 	db	109
   245   004A54  69                 	db	105
   246   004A55  6E                 	db	110
   247   004A56  61                 	db	97
   248   004A57  64                 	db	100
   249   004A58  61                 	db	97
   250   004A59  00                 	db	0
   251                           
   252                           ;initializer for mensaje_capas@F16498
   253   004A5A  0A                 	db	10
   254   004A5B  43                 	db	67
   255   004A5C  61                 	db	97
   256   004A5D  70                 	db	112
   257   004A5E  61                 	db	97
   258   004A5F  73                 	db	115
   259   004A60  3A                 	db	58
   260   004A61  00                 	db	0
   261                           
   262                           ;initializer for mensaje_AWG@F16494
   263   004A62  0A                 	db	10
   264   004A63  41                 	db	65
   265   004A64  57                 	db	87
   266   004A65  47                 	db	71
   267   004A66  3A                 	db	58
   268   004A67  00                 	db	0
   269                           
   270                           ;initializer for _w_ideal
   271   004A68  0000               	dw	0
   272   004A6A  4396               	dw	17302
   273                           
   274                           	psect	idataBANK2
   275   005206                     __pidataBANK2:
   276                           	callstack 0
   277                           
   278                           ;initializer for mensaje_capa2@F16510
   279   005206  0A                 	db	10
   280   005207  50                 	db	80
   281   005208  75                 	db	117
   282   005209  6C                 	db	108
   283   00520A  73                 	db	115
   284   00520B  65                 	db	101
   285   00520C  09                 	db	9
   286   00520D  70                 	db	112
   287   00520E  61                 	db	97
   288   00520F  72                 	db	114
   289   005210  61                 	db	97
   290   005211  09                 	db	9
   291   005212  73                 	db	115
   292   005213  69                 	db	105
   293   005214  67                 	db	103
   294   005215  75                 	db	117
   295   005216  69                 	db	105
   296   005217  65                 	db	101
   297   005218  6E                 	db	110
   298   005219  74                 	db	116
   299   00521A  65                 	db	101
   300   00521B  09                 	db	9
   301   00521C  63                 	db	99
   302   00521D  61                 	db	97
   303   00521E  70                 	db	112
   304   00521F  61                 	db	97
   305   005220  00                 	db	0
   306                           
   307                           ;initializer for mensaje_vels@F16502
   308   005221  0A                 	db	10
   309   005222  4C                 	db	76
   310   005223  65                 	db	101
   311   005224  6E                 	db	110
   312   005225  74                 	db	116
   313   005226  6F                 	db	111
   314   005227  3A                 	db	58
   315   005228  31                 	db	49
   316   005229  09                 	db	9
   317   00522A  49                 	db	73
   318   00522B  64                 	db	100
   319   00522C  65                 	db	101
   320   00522D  61                 	db	97
   321   00522E  6C                 	db	108
   322   00522F  3A                 	db	58
   323   005230  32                 	db	50
   324   005231  09                 	db	9
   325   005232  52                 	db	82
   326   005233  61                 	db	97
   327   005234  70                 	db	112
   328   005235  69                 	db	105
   329   005236  64                 	db	100
   330   005237  6F                 	db	111
   331   005238  3A                 	db	58
   332   005239  33                 	db	51
   333   00523A  00                 	db	0
   334   000000                     _T6CON	set	16276
   335   000000                     _OSCTUNE	set	14814
   336   000000                     _OSCFRQ	set	14815
   337   000000                     _T4CON	set	16288
   338   000000                     _T2CON	set	16300
   339   000000                     _TRISD	set	16325
   340   000000                     _TRISC	set	16324
   341   000000                     _TRISB	set	16323
   342   000000                     _LATC	set	16316
   343   000000                     _LATB	set	16315
   344                           
   345                           	psect	nvBANK1
   346   0001EE                     __pnvBANK1:
   347                           	callstack 0
   348   0001EE                     _vel_lineal:
   349                           	callstack 0
   350   0001EE                     	ds	4
   351   0001F2                     _RPM:
   352                           	callstack 0
   353   0001F2                     	ds	4
   354   0001F6                     _t_capa1:
   355                           	callstack 0
   356   0001F6                     	ds	4
   357   0001FA                     _UART1_ErrorHandler:
   358                           	callstack 0
   359   0001FA                     	ds	2
   360   0001FC                     _UART1_OverrunErrorHandler:
   361                           	callstack 0
   362   0001FC                     	ds	2
   363   0001FE                     _UART1_FramingErrorHandler:
   364                           	callstack 0
   365   0001FE                     	ds	2
   366                           
   367                           	psect	nvBANK2
   368   000235                     __pnvBANK2:
   369                           	callstack 0
   370   000235                     _TMR4_InterruptHandler:
   371                           	callstack 0
   372   000235                     	ds	2
   373   000237                     _TMR2_InterruptHandler:
   374                           	callstack 0
   375   000237                     	ds	2
   376   000000                     _U1ERRIRbits	set	15865
   377   000000                     _U1CON0bits	set	15858
   378   000000                     _LATDbits	set	16317
   379   000000                     _PR6	set	16275
   380   000000                     _TMR6	set	16274
   381   000000                     _T6CONbits	set	16276
   382   000000                     _T6RSTbits	set	16279
   383   000000                     _T6HLTbits	set	16277
   384   000000                     _PR4	set	16287
   385   000000                     _TMR4	set	16286
   386   000000                     _T4CONbits	set	16288
   387   000000                     _T4RSTbits	set	16291
   388   000000                     _T4HLTbits	set	16289
   389   000000                     _PR2	set	16299
   390   000000                     _TMR2	set	16298
   391   000000                     _T2CONbits	set	16300
   392   000000                     _T2RSTbits	set	16303
   393   000000                     _T2HLTbits	set	16301
   394   000000                     _PIE4bits	set	14740
   395   000000                     _PIR3bits	set	14755
   396   000000                     _U1P1L	set	15852
   397   000000                     _CCPTMRS1bits	set	16223
   398   000000                     _PWM5DCL	set	16236
   399   000000                     _PWM5DCH	set	16237
   400   000000                     _PWM5CON	set	16238
   401   000000                     _T4TMR	set	16286
   402   000000                     _T4PR	set	16287
   403   000000                     _T4HLT	set	16289
   404   000000                     _T4CLKCON	set	16290
   405   000000                     _T2TMR	set	16298
   406   000000                     _T2PR	set	16299
   407   000000                     _T2HLT	set	16301
   408   000000                     _T2CLKCON	set	16302
   409   000000                     _LATA	set	16314
   410   000000                     _LATD	set	16317
   411   000000                     _LATE	set	16318
   412   000000                     _U1ERRIE	set	15866
   413   000000                     _U1ERRIR	set	15865
   414   000000                     _U1UIR	set	15864
   415   000000                     _U1FIFO	set	15863
   416   000000                     _U1BRGH	set	15862
   417   000000                     _U1BRGL	set	15861
   418   000000                     _U1CON2	set	15860
   419   000000                     _U1CON1	set	15859
   420   000000                     _U1CON0	set	15858
   421   000000                     _U1P3H	set	15857
   422   000000                     _U1P3L	set	15856
   423   000000                     _U1P2H	set	15855
   424   000000                     _U1P2L	set	15854
   425   000000                     _U1P1H	set	15853
   426   000000                     _PIR7bits	set	14759
   427   000000                     _PIR4bits	set	14756
   428   000000                     _RA1PPS	set	14849
   429   000000                     _RA4PPS	set	14852
   430   000000                     _ANSELA	set	14912
   431   000000                     _ANSELB	set	14928
   432   000000                     _ANSELC	set	14944
   433   000000                     _ANSELD	set	14960
   434   000000                     _U1RXB	set	15848
   435   000000                     _U1TXB	set	15850
   436   000000                     _TRISA	set	16322
   437   000000                     _TRISE	set	16326
   438   000000                     _PORTAbits	set	16330
   439   000000                     _PORTDbits	set	16333
   440   000000                     _INTCON0bits	set	16338
   441   000000                     _INLVLD	set	14964
   442   000000                     _SLRCOND	set	14963
   443   000000                     _ODCOND	set	14962
   444   000000                     _RD0I2C	set	14970
   445   000000                     _WPUD	set	14961
   446   000000                     _ANSELE	set	14976
   447   000000                     _INLVLC	set	14948
   448   000000                     _SLRCONC	set	14947
   449   000000                     _ODCONC	set	14946
   450   000000                     _RC3I2C	set	14954
   451   000000                     _WPUC	set	14945
   452   000000                     _INLVLB	set	14932
   453   000000                     _SLRCONB	set	14931
   454   000000                     _ODCONB	set	14930
   455   000000                     _RB1I2C	set	14938
   456   000000                     _WPUB	set	14929
   457   000000                     _U1RXPPS	set	15077
   458   000000                     _INLVLE	set	14980
   459   000000                     _SLRCONE	set	14979
   460   000000                     _ODCONE	set	14978
   461   000000                     _WPUE	set	14977
   462   000000                     _INLVLA	set	14916
   463   000000                     _SLRCONA	set	14915
   464   000000                     _ODCONA	set	14914
   465   000000                     _WPUA	set	14913
   466   000000                     _RB2I2C	set	14939
   467   000000                     _RC4I2C	set	14955
   468   000000                     _RD1I2C	set	14971
   469   000000                     _RC6PPS	set	14870
   470   000000                     _T2RST	set	16303
   471   000000                     _PIE7bits	set	14743
   472   000000                     _T4RST	set	16291
   473   000000                     _PIR9bits	set	14761
   474   000000                     _PMD0	set	14784
   475   000000                     _OSCCON1	set	14809
   476   000000                     _OSCCON3	set	14811
   477   000000                     _OSCEN	set	14813
   478   000000                     _PMD7	set	14791
   479   000000                     _PMD6	set	14790
   480   000000                     _PMD5	set	14789
   481   000000                     _PMD4	set	14788
   482   000000                     _PMD3	set	14787
   483   000000                     _PMD2	set	14786
   484   000000                     _PMD1	set	14785
   485   000000                     _T6TMR	set	16274
   486   000000                     _T6PR	set	16275
   487   000000                     _T6HLT	set	16277
   488   000000                     _T6CLKCON	set	16278
   489   000000                     _PWM6DCL	set	16232
   490   000000                     _PWM6DCH	set	16233
   491   000000                     _PWM6CON	set	16234
   492   000000                     _T6RST	set	16279
   493                           
   494                           	psect	smallconst
   495   001000                     __psmallconst:
   496                           	callstack 0
   497   001000  00                 	db	0
   498   001001                     STR_3:
   499                           
   500                           ; BSR set to: 0
   501   001001  69                 	db	105	;'i'
   502   001002  6E                 	db	110	;'n'
   503   001003  66                 	db	102	;'f'
   504   001004  00                 	db	0
   505   001005                     STR_6:
   506                           
   507                           ; BSR set to: 0
   508   001005  6E                 	db	110	;'n'
   509   001006  61                 	db	97	;'a'
   510   001007  6E                 	db	110	;'n'
   511   001008  00                 	db	0
   512   001009                     
   513                           ; BSR set to: 0
   514   001009  25                 	db	37
   515   00100A  64                 	db	100	;'d'
   516   00100B  00                 	db	0
   517   00100C                     STR_2:
   518                           
   519                           ; BSR set to: 0
   520   00100C  25                 	db	37
   521   00100D  66                 	db	102	;'f'
   522   00100E  00                 	db	0
   523   00100F  00                 	db	0	; dummy byte at the end
   524   000000                     
   525                           ; #config settings
   526                           
   527                           	psect	cinit
   528   0048FC                     __pcinit:
   529                           	callstack 0
   530   0048FC                     start_initialization:
   531                           	callstack 0
   532   0048FC                     __initialization:
   533                           	callstack 0
   534                           
   535                           ; Initialize objects allocated to BANK2 (53 bytes)
   536                           ; load TBLPTR registers with __pidataBANK2
   537   0048FC  0E06               	movlw	low __pidataBANK2
   538   0048FE  6EF6               	movwf	tblptrl,c
   539   004900  0E52               	movlw	high __pidataBANK2
   540   004902  6EF7               	movwf	tblptrh,c
   541   004904  0E00               	movlw	low (__pidataBANK2 shr (0+16))
   542   004906  6EF8               	movwf	tblptru,c
   543   004908  EE00  F200         	lfsr	0,__pdataBANK2
   544   00490C  EE10 F035          	lfsr	1,53
   545   004910                     copy_data0:
   546   004910  0009               	tblrd		*+
   547   004912  006F FFD7 FFEE     	movff	tablat,postinc0
   548   004918  50E5               	movf	postdec1,w,c
   549   00491A  50E1               	movf	fsr1l,w,c
   550   00491C  E1F9               	bnz	copy_data0
   551                           
   552                           ; Initialize objects allocated to BANK1 (108 bytes)
   553                           ; load TBLPTR registers with __pidataBANK1
   554   00491E  0E00               	movlw	low __pidataBANK1
   555   004920  6EF6               	movwf	tblptrl,c
   556   004922  0E4A               	movlw	high __pidataBANK1
   557   004924  6EF7               	movwf	tblptrh,c
   558   004926  0E00               	movlw	low (__pidataBANK1 shr (0+16))
   559   004928  6EF8               	movwf	tblptru,c
   560   00492A  EE00  F182         	lfsr	0,__pdataBANK1
   561   00492E  EE10 F06C          	lfsr	1,108
   562   004932                     copy_data1:
   563   004932  0009               	tblrd		*+
   564   004934  006F FFD7 FFEE     	movff	tablat,postinc0
   565   00493A  50E5               	movf	postdec1,w,c
   566   00493C  50E1               	movf	fsr1l,w,c
   567   00493E  E1F9               	bnz	copy_data1
   568                           
   569                           ; Initialize objects allocated to BANK0 (2 bytes)
   570                           ; load TBLPTR registers with __pidataBANK0
   571   004940  0ED8               	movlw	low __pidataBANK0
   572   004942  6EF6               	movwf	tblptrl,c
   573   004944  0E54               	movlw	high __pidataBANK0
   574   004946  6EF7               	movwf	tblptrh,c
   575   004948  0E00               	movlw	low (__pidataBANK0 shr (0+16))
   576   00494A  6EF8               	movwf	tblptru,c
   577   00494C  0009               	tblrd		*+	;fetch initializer
   578   00494E  006F FFD4  F0FE    	movff	tablat,__pdataBANK0
   579   004954  0009               	tblrd		*+	;fetch initializer
   580   004956  006F FFD4  F0FF    	movff	tablat,__pdataBANK0+1
   581                           
   582                           ; Clear objects allocated to BANK1 (130 bytes)
   583   00495C  EE00  F100         	lfsr	0,__pbssBANK1
   584   004960  0E82               	movlw	130
   585   004962                     clear_0:
   586   004962  6AEE               	clrf	postinc0,c
   587   004964  06E8               	decf	wreg,f,c
   588   004966  E1FD               	bnz	clear_0
   589                           
   590                           ; Clear objects allocated to BANK0 (39 bytes)
   591   004968  EE00  F0D7         	lfsr	0,__pbssBANK0
   592   00496C  0E27               	movlw	39
   593   00496E                     clear_1:
   594   00496E  6AEE               	clrf	postinc0,c
   595   004970  06E8               	decf	wreg,f,c
   596   004972  E1FD               	bnz	clear_1
   597                           
   598                           ;
   599                           ; Setup IVTBASE
   600                           ;
   601   004974  0E08               	movlw	(ivt0x8_base shr 0)& (0+255)
   602   004976  6ED5               	movwf	213,c
   603   004978  0E00               	movlw	(ivt0x8_base shr (0+8))& (0+255)
   604   00497A  6ED6               	movwf	214,c
   605   00497C  0E00               	movlw	(ivt0x8_base shr (0+16))& (0+255)
   606   00497E  6ED7               	movwf	215,c
   607   004980                     end_of_initialization:
   608                           	callstack 0
   609   004980                     __end_of__initialization:
   610                           	callstack 0
   611   004980  0100               	movlb	0
   612   004982  EF08  F008         	goto	_main	;jump to C main() function
   613                           
   614                           	psect	bssBANK0
   615   0000D7                     __pbssBANK0:
   616                           	callstack 0
   617   0000D7                     _promedio:
   618                           	callstack 0
   619   0000D7                     	ds	4
   620   0000DB                     _pasos_lineal:
   621                           	callstack 0
   622   0000DB                     	ds	4
   623   0000DF                     _width:
   624                           	callstack 0
   625   0000DF                     	ds	2
   626   0000E1                     _prec:
   627                           	callstack 0
   628   0000E1                     	ds	2
   629   0000E3                     _pwm:
   630                           	callstack 0
   631   0000E3                     	ds	2
   632   0000E5                     _n_vueltas:
   633                           	callstack 0
   634   0000E5                     	ds	2
   635   0000E7                     _char_leido:
   636                           	callstack 0
   637   0000E7                     	ds	2
   638   0000E9                     _diametro:
   639                           	callstack 0
   640   0000E9                     	ds	2
   641   0000EB                     _sel_vel:
   642                           	callstack 0
   643   0000EB                     	ds	2
   644   0000ED                     _capas:
   645                           	callstack 0
   646   0000ED                     	ds	2
   647   0000EF                     _AWG:
   648                           	callstack 0
   649   0000EF                     	ds	2
   650   0000F1                     _L:
   651                           	callstack 0
   652   0000F1                     	ds	2
   653   0000F3                     _estado:
   654                           	callstack 0
   655   0000F3                     	ds	2
   656   0000F5                     _flags:
   657                           	callstack 0
   658   0000F5                     	ds	1
   659   0000F6                     _clockwise:
   660                           	callstack 0
   661   0000F6                     	ds	1
   662   0000F7                     _TMR4_flag:
   663                           	callstack 0
   664   0000F7                     	ds	1
   665   0000F8                     _TMR2_flag:
   666                           	callstack 0
   667   0000F8                     	ds	1
   668   0000F9                     _uart1RxLastError:
   669                           	callstack 0
   670   0000F9                     	ds	1
   671   0000FA                     _tension:
   672                           	callstack 0
   673   0000FA                     	ds	4
   674                           
   675                           	psect	dataBANK0
   676   0000FE                     __pdataBANK0:
   677                           	callstack 0
   678   0000FE                     _GAIN:
   679                           	callstack 0
   680   0000FE                     	ds	2
   681                           
   682                           	psect	bssBANK1
   683   000100                     __pbssBANK1:
   684                           	callstack 0
   685   000100                     floorf@F526:
   686                           	callstack 0
   687   000100                     	ds	4
   688   000104                     ___fpclassifyf@F465:
   689                           	callstack 0
   690   000104                     	ds	4
   691   000108                     _gramo_arriba:
   692                           	callstack 0
   693   000108                     	ds	4
   694   00010C                     _gramo_abajo:
   695                           	callstack 0
   696   00010C                     	ds	4
   697   000110                     _error:
   698                           	callstack 0
   699   000110                     	ds	4
   700   000114                     _gramos:
   701                           	callstack 0
   702   000114                     	ds	4
   703   000118                     _aux:
   704                           	callstack 0
   705   000118                     	ds	4
   706   00011C                     _adc:
   707                           	callstack 0
   708   00011C                     	ds	4
   709   000120                     _n_p_bobina:
   710                           	callstack 0
   711   000120                     	ds	4
   712   000124                     _n_p_lineal:
   713                           	callstack 0
   714   000124                     	ds	4
   715   000128                     _pasos_bobina:
   716                           	callstack 0
   717   000128                     	ds	4
   718   00012C                     _t_embo:
   719                           	callstack 0
   720   00012C                     	ds	4
   721   000130                     _gramos_d:
   722                           	callstack 0
   723   000130                     	ds	2
   724   000132                     _dbuf:
   725                           	callstack 0
   726   000132                     	ds	80
   727                           
   728                           	psect	dataBANK1
   729   000182                     __pdataBANK1:
   730                           	callstack 0
   731   000182                     mensaje_boton@F16541:
   732                           	callstack 0
   733   000182                     	ds	20
   734   000196                     mensaje_final@F16514:
   735                           	callstack 0
   736   000196                     	ds	19
   737   0001A9                     send_t@F16535:
   738                           	callstack 0
   739   0001A9                     	ds	18
   740   0001BB                     mensaje_L@F16490:
   741                           	callstack 0
   742   0001BB                     	ds	17
   743   0001CC                     mensaje_terminado@F16506:
   744                           	callstack 0
   745   0001CC                     	ds	16
   746   0001DC                     mensaje_capas@F16498:
   747                           	callstack 0
   748   0001DC                     	ds	8
   749   0001E4                     mensaje_AWG@F16494:
   750                           	callstack 0
   751   0001E4                     	ds	6
   752   0001EA                     _w_ideal:
   753                           	callstack 0
   754   0001EA                     	ds	4
   755                           
   756                           	psect	dataBANK2
   757   000200                     __pdataBANK2:
   758                           	callstack 0
   759   000200                     mensaje_capa2@F16510:
   760                           	callstack 0
   761   000200                     	ds	27
   762   00021B                     mensaje_vels@F16502:
   763                           	callstack 0
   764   00021B                     	ds	26
   765                           
   766                           	psect	cstackBANK0
   767   000060                     __pcstackBANK0:
   768                           	callstack 0
   769   000060                     efgtoa@ne:
   770                           	callstack 0
   771                           
   772                           ; 2 bytes @ 0x0
   773   000060                     	ds	2
   774   000062                     efgtoa@p:
   775                           	callstack 0
   776                           
   777                           ; 2 bytes @ 0x2
   778   000062                     	ds	2
   779   000064                     efgtoa@t:
   780                           	callstack 0
   781                           
   782                           ; 2 bytes @ 0x4
   783   000064                     	ds	2
   784   000066                     _efgtoa$2292:
   785                           	callstack 0
   786                           
   787                           ; 2 bytes @ 0x6
   788   000066                     	ds	2
   789   000068                     efgtoa@pp:
   790                           	callstack 0
   791                           
   792                           ; 1 bytes @ 0x8
   793   000068                     	ds	1
   794   000069                     efgtoa@mode:
   795                           	callstack 0
   796                           
   797                           ; 1 bytes @ 0x9
   798   000069                     	ds	1
   799   00006A                     efgtoa@nmode:
   800                           	callstack 0
   801                           
   802                           ; 1 bytes @ 0xA
   803   00006A                     	ds	1
   804   00006B                     efgtoa@d:
   805                           	callstack 0
   806                           
   807                           ; 2 bytes @ 0xB
   808   00006B                     	ds	2
   809   00006D                     efgtoa@m:
   810                           	callstack 0
   811                           
   812                           ; 2 bytes @ 0xD
   813   00006D                     	ds	2
   814   00006F                     efgtoa@e:
   815                           	callstack 0
   816                           
   817                           ; 2 bytes @ 0xF
   818   00006F                     	ds	2
   819   000071                     efgtoa@w:
   820                           	callstack 0
   821                           
   822                           ; 2 bytes @ 0x11
   823   000071                     	ds	2
   824   000073                     efgtoa@ou:
   825                           	callstack 0
   826                           
   827                           ; 4 bytes @ 0x13
   828   000073                     	ds	4
   829   000077                     efgtoa@i:
   830                           	callstack 0
   831                           
   832                           ; 2 bytes @ 0x17
   833   000077                     	ds	2
   834   000079                     efgtoa@h:
   835                           	callstack 0
   836                           
   837                           ; 4 bytes @ 0x19
   838   000079                     	ds	4
   839   00007D                     efgtoa@l:
   840                           	callstack 0
   841                           
   842                           ; 4 bytes @ 0x1D
   843   00007D                     	ds	4
   844   000081                     efgtoa@sign:
   845                           	callstack 0
   846                           
   847                           ; 1 bytes @ 0x21
   848   000081                     	ds	1
   849   000082                     efgtoa@n:
   850                           	callstack 0
   851                           
   852                           ; 2 bytes @ 0x22
   853   000082                     	ds	2
   854   000084                     efgtoa@g:
   855                           	callstack 0
   856                           
   857                           ; 4 bytes @ 0x24
   858   000084                     	ds	4
   859   000088                     efgtoa@u:
   860                           	callstack 0
   861                           
   862                           ; 4 bytes @ 0x28
   863   000088                     	ds	4
   864   00008C                     vfpfcnvrt@convarg:
   865                           	callstack 0
   866                           
   867                           ; 4 bytes @ 0x2C
   868   00008C                     	ds	4
   869   000090                     vfpfcnvrt@c:
   870                           	callstack 0
   871                           
   872                           ; 1 bytes @ 0x30
   873   000090                     	ds	1
   874   000091                     vfpfcnvrt@cp:
   875                           	callstack 0
   876                           
   877                           ; 2 bytes @ 0x31
   878   000091                     	ds	2
   879   000093                     ?_vfprintf:
   880                           	callstack 0
   881   000093                     vfprintf@fp:
   882                           	callstack 0
   883                           
   884                           ; 2 bytes @ 0x33
   885   000093                     	ds	2
   886   000095                     vfprintf@fmt:
   887                           	callstack 0
   888                           
   889                           ; 2 bytes @ 0x35
   890   000095                     	ds	2
   891   000097                     vfprintf@ap:
   892                           	callstack 0
   893                           
   894                           ; 2 bytes @ 0x37
   895   000097                     	ds	2
   896   000099                     ?_sprintf:
   897                           	callstack 0
   898   000099                     sprintf@s:
   899                           	callstack 0
   900                           
   901                           ; 2 bytes @ 0x39
   902   000099                     	ds	2
   903   00009B                     sprintf@fmt:
   904                           	callstack 0
   905                           
   906                           ; 2 bytes @ 0x3B
   907   00009B                     	ds	6
   908   0000A1                     sprintf@ap:
   909                           	callstack 0
   910                           
   911                           ; 2 bytes @ 0x41
   912   0000A1                     	ds	2
   913   0000A3                     sprintf@f:
   914                           	callstack 0
   915                           
   916                           ; 12 bytes @ 0x43
   917   0000A3                     	ds	12
   918   0000AF                     send_t@t_capa:
   919                           	callstack 0
   920                           
   921                           ; 4 bytes @ 0x4F
   922   0000AF                     	ds	4
   923   0000B3                     send_t@t_total:
   924                           	callstack 0
   925                           
   926                           ; 4 bytes @ 0x53
   927   0000B3                     	ds	4
   928   0000B7                     ??_send_t:
   929                           
   930                           ; 1 bytes @ 0x57
   931   0000B7                     	ds	1
   932   0000B8                     send_t@aux:
   933                           	callstack 0
   934                           
   935                           ; 18 bytes @ 0x58
   936   0000B8                     	ds	18
   937   0000CA                     send_t@mensaje:
   938                           	callstack 0
   939                           
   940                           ; 5 bytes @ 0x6A
   941   0000CA                     	ds	5
   942   0000CF                     send_t@i:
   943                           	callstack 0
   944                           
   945                           ; 2 bytes @ 0x6F
   946   0000CF                     	ds	2
   947   0000D1                     send_t@i_1675:
   948                           	callstack 0
   949                           
   950                           ; 2 bytes @ 0x71
   951   0000D1                     	ds	2
   952   0000D3                     ??_main:
   953                           
   954                           ; 1 bytes @ 0x73
   955   0000D3                     	ds	2
   956   0000D5                     _main$2729:
   957                           	callstack 0
   958                           
   959                           ; 2 bytes @ 0x75
   960   0000D5                     	ds	2
   961                           
   962                           	psect	cstackCOMRAM
   963   000001                     __pcstackCOMRAM:
   964                           	callstack 0
   965   000001                     ?_recibir_numero:
   966                           	callstack 0
   967   000001                     ?___fpclassifyf:
   968                           	callstack 0
   969   000001                     ?___wmul:
   970                           	callstack 0
   971   000001                     ?___awdiv:
   972                           	callstack 0
   973   000001                     ?___awmod:
   974                           	callstack 0
   975   000001                     ?___fladd:
   976                           	callstack 0
   977   000001                     ?_labs:
   978                           	callstack 0
   979   000001                     ?_hx711_read:
   980                           	callstack 0
   981   000001                     ?___lmul:
   982                           	callstack 0
   983   000001                     ?___lldiv:
   984                           	callstack 0
   985   000001                     ?___flneg:
   986                           	callstack 0
   987   000001                     ?___fltol:
   988                           	callstack 0
   989   000001                     ?___xxtofl:
   990                           	callstack 0
   991   000001                     _UART1_is_tx_ready$225:
   992                           	callstack 0
   993   000001                     UART1_Write@txData:
   994                           	callstack 0
   995   000001                     recibir_caracter@caracter:
   996                           	callstack 0
   997   000001                     UART1_SetFramingErrorHandler@interruptHandler:
   998                           	callstack 0
   999   000001                     UART1_SetOverrunErrorHandler@interruptHandler:
  1000                           	callstack 0
  1001   000001                     UART1_SetErrorHandler@interruptHandler:
  1002                           	callstack 0
  1003   000001                     TMR2_SetInterruptHandler@InterruptHandler:
  1004                           	callstack 0
  1005   000001                     TMR4_SetInterruptHandler@InterruptHandler:
  1006                           	callstack 0
  1007   000001                     PWM5_LoadDutyValue@dutyValue:
  1008                           	callstack 0
  1009   000001                     PWM6_LoadDutyValue@dutyValue:
  1010                           	callstack 0
  1011   000001                     ___wmul@multiplier:
  1012                           	callstack 0
  1013   000001                     ___awdiv@dividend:
  1014                           	callstack 0
  1015   000001                     ___awmod@dividend:
  1016                           	callstack 0
  1017   000001                     memcpy@d1:
  1018                           	callstack 0
  1019   000001                     fputc@c:
  1020                           	callstack 0
  1021   000001                     strcpy@dest:
  1022                           	callstack 0
  1023   000001                     ___lmul@multiplier:
  1024                           	callstack 0
  1025   000001                     ___lldiv@dividend:
  1026                           	callstack 0
  1027   000001                     ___fleq@ff1:
  1028                           	callstack 0
  1029   000001                     ___flneg@f1:
  1030                           	callstack 0
  1031   000001                     ___fltol@f1:
  1032                           	callstack 0
  1033   000001                     ___fladd@b:
  1034                           	callstack 0
  1035   000001                     ___xxtofl@val:
  1036                           	callstack 0
  1037   000001                     ___fpclassifyf@x:
  1038                           	callstack 0
  1039   000001                     labs@a:
  1040                           	callstack 0
  1041                           
  1042                           ; 4 bytes @ 0x0
  1043   000001                     	ds	1
  1044   000002                     ??_mensaje_L:
  1045   000002                     ??_mensaje_AWG:
  1046   000002                     ??_mensaje_capas:
  1047   000002                     ??_mensaje_vels:
  1048   000002                     ??_mensaje_boton:
  1049   000002                     ??_mensaje_terminado:
  1050   000002                     ??_mensaje_capa2:
  1051   000002                     ??_mensaje_final:
  1052   000002                     recibir_caracter@rxData_buf:
  1053                           	callstack 0
  1054                           
  1055                           ; 1 bytes @ 0x1
  1056   000002                     	ds	1
  1057   000003                     ??_PWM5_LoadDutyValue:
  1058   000003                     ??_PWM6_LoadDutyValue:
  1059   000003                     recibir_numero@numero:
  1060                           	callstack 0
  1061   000003                     ___wmul@multiplicand:
  1062                           	callstack 0
  1063   000003                     ___awdiv@divisor:
  1064                           	callstack 0
  1065   000003                     ___awmod@divisor:
  1066                           	callstack 0
  1067   000003                     memcpy@s1:
  1068                           	callstack 0
  1069   000003                     fputc@fp:
  1070                           	callstack 0
  1071   000003                     strcpy@src:
  1072                           	callstack 0
  1073   000003                     mensaje_AWG@mensaje:
  1074                           	callstack 0
  1075   000003                     mensaje_capas@mensaje:
  1076                           	callstack 0
  1077   000003                     mensaje_terminado@mensaje:
  1078                           	callstack 0
  1079   000003                     mensaje_L@mensaje:
  1080                           	callstack 0
  1081   000003                     mensaje_final@mensaje:
  1082                           	callstack 0
  1083   000003                     mensaje_boton@mensaje:
  1084                           	callstack 0
  1085   000003                     mensaje_vels@mensaje:
  1086                           	callstack 0
  1087   000003                     mensaje_capa2@mensaje:
  1088                           	callstack 0
  1089                           
  1090                           ; 27 bytes @ 0x2
  1091   000003                     	ds	2
  1092   000005                     ??_fputc:
  1093   000005                     ??___fpclassifyf:
  1094   000005                     ??_labs:
  1095   000005                     ??_hx711_read:
  1096   000005                     ??___fltol:
  1097   000005                     ??___xxtofl:
  1098   000005                     recibir_numero@rxData:
  1099                           	callstack 0
  1100   000005                     ___awdiv@counter:
  1101                           	callstack 0
  1102   000005                     ___awmod@counter:
  1103                           	callstack 0
  1104   000005                     ___wmul@product:
  1105                           	callstack 0
  1106   000005                     memcpy@n:
  1107                           	callstack 0
  1108   000005                     strcpy@s:
  1109                           	callstack 0
  1110   000005                     ___lmul@multiplicand:
  1111                           	callstack 0
  1112   000005                     ___lldiv@divisor:
  1113                           	callstack 0
  1114   000005                     ___fleq@ff2:
  1115                           	callstack 0
  1116   000005                     ___fladd@a:
  1117                           	callstack 0
  1118                           
  1119                           ; 4 bytes @ 0x4
  1120   000005                     	ds	1
  1121   000006                     ___awdiv@sign:
  1122                           	callstack 0
  1123   000006                     ___awmod@sign:
  1124                           	callstack 0
  1125                           
  1126                           ; 1 bytes @ 0x5
  1127   000006                     	ds	1
  1128   000007                     ?_Lectura_Serial:
  1129                           	callstack 0
  1130   000007                     ?_abs:
  1131                           	callstack 0
  1132   000007                     ___awdiv@quotient:
  1133                           	callstack 0
  1134   000007                     abs@a:
  1135                           	callstack 0
  1136   000007                     memcpy@d:
  1137                           	callstack 0
  1138   000007                     strcpy@d:
  1139                           	callstack 0
  1140                           
  1141                           ; 2 bytes @ 0x6
  1142   000007                     	ds	1
  1143   000008                     hx711_read@data:
  1144                           	callstack 0
  1145                           
  1146                           ; 4 bytes @ 0x7
  1147   000008                     	ds	1
  1148   000009                     ??_Lectura_Serial:
  1149   000009                     ??___fladd:
  1150   000009                     ??_abs:
  1151   000009                     ??___fleq:
  1152   000009                     ___fltol@sign1:
  1153                           	callstack 0
  1154   000009                     ___xxtofl@sign:
  1155                           	callstack 0
  1156   000009                     mensaje_AWG@i:
  1157                           	callstack 0
  1158   000009                     ___fpclassifyf@e:
  1159                           	callstack 0
  1160   000009                     memcpy@s:
  1161                           	callstack 0
  1162   000009                     ___lmul@product:
  1163                           	callstack 0
  1164   000009                     ___lldiv@quotient:
  1165                           	callstack 0
  1166                           
  1167                           ; 4 bytes @ 0x8
  1168   000009                     	ds	1
  1169   00000A                     ___fltol@exp1:
  1170                           	callstack 0
  1171   00000A                     ___xxtofl@exp:
  1172                           	callstack 0
  1173   00000A                     fputs@s:
  1174                           	callstack 0
  1175                           
  1176                           ; 2 bytes @ 0x9
  1177   00000A                     	ds	1
  1178   00000B                     memcpy@tmp:
  1179                           	callstack 0
  1180   00000B                     mensaje_capas@i:
  1181                           	callstack 0
  1182   00000B                     ___xxtofl@arg:
  1183                           	callstack 0
  1184   00000B                     ___fpclassifyf@u:
  1185                           	callstack 0
  1186                           
  1187                           ; 4 bytes @ 0xA
  1188   00000B                     	ds	1
  1189   00000C                     hx711_read@i:
  1190                           	callstack 0
  1191   00000C                     fputs@fp:
  1192                           	callstack 0
  1193                           
  1194                           ; 2 bytes @ 0xB
  1195   00000C                     	ds	1
  1196   00000D                     ___lldiv@counter:
  1197                           	callstack 0
  1198   00000D                     ___fladd@signs:
  1199                           	callstack 0
  1200   00000D                     set_gain@gain1:
  1201                           	callstack 0
  1202                           
  1203                           ; 2 bytes @ 0xC
  1204   00000D                     	ds	1
  1205   00000E                     ?_get_average:
  1206                           	callstack 0
  1207   00000E                     ___fladd@aexp:
  1208                           	callstack 0
  1209   00000E                     fputs@c:
  1210                           	callstack 0
  1211   00000E                     get_average@times:
  1212                           	callstack 0
  1213                           
  1214                           ; 2 bytes @ 0xD
  1215   00000E                     	ds	1
  1216   00000F                     ??_set_gain:
  1217   00000F                     ?___fldiv:
  1218                           	callstack 0
  1219   00000F                     ___fladd@bexp:
  1220                           	callstack 0
  1221   00000F                     fputs@i:
  1222                           	callstack 0
  1223   00000F                     ___fldiv@b:
  1224                           	callstack 0
  1225                           
  1226                           ; 4 bytes @ 0xE
  1227   00000F                     	ds	1
  1228   000010                     ___fladd@grs:
  1229                           	callstack 0
  1230                           
  1231                           ; 1 bytes @ 0xF
  1232   000010                     	ds	1
  1233   000011                     init_hx@gain1:
  1234                           	callstack 0
  1235   000011                     pad@fp:
  1236                           	callstack 0
  1237                           
  1238                           ; 2 bytes @ 0x10
  1239   000011                     	ds	1
  1240   000012                     ??_get_average:
  1241                           
  1242                           ; 1 bytes @ 0x11
  1243   000012                     	ds	1
  1244   000013                     mensaje_terminado@i:
  1245                           	callstack 0
  1246   000013                     get_average@i:
  1247                           	callstack 0
  1248   000013                     pad@buf:
  1249                           	callstack 0
  1250   000013                     ___fldiv@a:
  1251                           	callstack 0
  1252   000013                     Lectura_Serial@arreglo_bit:
  1253                           	callstack 0
  1254                           
  1255                           ; 12 bytes @ 0x12
  1256   000013                     	ds	1
  1257   000014                     mensaje_L@i:
  1258                           	callstack 0
  1259                           
  1260                           ; 2 bytes @ 0x13
  1261   000014                     	ds	1
  1262   000015                     pad@p:
  1263                           	callstack 0
  1264   000015                     get_average@sum:
  1265                           	callstack 0
  1266                           
  1267                           ; 4 bytes @ 0x14
  1268   000015                     	ds	1
  1269   000016                     mensaje_final@i:
  1270                           	callstack 0
  1271                           
  1272                           ; 2 bytes @ 0x15
  1273   000016                     	ds	1
  1274   000017                     ??___fldiv:
  1275   000017                     ??_pad:
  1276   000017                     mensaje_boton@i:
  1277                           	callstack 0
  1278                           
  1279                           ; 2 bytes @ 0x16
  1280   000017                     	ds	1
  1281   000018                     pad@i:
  1282                           	callstack 0
  1283                           
  1284                           ; 2 bytes @ 0x17
  1285   000018                     	ds	2
  1286   00001A                     pad@w:
  1287                           	callstack 0
  1288                           
  1289                           ; 2 bytes @ 0x19
  1290   00001A                     	ds	1
  1291   00001B                     ___fldiv@rem:
  1292                           	callstack 0
  1293                           
  1294                           ; 4 bytes @ 0x1A
  1295   00001B                     	ds	1
  1296   00001C                     dtoa@fp:
  1297                           	callstack 0
  1298                           
  1299                           ; 2 bytes @ 0x1B
  1300   00001C                     	ds	1
  1301   00001D                     mensaje_vels@i:
  1302                           	callstack 0
  1303                           
  1304                           ; 2 bytes @ 0x1C
  1305   00001D                     	ds	1
  1306   00001E                     mensaje_capa2@i:
  1307                           	callstack 0
  1308   00001E                     dtoa@d:
  1309                           	callstack 0
  1310                           
  1311                           ; 2 bytes @ 0x1D
  1312   00001E                     	ds	1
  1313   00001F                     ___fldiv@sign:
  1314                           	callstack 0
  1315   00001F                     Lectura_Serial@REF_grados:
  1316                           	callstack 0
  1317                           
  1318                           ; 2 bytes @ 0x1E
  1319   00001F                     	ds	1
  1320   000020                     ___fldiv@new_exp:
  1321                           	callstack 0
  1322   000020                     _dtoa$2261:
  1323                           	callstack 0
  1324                           
  1325                           ; 2 bytes @ 0x1F
  1326   000020                     	ds	1
  1327   000021                     Lectura_Serial@rxData:
  1328                           	callstack 0
  1329                           
  1330                           ; 1 bytes @ 0x20
  1331   000021                     	ds	1
  1332   000022                     Lectura_Serial@i:
  1333                           	callstack 0
  1334   000022                     dtoa@p:
  1335                           	callstack 0
  1336   000022                     ___fldiv@grs:
  1337                           	callstack 0
  1338                           
  1339                           ; 4 bytes @ 0x21
  1340   000022                     	ds	2
  1341   000024                     dtoa@w:
  1342                           	callstack 0
  1343                           
  1344                           ; 2 bytes @ 0x23
  1345   000024                     	ds	2
  1346   000026                     ___fldiv@bexp:
  1347                           	callstack 0
  1348   000026                     dtoa@i:
  1349                           	callstack 0
  1350                           
  1351                           ; 2 bytes @ 0x25
  1352   000026                     	ds	1
  1353   000027                     ___fldiv@aexp:
  1354                           	callstack 0
  1355                           
  1356                           ; 1 bytes @ 0x26
  1357   000027                     	ds	1
  1358   000028                     ?___flmul:
  1359                           	callstack 0
  1360   000028                     ?_floorf:
  1361                           	callstack 0
  1362   000028                     dtoa@s:
  1363                           	callstack 0
  1364   000028                     ___flmul@b:
  1365                           	callstack 0
  1366   000028                     floorf@x:
  1367                           	callstack 0
  1368                           
  1369                           ; 4 bytes @ 0x27
  1370   000028                     	ds	4
  1371   00002C                     ??_floorf:
  1372   00002C                     ___flmul@a:
  1373                           	callstack 0
  1374                           
  1375                           ; 4 bytes @ 0x2B
  1376   00002C                     	ds	4
  1377   000030                     ??___flmul:
  1378                           
  1379                           ; 1 bytes @ 0x2F
  1380   000030                     	ds	2
  1381   000032                     floorf@m:
  1382                           	callstack 0
  1383                           
  1384                           ; 4 bytes @ 0x31
  1385   000032                     	ds	2
  1386   000034                     ___flmul@sign:
  1387                           	callstack 0
  1388                           
  1389                           ; 1 bytes @ 0x33
  1390   000034                     	ds	1
  1391   000035                     ___flmul@grs:
  1392                           	callstack 0
  1393                           
  1394                           ; 4 bytes @ 0x34
  1395   000035                     	ds	1
  1396   000036                     floorf@e:
  1397                           	callstack 0
  1398                           
  1399                           ; 2 bytes @ 0x35
  1400   000036                     	ds	2
  1401   000038                     floorf@u:
  1402                           	callstack 0
  1403                           
  1404                           ; 4 bytes @ 0x37
  1405   000038                     	ds	1
  1406   000039                     ___flmul@aexp:
  1407                           	callstack 0
  1408                           
  1409                           ; 1 bytes @ 0x38
  1410   000039                     	ds	1
  1411   00003A                     ___flmul@bexp:
  1412                           	callstack 0
  1413                           
  1414                           ; 1 bytes @ 0x39
  1415   00003A                     	ds	1
  1416   00003B                     ___flmul@prod:
  1417                           	callstack 0
  1418                           
  1419                           ; 4 bytes @ 0x3A
  1420   00003B                     	ds	4
  1421   00003F                     ___flmul@temp:
  1422                           	callstack 0
  1423                           
  1424                           ; 2 bytes @ 0x3E
  1425   00003F                     	ds	2
  1426   000041                     ?_T_tmr2:
  1427                           	callstack 0
  1428   000041                     ?_T_tmr4:
  1429                           	callstack 0
  1430   000041                     ?___flsub:
  1431                           	callstack 0
  1432   000041                     T_tmr4@rpm:
  1433                           	callstack 0
  1434   000041                     T_tmr2@mm_s:
  1435                           	callstack 0
  1436   000041                     ___flge@ff1:
  1437                           	callstack 0
  1438   000041                     ___flsub@b:
  1439                           	callstack 0
  1440                           
  1441                           ; 4 bytes @ 0x40
  1442   000041                     	ds	2
  1443   000043                     T_tmr4@v_registro:
  1444                           	callstack 0
  1445                           
  1446                           ; 4 bytes @ 0x42
  1447   000043                     	ds	2
  1448   000045                     T_tmr2@periodo:
  1449                           	callstack 0
  1450   000045                     ___flge@ff2:
  1451                           	callstack 0
  1452   000045                     ___flsub@a:
  1453                           	callstack 0
  1454                           
  1455                           ; 4 bytes @ 0x44
  1456   000045                     	ds	2
  1457   000047                     T_tmr4@periodo_tmr:
  1458                           	callstack 0
  1459                           
  1460                           ; 4 bytes @ 0x46
  1461   000047                     	ds	2
  1462   000049                     ??___flge:
  1463   000049                     T_tmr2@v_registro:
  1464                           	callstack 0
  1465                           
  1466                           ; 4 bytes @ 0x48
  1467   000049                     	ds	2
  1468   00004B                     T_tmr4@periodo:
  1469                           	callstack 0
  1470                           
  1471                           ; 4 bytes @ 0x4A
  1472   00004B                     	ds	2
  1473   00004D                     efgtoa@fp:
  1474                           	callstack 0
  1475   00004D                     T_tmr2@periodo_tmr:
  1476                           	callstack 0
  1477                           
  1478                           ; 4 bytes @ 0x4C
  1479   00004D                     	ds	2
  1480   00004F                     T_tmr4@frecuencia:
  1481                           	callstack 0
  1482   00004F                     efgtoa@f:
  1483                           	callstack 0
  1484                           
  1485                           ; 4 bytes @ 0x4E
  1486   00004F                     	ds	2
  1487   000051                     T_tmr2@frecuencia:
  1488                           	callstack 0
  1489                           
  1490                           ; 4 bytes @ 0x50
  1491   000051                     	ds	2
  1492   000053                     efgtoa@c:
  1493                           	callstack 0
  1494                           
  1495                           ; 1 bytes @ 0x52
  1496   000053                     	ds	1
  1497   000054                     ??_efgtoa:
  1498                           
  1499                           ; 1 bytes @ 0x53
  1500   000054                     	ds	2
  1501   000056                     vfpfcnvrt@fp:
  1502                           	callstack 0
  1503                           
  1504                           ; 2 bytes @ 0x55
  1505   000056                     	ds	2
  1506   000058                     vfpfcnvrt@fmt:
  1507                           	callstack 0
  1508                           
  1509                           ; 2 bytes @ 0x57
  1510   000058                     	ds	2
  1511   00005A                     vfpfcnvrt@ap:
  1512                           	callstack 0
  1513                           
  1514                           ; 2 bytes @ 0x59
  1515   00005A                     	ds	2
  1516   00005C                     ??_vfpfcnvrt:
  1517                           
  1518                           ; 1 bytes @ 0x5B
  1519   00005C                     	ds	2
  1520   00005E                     vfprintf@cfmt:
  1521                           	callstack 0
  1522                           
  1523                           ; 2 bytes @ 0x5D
  1524   00005E                     	ds	2
  1525   000060                     
  1526                           ; 1 bytes @ 0x5F
  1527 ;;
  1528 ;;Main: autosize = 0, tempsize = 2, incstack = 0, save=0
  1529 ;;
  1530 ;; *************** function _main *****************
  1531 ;; Defined at:
  1532 ;;		line 95 in file "main.c"
  1533 ;; Parameters:    Size  Location     Type
  1534 ;;		None
  1535 ;; Auto vars:     Size  Location     Type
  1536 ;;		None
  1537 ;; Return value:  Size  Location     Type
  1538 ;;                  1    wreg      void 
  1539 ;; Registers used:
  1540 ;;		wreg, fsr1l, fsr1h, fsr2l, fsr2h, status,2, status,0, pcl, pclath, pclatu, tosl, tblptrl, tblptrh, tblptru, prodl, p
      +rodh, cstack
  1541 ;; Tracked objects:
  1542 ;;		On entry : 0/0
  1543 ;;		On exit  : 0/0
  1544 ;;		Unchanged: 0/0
  1545 ;; Data sizes:     COMRAM   BANK0   BANK1   BANK2   BANK3   BANK4   BANK5   BANK6   BANK7   BANK8   BANK9  BANK10  BANK1
      +1  BANK12  BANK13  BANK14  BANK15
  1546 ;;      Params:         0       0       0       0       0       0       0       0       0       0       0       0       
      +0       0       0       0       0
  1547 ;;      Locals:         0       2       0       0       0       0       0       0       0       0       0       0       
      +0       0       0       0       0
  1548 ;;      Temps:          0       2       0       0       0       0       0       0       0       0       0       0       
      +0       0       0       0       0
  1549 ;;      Totals:         0       4       0       0       0       0       0       0       0       0       0       0       
      +0       0       0       0       0
  1550 ;;Total ram usage:        4 bytes
  1551 ;; Hardware stack levels required when called: 11
  1552 ;; This function calls:
  1553 ;;		_Lectura_Serial
  1554 ;;		_PWM5_LoadDutyValue
  1555 ;;		_PWM6_LoadDutyValue
  1556 ;;		_SYSTEM_Initialize
  1557 ;;		_T_tmr2
  1558 ;;		_T_tmr4
  1559 ;;		___awdiv
  1560 ;;		___fldiv
  1561 ;;		___flmul
  1562 ;;		___fltol
  1563 ;;		___lmul
  1564 ;;		___wmul
  1565 ;;		___xxtofl
  1566 ;;		_get_average
  1567 ;;		_init_hx
  1568 ;;		_mensaje_AWG
  1569 ;;		_mensaje_L
  1570 ;;		_mensaje_boton
  1571 ;;		_mensaje_capa2
  1572 ;;		_mensaje_capas
  1573 ;;		_mensaje_final
  1574 ;;		_mensaje_terminado
  1575 ;;		_mensaje_vels
  1576 ;;		_recibir_caracter
  1577 ;;		_recibir_numero
  1578 ;;		_send_t
  1579 ;; This function is called by:
  1580 ;;		Startup code after reset
  1581 ;; This function uses a non-reentrant model
  1582 ;;
  1583                           
  1584                           	psect	text0
  1585   001010                     __ptext0:
  1586                           	callstack 0
  1587   001010                     _main:
  1588                           	callstack 20
  1589   001010                     
  1590                           ;main.c: 97:     SYSTEM_Initialize();
  1591   001010  ECA9  F029         	call	_SYSTEM_Initialize	;wreg free
  1592   001014                     
  1593                           ;main.c: 104:     (INTCON0bits.GIE = 1);
  1594   001014  8ED2               	bsf	210,7,c	;volatile
  1595   001016                     
  1596                           ;main.c: 109:     estado = 0;
  1597   001016  0E00               	movlw	0
  1598   001018  0100               	movlb	0	; () banked
  1599   00101A  6FF4               	movwf	(_estado+1)& (0+255),b
  1600   00101C  0E00               	movlw	0
  1601   00101E  6FF3               	movwf	_estado& (0+255),b
  1602   001020                     
  1603                           ; BSR set to: 0
  1604                           ;main.c: 110:     L = 0;
  1605   001020  0E00               	movlw	0
  1606   001022  6FF2               	movwf	(_L+1)& (0+255),b
  1607   001024  0E00               	movlw	0
  1608   001026  6FF1               	movwf	_L& (0+255),b
  1609   001028                     
  1610                           ; BSR set to: 0
  1611                           ;main.c: 111:     AWG = 0;
  1612   001028  0E00               	movlw	0
  1613   00102A  6FF0               	movwf	(_AWG+1)& (0+255),b
  1614   00102C  0E00               	movlw	0
  1615   00102E  6FEF               	movwf	_AWG& (0+255),b
  1616   001030                     
  1617                           ; BSR set to: 0
  1618                           ;main.c: 112:     capas = 0;
  1619   001030  0E00               	movlw	0
  1620   001032  6FEE               	movwf	(_capas+1)& (0+255),b
  1621   001034  0E00               	movlw	0
  1622   001036  6FED               	movwf	_capas& (0+255),b
  1623   001038                     
  1624                           ; BSR set to: 0
  1625                           ;main.c: 113:     sel_vel = 0;
  1626   001038  0E00               	movlw	0
  1627   00103A  6FEC               	movwf	(_sel_vel+1)& (0+255),b
  1628   00103C  0E00               	movlw	0
  1629   00103E  6FEB               	movwf	_sel_vel& (0+255),b
  1630   001040                     
  1631                           ; BSR set to: 0
  1632                           ;main.c: 114:     t_capa1 = 0.0;
  1633   001040  0E00               	movlw	0
  1634   001042  0101               	movlb	1	; () banked
  1635   001044  6FF6               	movwf	_t_capa1& (0+255),b
  1636   001046  0E00               	movlw	0
  1637   001048  6FF7               	movwf	(_t_capa1+1)& (0+255),b
  1638   00104A  0E00               	movlw	0
  1639   00104C  6FF8               	movwf	(_t_capa1+2)& (0+255),b
  1640   00104E  0E00               	movlw	0
  1641   001050  6FF9               	movwf	(_t_capa1+3)& (0+255),b
  1642   001052                     
  1643                           ; BSR set to: 1
  1644                           ;main.c: 115:     pasos_bobina = 0;
  1645   001052  0E00               	movlw	0
  1646   001054  6F28               	movwf	_pasos_bobina& (0+255),b
  1647   001056  0E00               	movlw	0
  1648   001058  6F29               	movwf	(_pasos_bobina+1)& (0+255),b
  1649   00105A  0E00               	movlw	0
  1650   00105C  6F2A               	movwf	(_pasos_bobina+2)& (0+255),b
  1651   00105E  0E00               	movlw	0
  1652   001060  6F2B               	movwf	(_pasos_bobina+3)& (0+255),b
  1653   001062                     
  1654                           ; BSR set to: 1
  1655                           ;main.c: 116:     pasos_lineal = 0;
  1656   001062  0E00               	movlw	0
  1657   001064  0100               	movlb	0	; () banked
  1658   001066  6FDB               	movwf	_pasos_lineal& (0+255),b
  1659   001068  0E00               	movlw	0
  1660   00106A  6FDC               	movwf	(_pasos_lineal+1)& (0+255),b
  1661   00106C  0E00               	movlw	0
  1662   00106E  6FDD               	movwf	(_pasos_lineal+2)& (0+255),b
  1663   001070  0E00               	movlw	0
  1664   001072  6FDE               	movwf	(_pasos_lineal+3)& (0+255),b
  1665   001074                     
  1666                           ; BSR set to: 0
  1667                           ;main.c: 117:     vel_lineal = 0;
  1668   001074  0E00               	movlw	0
  1669   001076  0101               	movlb	1	; () banked
  1670   001078  6FEE               	movwf	_vel_lineal& (0+255),b
  1671   00107A  0E00               	movlw	0
  1672   00107C  6FEF               	movwf	(_vel_lineal+1)& (0+255),b
  1673   00107E  0E00               	movlw	0
  1674   001080  6FF0               	movwf	(_vel_lineal+2)& (0+255),b
  1675   001082  0E00               	movlw	0
  1676   001084  6FF1               	movwf	(_vel_lineal+3)& (0+255),b
  1677   001086                     
  1678                           ; BSR set to: 1
  1679                           ;main.c: 118:     RPM = w_ideal;
  1680   001086  0E00               	movlw	0
  1681   001088  6FF2               	movwf	_RPM& (0+255),b
  1682   00108A  0E00               	movlw	0
  1683   00108C  6FF3               	movwf	(_RPM+1)& (0+255),b
  1684   00108E  0E96               	movlw	150
  1685   001090  6FF4               	movwf	(_RPM+2)& (0+255),b
  1686   001092  0E43               	movlw	67
  1687   001094  6FF5               	movwf	(_RPM+3)& (0+255),b
  1688   001096                     
  1689                           ; BSR set to: 1
  1690                           ;main.c: 119:     n_p_lineal = 0;
  1691   001096  0E00               	movlw	0
  1692   001098  6F24               	movwf	_n_p_lineal& (0+255),b
  1693   00109A  0E00               	movlw	0
  1694   00109C  6F25               	movwf	(_n_p_lineal+1)& (0+255),b
  1695   00109E  0E00               	movlw	0
  1696   0010A0  6F26               	movwf	(_n_p_lineal+2)& (0+255),b
  1697   0010A2  0E00               	movlw	0
  1698   0010A4  6F27               	movwf	(_n_p_lineal+3)& (0+255),b
  1699   0010A6                     
  1700                           ; BSR set to: 1
  1701                           ;main.c: 120:     n_p_bobina = 0;
  1702   0010A6  0E00               	movlw	0
  1703   0010A8  6F20               	movwf	_n_p_bobina& (0+255),b
  1704   0010AA  0E00               	movlw	0
  1705   0010AC  6F21               	movwf	(_n_p_bobina+1)& (0+255),b
  1706   0010AE  0E00               	movlw	0
  1707   0010B0  6F22               	movwf	(_n_p_bobina+2)& (0+255),b
  1708   0010B2  0E00               	movlw	0
  1709   0010B4  6F23               	movwf	(_n_p_bobina+3)& (0+255),b
  1710                           
  1711                           ;main.c: 122:     init_hx(128);
  1712   0010B6  0E00               	movlw	0
  1713   0010B8  6E12               	movwf	(init_hx@gain1+1)^0,c
  1714   0010BA  0E80               	movlw	128
  1715   0010BC  6E11               	movwf	init_hx@gain1^0,c
  1716   0010BE  EC3D  F02A         	call	_init_hx	;wreg free
  1717   0010C2                     
  1718                           ;main.c: 123:     adc = 0;
  1719   0010C2  0E00               	movlw	0
  1720   0010C4  0101               	movlb	1	; () banked
  1721   0010C6  6F1C               	movwf	_adc& (0+255),b
  1722   0010C8  0E00               	movlw	0
  1723   0010CA  6F1D               	movwf	(_adc+1)& (0+255),b
  1724   0010CC  0E00               	movlw	0
  1725   0010CE  6F1E               	movwf	(_adc+2)& (0+255),b
  1726   0010D0  0E00               	movlw	0
  1727   0010D2  6F1F               	movwf	(_adc+3)& (0+255),b
  1728   0010D4                     
  1729                           ; BSR set to: 1
  1730                           ;main.c: 124:     promedio = 0;
  1731   0010D4  0E00               	movlw	0
  1732   0010D6  0100               	movlb	0	; () banked
  1733   0010D8  6FD7               	movwf	_promedio& (0+255),b
  1734   0010DA  0E00               	movlw	0
  1735   0010DC  6FD8               	movwf	(_promedio+1)& (0+255),b
  1736   0010DE  0E00               	movlw	0
  1737   0010E0  6FD9               	movwf	(_promedio+2)& (0+255),b
  1738   0010E2  0E00               	movlw	0
  1739   0010E4  6FDA               	movwf	(_promedio+3)& (0+255),b
  1740   0010E6                     
  1741                           ; BSR set to: 0
  1742                           ;main.c: 125:     aux = 0;
  1743   0010E6  0E00               	movlw	0
  1744   0010E8  0101               	movlb	1	; () banked
  1745   0010EA  6F18               	movwf	_aux& (0+255),b
  1746   0010EC  0E00               	movlw	0
  1747   0010EE  6F19               	movwf	(_aux+1)& (0+255),b
  1748   0010F0  0E00               	movlw	0
  1749   0010F2  6F1A               	movwf	(_aux+2)& (0+255),b
  1750   0010F4  0E00               	movlw	0
  1751   0010F6  6F1B               	movwf	(_aux+3)& (0+255),b
  1752   0010F8                     
  1753                           ; BSR set to: 1
  1754                           ;main.c: 126:     gramos = 0;
  1755   0010F8  0E00               	movlw	0
  1756   0010FA  6F14               	movwf	_gramos& (0+255),b
  1757   0010FC  0E00               	movlw	0
  1758   0010FE  6F15               	movwf	(_gramos+1)& (0+255),b
  1759   001100  0E00               	movlw	0
  1760   001102  6F16               	movwf	(_gramos+2)& (0+255),b
  1761   001104  0E00               	movlw	0
  1762   001106  6F17               	movwf	(_gramos+3)& (0+255),b
  1763   001108                     
  1764                           ; BSR set to: 1
  1765                           ;main.c: 127:     gramos_d = 0;
  1766   001108  0E00               	movlw	0
  1767   00110A  6F31               	movwf	(_gramos_d+1)& (0+255),b
  1768   00110C  0E00               	movlw	0
  1769   00110E  6F30               	movwf	_gramos_d& (0+255),b
  1770   001110                     
  1771                           ; BSR set to: 1
  1772                           ;main.c: 128:     pwm = 600;
  1773   001110  0E02               	movlw	2
  1774   001112  0100               	movlb	0	; () banked
  1775   001114  6FE4               	movwf	(_pwm+1)& (0+255),b
  1776   001116  0E58               	movlw	88
  1777   001118  6FE3               	movwf	_pwm& (0+255),b
  1778   00111A                     
  1779                           ; BSR set to: 0
  1780                           ;main.c: 129:     clockwise = 1;
  1781   00111A  0E01               	movlw	1
  1782   00111C  6FF6               	movwf	_clockwise& (0+255),b
  1783   00111E                     l5774:
  1784                           
  1785                           ; BSR set to: 0
  1786                           ;main.c: 131:     TMR2_flag = 0;
  1787   00111E  0E00               	movlw	0
  1788   001120  6FF8               	movwf	_TMR2_flag& (0+255),b
  1789   001122  EF77  F00D         	goto	l6020
  1790   001126                     l5776:
  1791                           
  1792                           ; BSR set to: 0
  1793                           ;main.c: 137:                 char_leido = recibir_caracter();
  1794   001126  ECE5  F029         	call	_recibir_caracter	;wreg free
  1795   00112A  0100               	movlb	0	; () banked
  1796   00112C  6FD3               	movwf	??_main& (0+255),b
  1797   00112E  51D3               	movf	??_main& (0+255),w,b
  1798   001130  6FE7               	movwf	_char_leido& (0+255),b
  1799   001132  6BE8               	clrf	(_char_leido+1)& (0+255),b
  1800   001134                     
  1801                           ; BSR set to: 0
  1802                           ;main.c: 138:                 if ((char_leido == 'I') || (char_leido == 'i')) {
  1803   001134  0E49               	movlw	73
  1804   001136  19E7               	xorwf	_char_leido& (0+255),w,b
  1805   001138  11E8               	iorwf	(_char_leido+1)& (0+255),w,b
  1806   00113A  B4D8               	btfsc	status,2,c
  1807   00113C  EFA2  F008         	goto	u5421
  1808   001140  EFA4  F008         	goto	u5420
  1809   001144                     u5421:
  1810   001144  EFAE  F008         	goto	l5782
  1811   001148                     u5420:
  1812   001148                     
  1813                           ; BSR set to: 0
  1814   001148  0E69               	movlw	105
  1815   00114A  19E7               	xorwf	_char_leido& (0+255),w,b
  1816   00114C  11E8               	iorwf	(_char_leido+1)& (0+255),w,b
  1817   00114E  A4D8               	btfss	status,2,c
  1818   001150  EFAC  F008         	goto	u5431
  1819   001154  EFAE  F008         	goto	u5430
  1820   001158                     u5431:
  1821   001158  EF77  F00D         	goto	l6020
  1822   00115C                     u5430:
  1823   00115C                     l5782:
  1824                           
  1825                           ; BSR set to: 0
  1826                           ;main.c: 139:                     mensaje_L();
  1827   00115C  EC7A  F026         	call	_mensaje_L	;wreg free
  1828   001160                     
  1829                           ;main.c: 140:                     L = 0;
  1830   001160  0E00               	movlw	0
  1831   001162  0100               	movlb	0	; () banked
  1832   001164  6FF2               	movwf	(_L+1)& (0+255),b
  1833   001166  0E00               	movlw	0
  1834   001168  6FF1               	movwf	_L& (0+255),b
  1835   00116A                     
  1836                           ; BSR set to: 0
  1837                           ;main.c: 141:                     estado = 1;
  1838   00116A  0E00               	movlw	0
  1839   00116C  6FF4               	movwf	(_estado+1)& (0+255),b
  1840   00116E  0E01               	movlw	1
  1841   001170  6FF3               	movwf	_estado& (0+255),b
  1842   001172  EF77  F00D         	goto	l6020
  1843   001176                     l5788:
  1844                           
  1845                           ; BSR set to: 0
  1846                           ;main.c: 145:                 L = Lectura_Serial();
  1847   001176  ECC6  F01E         	call	_Lectura_Serial	;wreg free
  1848   00117A  C007  F0F1         	movff	?_Lectura_Serial,_L
  1849   00117E  C008  F0F2         	movff	?_Lectura_Serial+1,_L+1
  1850   001182                     
  1851                           ;main.c: 146:                 if ((L <= 30000) && (L >= 5000)) {
  1852   001182  0100               	movlb	0	; () banked
  1853   001184  BFF2               	btfsc	(_L+1)& (0+255),7,b
  1854   001186  EFD0  F008         	goto	u5440
  1855   00118A  0E31               	movlw	49
  1856   00118C  5DF1               	subwf	_L& (0+255),w,b
  1857   00118E  0E75               	movlw	117
  1858   001190  59F2               	subwfb	(_L+1)& (0+255),w,b
  1859   001192  B0D8               	btfsc	status,0,c
  1860   001194  EFCE  F008         	goto	u5441
  1861   001198  EFD0  F008         	goto	u5440
  1862   00119C                     u5441:
  1863   00119C  EF77  F00D         	goto	l676
  1864   0011A0                     u5440:
  1865   0011A0                     
  1866                           ; BSR set to: 0
  1867   0011A0  BFF2               	btfsc	(_L+1)& (0+255),7,b
  1868   0011A2  EFDC  F008         	goto	u5451
  1869   0011A6  0E88               	movlw	136
  1870   0011A8  5DF1               	subwf	_L& (0+255),w,b
  1871   0011AA  0E13               	movlw	19
  1872   0011AC  59F2               	subwfb	(_L+1)& (0+255),w,b
  1873   0011AE  A0D8               	btfss	status,0,c
  1874   0011B0  EFDC  F008         	goto	u5451
  1875   0011B4  EFDE  F008         	goto	u5450
  1876   0011B8                     u5451:
  1877   0011B8  EF77  F00D         	goto	l676
  1878   0011BC                     u5450:
  1879   0011BC                     
  1880                           ; BSR set to: 0
  1881                           ;main.c: 148:                     mensaje_AWG();
  1882   0011BC  ECB0  F026         	call	_mensaje_AWG	;wreg free
  1883   0011C0                     
  1884                           ;main.c: 149:                     AWG = 0;
  1885   0011C0  0E00               	movlw	0
  1886   0011C2  0100               	movlb	0	; () banked
  1887   0011C4  6FF0               	movwf	(_AWG+1)& (0+255),b
  1888   0011C6  0E00               	movlw	0
  1889   0011C8  6FEF               	movwf	_AWG& (0+255),b
  1890   0011CA                     
  1891                           ; BSR set to: 0
  1892                           ;main.c: 150:                     estado = 2;
  1893   0011CA  0E00               	movlw	0
  1894   0011CC  6FF4               	movwf	(_estado+1)& (0+255),b
  1895   0011CE  0E02               	movlw	2
  1896   0011D0  6FF3               	movwf	_estado& (0+255),b
  1897   0011D2  EF77  F00D         	goto	l6020
  1898   0011D6                     l5800:
  1899                           
  1900                           ; BSR set to: 0
  1901                           ;main.c: 154:                 AWG = recibir_numero();
  1902   0011D6  EC94  F029         	call	_recibir_numero	;wreg free
  1903   0011DA  C001  F0EF         	movff	?_recibir_numero,_AWG
  1904   0011DE  C002  F0F0         	movff	?_recibir_numero+1,_AWG+1
  1905                           
  1906                           ;main.c: 155:                 switch (AWG) {
  1907   0011E2  EF5C  F009         	goto	l5828
  1908   0011E6                     l5802:
  1909                           
  1910                           ; BSR set to: 0
  1911                           ;main.c: 158:                         diametro = 255;
  1912   0011E6  0E00               	movlw	0
  1913   0011E8  6FEA               	movwf	(_diametro+1)& (0+255),b
  1914   0011EA  69E9               	setf	_diametro& (0+255),b
  1915                           
  1916                           ;main.c: 159:                         tension = 522;
  1917   0011EC  0E0A               	movlw	10
  1918   0011EE  6FFA               	movwf	_tension& (0+255),b
  1919   0011F0  0E02               	movlw	2
  1920   0011F2  6FFB               	movwf	(_tension+1)& (0+255),b
  1921   0011F4  0E00               	movlw	0
  1922   0011F6  6FFC               	movwf	(_tension+2)& (0+255),b
  1923   0011F8  0E00               	movlw	0
  1924   0011FA  6FFD               	movwf	(_tension+3)& (0+255),b
  1925   0011FC                     l5804:
  1926                           
  1927                           ; BSR set to: 0
  1928                           ;main.c: 160:                         gramo_abajo = (1053 * (tension - 20)) + 8000000;
  1929   0011FC  C0FA  F001         	movff	_tension,___lmul@multiplier
  1930   001200  C0FB  F002         	movff	_tension+1,___lmul@multiplier+1
  1931   001204  C0FC  F003         	movff	_tension+2,___lmul@multiplier+2
  1932   001208  C0FD  F004         	movff	_tension+3,___lmul@multiplier+3
  1933   00120C  0E1D               	movlw	29
  1934   00120E  6E05               	movwf	___lmul@multiplicand^0,c
  1935   001210  0E04               	movlw	4
  1936   001212  6E06               	movwf	(___lmul@multiplicand+1)^0,c
  1937   001214  0E00               	movlw	0
  1938   001216  6E07               	movwf	(___lmul@multiplicand+2)^0,c
  1939   001218  0E00               	movlw	0
  1940   00121A  6E08               	movwf	(___lmul@multiplicand+3)^0,c
  1941   00121C  EC1B  F027         	call	___lmul	;wreg free
  1942   001220  0EBC               	movlw	188
  1943   001222  2401               	addwf	?___lmul^0,w,c
  1944   001224  0101               	movlb	1	; () banked
  1945   001226  6F0C               	movwf	_gramo_abajo& (0+255),b
  1946   001228  0EBF               	movlw	191
  1947   00122A  2002               	addwfc	(?___lmul+1)^0,w,c
  1948   00122C  6F0D               	movwf	(_gramo_abajo+1)& (0+255),b
  1949   00122E  0E79               	movlw	121
  1950   001230  2003               	addwfc	(?___lmul+2)^0,w,c
  1951   001232  6F0E               	movwf	(_gramo_abajo+2)& (0+255),b
  1952   001234  0E00               	movlw	0
  1953   001236  2004               	addwfc	(?___lmul+3)^0,w,c
  1954   001238  6F0F               	movwf	(_gramo_abajo+3)& (0+255),b
  1955   00123A                     
  1956                           ; BSR set to: 1
  1957                           ;main.c: 161:                         gramo_arriba = (1053 * (tension + 20)) + 8000000;
  1958   00123A  C0FA  F001         	movff	_tension,___lmul@multiplier
  1959   00123E  C0FB  F002         	movff	_tension+1,___lmul@multiplier+1
  1960   001242  C0FC  F003         	movff	_tension+2,___lmul@multiplier+2
  1961   001246  C0FD  F004         	movff	_tension+3,___lmul@multiplier+3
  1962   00124A  0E1D               	movlw	29
  1963   00124C  6E05               	movwf	___lmul@multiplicand^0,c
  1964   00124E  0E04               	movlw	4
  1965   001250  6E06               	movwf	(___lmul@multiplicand+1)^0,c
  1966   001252  0E00               	movlw	0
  1967   001254  6E07               	movwf	(___lmul@multiplicand+2)^0,c
  1968   001256  0E00               	movlw	0
  1969   001258  6E08               	movwf	(___lmul@multiplicand+3)^0,c
  1970   00125A  EC1B  F027         	call	___lmul	;wreg free
  1971   00125E  0E44               	movlw	68
  1972   001260  2401               	addwf	?___lmul^0,w,c
  1973   001262  0101               	movlb	1	; () banked
  1974   001264  6F08               	movwf	_gramo_arriba& (0+255),b
  1975   001266  0E64               	movlw	100
  1976   001268  2002               	addwfc	(?___lmul+1)^0,w,c
  1977   00126A  6F09               	movwf	(_gramo_arriba+1)& (0+255),b
  1978   00126C  0E7A               	movlw	122
  1979   00126E  2003               	addwfc	(?___lmul+2)^0,w,c
  1980   001270  6F0A               	movwf	(_gramo_arriba+2)& (0+255),b
  1981   001272  0E00               	movlw	0
  1982   001274  2004               	addwfc	(?___lmul+3)^0,w,c
  1983   001276  6F0B               	movwf	(_gramo_arriba+3)& (0+255),b
  1984                           
  1985                           ;main.c: 162:                         AWG = 0;
  1986   001278  0E00               	movlw	0
  1987   00127A  0100               	movlb	0	; () banked
  1988   00127C  6FF0               	movwf	(_AWG+1)& (0+255),b
  1989   00127E  0E00               	movlw	0
  1990   001280  6FEF               	movwf	_AWG& (0+255),b
  1991   001282                     
  1992                           ; BSR set to: 0
  1993                           ;main.c: 163:                         mensaje_capas();
  1994   001282  ECD8  F025         	call	_mensaje_capas	;wreg free
  1995   001286                     
  1996                           ;main.c: 164:                         capas = 0;
  1997   001286  0E00               	movlw	0
  1998   001288  0100               	movlb	0	; () banked
  1999   00128A  6FEE               	movwf	(_capas+1)& (0+255),b
  2000   00128C  0E00               	movlw	0
  2001   00128E  6FED               	movwf	_capas& (0+255),b
  2002   001290                     
  2003                           ; BSR set to: 0
  2004                           ;main.c: 165:                         estado = 3;
  2005   001290  0E00               	movlw	0
  2006   001292  6FF4               	movwf	(_estado+1)& (0+255),b
  2007   001294  0E03               	movlw	3
  2008   001296  6FF3               	movwf	_estado& (0+255),b
  2009                           
  2010                           ;main.c: 166:                         break;
  2011   001298  EF77  F00D         	goto	l6020
  2012   00129C                     l5814:
  2013                           
  2014                           ; BSR set to: 0
  2015                           ;main.c: 168:                         diametro = 127;
  2016   00129C  0E00               	movlw	0
  2017   00129E  6FEA               	movwf	(_diametro+1)& (0+255),b
  2018   0012A0  0E7F               	movlw	127
  2019   0012A2  6FE9               	movwf	_diametro& (0+255),b
  2020                           
  2021                           ;main.c: 169:                         tension = 130;
  2022   0012A4  0E82               	movlw	130
  2023   0012A6  6FFA               	movwf	_tension& (0+255),b
  2024   0012A8  0E00               	movlw	0
  2025   0012AA  6FFB               	movwf	(_tension+1)& (0+255),b
  2026   0012AC  0E00               	movlw	0
  2027   0012AE  6FFC               	movwf	(_tension+2)& (0+255),b
  2028   0012B0  0E00               	movlw	0
  2029   0012B2  6FFD               	movwf	(_tension+3)& (0+255),b
  2030   0012B4  EFFE  F008         	goto	l5804
  2031   0012B8                     l5828:
  2032   0012B8  C0EF  F0D3         	movff	_AWG,??_main
  2033   0012BC  C0F0  F0D4         	movff	_AWG+1,??_main+1
  2034                           
  2035                           ; Switch on 2 bytes has been partitioned into a top level switch of size 1, and 1 sub-sw
      +                          itches
  2036                           ; Switch size 1, requested type "simple"
  2037                           ; Number of cases is 1, Range of values is 0 to 0
  2038                           ; switch strategies available:
  2039                           ; Name         Instructions Cycles
  2040                           ; simple_byte            4     3 (average)
  2041                           ;	Chosen strategy is simple_byte
  2042   0012C0  0100               	movlb	0	; () banked
  2043   0012C2  51D4               	movf	(??_main+1)& (0+255),w,b
  2044   0012C4  0A00               	xorlw	0	; case 0
  2045   0012C6  B4D8               	btfsc	status,2,c
  2046   0012C8  EF68  F009         	goto	l6258
  2047   0012CC  EF77  F00D         	goto	l676
  2048   0012D0                     l6258:
  2049                           
  2050                           ; BSR set to: 0
  2051                           ; Switch size 1, requested type "simple"
  2052                           ; Number of cases is 2, Range of values is 30 to 36
  2053                           ; switch strategies available:
  2054                           ; Name         Instructions Cycles
  2055                           ; simple_byte            7     4 (average)
  2056                           ;	Chosen strategy is simple_byte
  2057   0012D0  51D3               	movf	??_main& (0+255),w,b
  2058   0012D2  0A1E               	xorlw	30	; case 30
  2059   0012D4  B4D8               	btfsc	status,2,c
  2060   0012D6  EFF3  F008         	goto	l5802
  2061   0012DA  0A3A               	xorlw	58	; case 36
  2062   0012DC  B4D8               	btfsc	status,2,c
  2063   0012DE  EF4E  F009         	goto	l5814
  2064   0012E2  EF77  F00D         	goto	l676
  2065   0012E6                     l5830:
  2066                           
  2067                           ; BSR set to: 0
  2068                           ;main.c: 182:                 capas = recibir_numero();
  2069   0012E6  EC94  F029         	call	_recibir_numero	;wreg free
  2070   0012EA  C001  F0ED         	movff	?_recibir_numero,_capas
  2071   0012EE  C002  F0EE         	movff	?_recibir_numero+1,_capas+1
  2072   0012F2                     
  2073                           ;main.c: 183:                 if ((capas >= 1) && (capas <= 10)) {
  2074   0012F2  0100               	movlb	0	; () banked
  2075   0012F4  BFEE               	btfsc	(_capas+1)& (0+255),7,b
  2076   0012F6  EF85  F009         	goto	u5461
  2077   0012FA  51EE               	movf	(_capas+1)& (0+255),w,b
  2078   0012FC  E108               	bnz	u5460
  2079   0012FE  05ED               	decf	_capas& (0+255),w,b
  2080   001300  A0D8               	btfss	status,0,c
  2081   001302  EF85  F009         	goto	u5461
  2082   001306  EF87  F009         	goto	u5460
  2083   00130A                     u5461:
  2084   00130A  EF77  F00D         	goto	l676
  2085   00130E                     u5460:
  2086   00130E                     
  2087                           ; BSR set to: 0
  2088   00130E  BFEE               	btfsc	(_capas+1)& (0+255),7,b
  2089   001310  EF95  F009         	goto	u5470
  2090   001314  51EE               	movf	(_capas+1)& (0+255),w,b
  2091   001316  E107               	bnz	u5471
  2092   001318  0E0B               	movlw	11
  2093   00131A  5DED               	subwf	_capas& (0+255),w,b
  2094   00131C  B0D8               	btfsc	status,0,c
  2095   00131E  EF93  F009         	goto	u5471
  2096   001322  EF95  F009         	goto	u5470
  2097   001326                     u5471:
  2098   001326  EF77  F00D         	goto	l676
  2099   00132A                     u5470:
  2100   00132A                     
  2101                           ; BSR set to: 0
  2102                           ;main.c: 185:                     mensaje_vels();
  2103   00132A  EC36  F025         	call	_mensaje_vels	;wreg free
  2104   00132E                     
  2105                           ;main.c: 186:                     T2PR = T_tmr2(5);
  2106   00132E  0E00               	movlw	0
  2107   001330  6E41               	movwf	T_tmr2@mm_s^0,c
  2108   001332  0E00               	movlw	0
  2109   001334  6E42               	movwf	(T_tmr2@mm_s+1)^0,c
  2110   001336  0EA0               	movlw	160
  2111   001338  6E43               	movwf	(T_tmr2@mm_s+2)^0,c
  2112   00133A  0E40               	movlw	64
  2113   00133C  6E44               	movwf	(T_tmr2@mm_s+3)^0,c
  2114   00133E  EC1B  F01E         	call	_T_tmr2	;wreg free
  2115   001342  5041               	movf	?_T_tmr2^0,w,c
  2116   001344  6EAB               	movwf	171,c	;volatile
  2117   001346  84BD               	bsf	189,2,c	;volatile
  2118   001348                     
  2119                           ;main.c: 188:                     sel_vel = 0;
  2120   001348  0E00               	movlw	0
  2121   00134A  0100               	movlb	0	; () banked
  2122   00134C  6FEC               	movwf	(_sel_vel+1)& (0+255),b
  2123   00134E  0E00               	movlw	0
  2124   001350  6FEB               	movwf	_sel_vel& (0+255),b
  2125   001352                     
  2126                           ; BSR set to: 0
  2127                           ;main.c: 189:                     estado = 4;
  2128   001352  0E00               	movlw	0
  2129   001354  6FF4               	movwf	(_estado+1)& (0+255),b
  2130   001356  0E04               	movlw	4
  2131   001358  6FF3               	movwf	_estado& (0+255),b
  2132   00135A  EF77  F00D         	goto	l6020
  2133   00135E                     l5846:
  2134                           
  2135                           ; BSR set to: 0
  2136                           ;main.c: 193:                 sel_vel = recibir_numero();
  2137   00135E  EC94  F029         	call	_recibir_numero	;wreg free
  2138   001362  C001  F0EB         	movff	?_recibir_numero,_sel_vel
  2139   001366  C002  F0EC         	movff	?_recibir_numero+1,_sel_vel+1
  2140                           
  2141                           ;main.c: 194:                 switch (sel_vel) {
  2142   00136A  EFED  F009         	goto	l5856
  2143   00136E                     l5848:
  2144                           
  2145                           ; BSR set to: 0
  2146                           ;main.c: 197:                         RPM = 100;
  2147   00136E  0E00               	movlw	0
  2148   001370  0101               	movlb	1	; () banked
  2149   001372  6FF2               	movwf	_RPM& (0+255),b
  2150   001374  0E00               	movlw	0
  2151   001376  6FF3               	movwf	(_RPM+1)& (0+255),b
  2152   001378  0EC8               	movlw	200
  2153   00137A  6FF4               	movwf	(_RPM+2)& (0+255),b
  2154   00137C  0E42               	movlw	66
  2155   00137E  6FF5               	movwf	(_RPM+3)& (0+255),b
  2156                           
  2157                           ;main.c: 198:                         TMR2_flag = 0;
  2158   001380  0E00               	movlw	0
  2159   001382  0100               	movlb	0	; () banked
  2160   001384  6FF8               	movwf	_TMR2_flag& (0+255),b
  2161                           
  2162                           ;main.c: 199:                         estado = 5;
  2163   001386  0E00               	movlw	0
  2164   001388  6FF4               	movwf	(_estado+1)& (0+255),b
  2165   00138A  0E05               	movlw	5
  2166   00138C  6FF3               	movwf	_estado& (0+255),b
  2167                           
  2168                           ;main.c: 200:                         break;
  2169   00138E  EF77  F00D         	goto	l6020
  2170   001392                     l5850:
  2171                           
  2172                           ; BSR set to: 0
  2173                           ;main.c: 203:                         RPM = w_ideal;
  2174   001392  0E00               	movlw	0
  2175   001394  0101               	movlb	1	; () banked
  2176   001396  6FF2               	movwf	_RPM& (0+255),b
  2177   001398  0E00               	movlw	0
  2178   00139A  6FF3               	movwf	(_RPM+1)& (0+255),b
  2179   00139C  0E96               	movlw	150
  2180   00139E  6FF4               	movwf	(_RPM+2)& (0+255),b
  2181   0013A0  0E43               	movlw	67
  2182   0013A2  6FF5               	movwf	(_RPM+3)& (0+255),b
  2183                           
  2184                           ;main.c: 204:                         TMR2_flag = 0;
  2185   0013A4  0E00               	movlw	0
  2186   0013A6  0100               	movlb	0	; () banked
  2187   0013A8  6FF8               	movwf	_TMR2_flag& (0+255),b
  2188                           
  2189                           ;main.c: 205:                         estado = 5;
  2190   0013AA  0E00               	movlw	0
  2191   0013AC  6FF4               	movwf	(_estado+1)& (0+255),b
  2192   0013AE  0E05               	movlw	5
  2193   0013B0  6FF3               	movwf	_estado& (0+255),b
  2194                           
  2195                           ;main.c: 206:                         break;
  2196   0013B2  EF77  F00D         	goto	l6020
  2197   0013B6                     l5852:
  2198                           
  2199                           ; BSR set to: 0
  2200                           ;main.c: 209:                         RPM = 500;
  2201   0013B6  0E00               	movlw	0
  2202   0013B8  0101               	movlb	1	; () banked
  2203   0013BA  6FF2               	movwf	_RPM& (0+255),b
  2204   0013BC  0E00               	movlw	0
  2205   0013BE  6FF3               	movwf	(_RPM+1)& (0+255),b
  2206   0013C0  0EFA               	movlw	250
  2207   0013C2  6FF4               	movwf	(_RPM+2)& (0+255),b
  2208   0013C4  0E43               	movlw	67
  2209   0013C6  6FF5               	movwf	(_RPM+3)& (0+255),b
  2210                           
  2211                           ;main.c: 210:                         TMR2_flag = 0;
  2212   0013C8  0E00               	movlw	0
  2213   0013CA  0100               	movlb	0	; () banked
  2214   0013CC  6FF8               	movwf	_TMR2_flag& (0+255),b
  2215                           
  2216                           ;main.c: 211:                         estado = 5;
  2217   0013CE  0E00               	movlw	0
  2218   0013D0  6FF4               	movwf	(_estado+1)& (0+255),b
  2219   0013D2  0E05               	movlw	5
  2220   0013D4  6FF3               	movwf	_estado& (0+255),b
  2221                           
  2222                           ;main.c: 212:                         break;
  2223   0013D6  EF77  F00D         	goto	l6020
  2224   0013DA                     l5856:
  2225   0013DA  C0EB  F0D3         	movff	_sel_vel,??_main
  2226   0013DE  C0EC  F0D4         	movff	_sel_vel+1,??_main+1
  2227                           
  2228                           ; Switch on 2 bytes has been partitioned into a top level switch of size 1, and 1 sub-sw
      +                          itches
  2229                           ; Switch size 1, requested type "simple"
  2230                           ; Number of cases is 1, Range of values is 0 to 0
  2231                           ; switch strategies available:
  2232                           ; Name         Instructions Cycles
  2233                           ; simple_byte            4     3 (average)
  2234                           ;	Chosen strategy is simple_byte
  2235   0013E2  0100               	movlb	0	; () banked
  2236   0013E4  51D4               	movf	(??_main+1)& (0+255),w,b
  2237   0013E6  0A00               	xorlw	0	; case 0
  2238   0013E8  B4D8               	btfsc	status,2,c
  2239   0013EA  EFF9  F009         	goto	l6260
  2240   0013EE  EF77  F00D         	goto	l676
  2241   0013F2                     l6260:
  2242                           
  2243                           ; BSR set to: 0
  2244                           ; Switch size 1, requested type "simple"
  2245                           ; Number of cases is 3, Range of values is 1 to 3
  2246                           ; switch strategies available:
  2247                           ; Name         Instructions Cycles
  2248                           ; simple_byte           10     6 (average)
  2249                           ;	Chosen strategy is simple_byte
  2250   0013F2  51D3               	movf	??_main& (0+255),w,b
  2251   0013F4  0A01               	xorlw	1	; case 1
  2252   0013F6  B4D8               	btfsc	status,2,c
  2253   0013F8  EFB7  F009         	goto	l5848
  2254   0013FC  0A03               	xorlw	3	; case 2
  2255   0013FE  B4D8               	btfsc	status,2,c
  2256   001400  EFC9  F009         	goto	l5850
  2257   001404  0A01               	xorlw	1	; case 3
  2258   001406  B4D8               	btfsc	status,2,c
  2259   001408  EFDB  F009         	goto	l5852
  2260   00140C  EF77  F00D         	goto	l676
  2261   001410                     l701:
  2262                           
  2263                           ; BSR set to: 0
  2264                           ;main.c: 219:                 if (PORTDbits.RD4 == 0) {
  2265   001410  B8CD               	btfsc	205,4,c	;volatile
  2266   001412  EF0D  F00A         	goto	u5481
  2267   001416  EF0F  F00A         	goto	u5480
  2268   00141A                     u5481:
  2269   00141A  EF29  F00A         	goto	l5864
  2270   00141E                     u5480:
  2271   00141E                     
  2272                           ; BSR set to: 0
  2273                           ;main.c: 220:                     if (TMR2_flag) {
  2274   00141E  51F8               	movf	_TMR2_flag& (0+255),w,b
  2275   001420  B4D8               	btfsc	status,2,c
  2276   001422  EF15  F00A         	goto	u5491
  2277   001426  EF17  F00A         	goto	u5490
  2278   00142A                     u5491:
  2279   00142A  EF77  F00D         	goto	l676
  2280   00142E                     u5490:
  2281   00142E                     
  2282                           ; BSR set to: 0
  2283   00142E  B0BD               	btfsc	189,0,c	;volatile
  2284   001430  EF1C  F00A         	goto	u5501
  2285   001434  EF1F  F00A         	goto	u5500
  2286   001438                     u5501:
  2287   001438  0E01               	movlw	1
  2288   00143A  EF20  F00A         	goto	u5506
  2289   00143E                     u5500:
  2290   00143E  0E00               	movlw	0
  2291   001440                     u5506:
  2292   001440  0AFF               	xorlw	255
  2293   001442  6FD3               	movwf	??_main& (0+255),b
  2294   001444  50BD               	movf	189,w,c	;volatile
  2295   001446  19D3               	xorwf	??_main& (0+255),w,b
  2296   001448  0BFE               	andlw	-2
  2297   00144A  19D3               	xorwf	??_main& (0+255),w,b
  2298   00144C  6EBD               	movwf	189,c	;volatile
  2299   00144E  EF8F  F008         	goto	l5774
  2300   001452                     l5864:
  2301                           
  2302                           ; BSR set to: 0
  2303                           ;main.c: 225:                     n_vueltas = L / diametro;
  2304   001452  C0F1  F001         	movff	_L,___awdiv@dividend
  2305   001456  C0F2  F002         	movff	_L+1,___awdiv@dividend+1
  2306   00145A  C0E9  F003         	movff	_diametro,___awdiv@divisor
  2307   00145E  C0EA  F004         	movff	_diametro+1,___awdiv@divisor+1
  2308   001462  EC30  F022         	call	___awdiv	;wreg free
  2309   001466  C001  F0E5         	movff	?___awdiv,_n_vueltas
  2310   00146A  C002  F0E6         	movff	?___awdiv+1,_n_vueltas+1
  2311   00146E                     
  2312                           ;main.c: 226:                     t_capa1 = ((float) n_vueltas / RPM) * 60;
  2313   00146E  C1F2  F013         	movff	_RPM,___fldiv@a
  2314   001472  C1F3  F014         	movff	_RPM+1,___fldiv@a+1
  2315   001476  C1F4  F015         	movff	_RPM+2,___fldiv@a+2
  2316   00147A  C1F5  F016         	movff	_RPM+3,___fldiv@a+3
  2317   00147E  C0E5  F001         	movff	_n_vueltas,___xxtofl@val
  2318   001482  C0E6  F002         	movff	_n_vueltas+1,___xxtofl@val+1
  2319   001486  0E00               	movlw	0
  2320   001488  BE02               	btfsc	(___xxtofl@val+1)^0,7,c
  2321   00148A  0EFF               	movlw	-1
  2322   00148C  6E03               	movwf	(___xxtofl@val+2)^0,c
  2323   00148E  6E04               	movwf	(___xxtofl@val+3)^0,c
  2324   001490  0E01               	movlw	1
  2325   001492  ECB6  F01B         	call	___xxtofl
  2326   001496  C001  F00F         	movff	?___xxtofl,___fldiv@b
  2327   00149A  C002  F010         	movff	?___xxtofl+1,___fldiv@b+1
  2328   00149E  C003  F011         	movff	?___xxtofl+2,___fldiv@b+2
  2329   0014A2  C004  F012         	movff	?___xxtofl+3,___fldiv@b+3
  2330   0014A6  EC34  F017         	call	___fldiv	;wreg free
  2331   0014AA  C00F  F028         	movff	?___fldiv,___flmul@b
  2332   0014AE  C010  F029         	movff	?___fldiv+1,___flmul@b+1
  2333   0014B2  C011  F02A         	movff	?___fldiv+2,___flmul@b+2
  2334   0014B6  C012  F02B         	movff	?___fldiv+3,___flmul@b+3
  2335   0014BA  0E00               	movlw	0
  2336   0014BC  6E2C               	movwf	___flmul@a^0,c
  2337   0014BE  0E00               	movlw	0
  2338   0014C0  6E2D               	movwf	(___flmul@a+1)^0,c
  2339   0014C2  0E70               	movlw	112
  2340   0014C4  6E2E               	movwf	(___flmul@a+2)^0,c
  2341   0014C6  0E42               	movlw	66
  2342   0014C8  6E2F               	movwf	(___flmul@a+3)^0,c
  2343   0014CA  EC0D  F015         	call	___flmul	;wreg free
  2344   0014CE  C028  F1F6         	movff	?___flmul,_t_capa1
  2345   0014D2  C029  F1F7         	movff	?___flmul+1,_t_capa1+1
  2346   0014D6  C02A  F1F8         	movff	?___flmul+2,_t_capa1+2
  2347   0014DA  C02B  F1F9         	movff	?___flmul+3,_t_capa1+3
  2348   0014DE                     
  2349                           ;main.c: 227:                     t_embo = t_capa1 * capas;
  2350   0014DE  C0ED  F001         	movff	_capas,___xxtofl@val
  2351   0014E2  C0EE  F002         	movff	_capas+1,___xxtofl@val+1
  2352   0014E6  0E00               	movlw	0
  2353   0014E8  BE02               	btfsc	(___xxtofl@val+1)^0,7,c
  2354   0014EA  0EFF               	movlw	-1
  2355   0014EC  6E03               	movwf	(___xxtofl@val+2)^0,c
  2356   0014EE  6E04               	movwf	(___xxtofl@val+3)^0,c
  2357   0014F0  0E01               	movlw	1
  2358   0014F2  ECB6  F01B         	call	___xxtofl
  2359   0014F6  C001  F028         	movff	?___xxtofl,___flmul@b
  2360   0014FA  C002  F029         	movff	?___xxtofl+1,___flmul@b+1
  2361   0014FE  C003  F02A         	movff	?___xxtofl+2,___flmul@b+2
  2362   001502  C004  F02B         	movff	?___xxtofl+3,___flmul@b+3
  2363   001506  C1F6  F02C         	movff	_t_capa1,___flmul@a
  2364   00150A  C1F7  F02D         	movff	_t_capa1+1,___flmul@a+1
  2365   00150E  C1F8  F02E         	movff	_t_capa1+2,___flmul@a+2
  2366   001512  C1F9  F02F         	movff	_t_capa1+3,___flmul@a+3
  2367   001516  EC0D  F015         	call	___flmul	;wreg free
  2368   00151A  C028  F12C         	movff	?___flmul,_t_embo
  2369   00151E  C029  F12D         	movff	?___flmul+1,_t_embo+1
  2370   001522  C02A  F12E         	movff	?___flmul+2,_t_embo+2
  2371   001526  C02B  F12F         	movff	?___flmul+3,_t_embo+3
  2372   00152A                     
  2373                           ;main.c: 228:                     send_t(t_capa1, t_embo);
  2374   00152A  C1F6  F0AF         	movff	_t_capa1,send_t@t_capa
  2375   00152E  C1F7  F0B0         	movff	_t_capa1+1,send_t@t_capa+1
  2376   001532  C1F8  F0B1         	movff	_t_capa1+2,send_t@t_capa+2
  2377   001536  C1F9  F0B2         	movff	_t_capa1+3,send_t@t_capa+3
  2378   00153A  C12C  F0B3         	movff	_t_embo,send_t@t_total
  2379   00153E  C12D  F0B4         	movff	_t_embo+1,send_t@t_total+1
  2380   001542  C12E  F0B5         	movff	_t_embo+2,send_t@t_total+2
  2381   001546  C12F  F0B6         	movff	_t_embo+3,send_t@t_total+3
  2382   00154A  ECD7  F020         	call	_send_t	;wreg free
  2383   00154E                     
  2384                           ;main.c: 229:                     mensaje_boton();
  2385   00154E  EC44  F026         	call	_mensaje_boton	;wreg free
  2386   001552                     
  2387                           ;main.c: 230:                     estado = 6;
  2388   001552  0E00               	movlw	0
  2389   001554  0100               	movlb	0	; () banked
  2390   001556  6FF4               	movwf	(_estado+1)& (0+255),b
  2391   001558  0E06               	movlw	6
  2392   00155A  6FF3               	movwf	_estado& (0+255),b
  2393   00155C  EF77  F00D         	goto	l6020
  2394   001560                     l707:
  2395                           
  2396                           ; BSR set to: 0
  2397                           ;main.c: 234:                 if (PORTDbits.RD6 == 1) {
  2398   001560  ACCD               	btfss	205,6,c	;volatile
  2399   001562  EFB5  F00A         	goto	u5511
  2400   001566  EFB7  F00A         	goto	u5510
  2401   00156A                     u5511:
  2402   00156A  EF77  F00D         	goto	l676
  2403   00156E                     u5510:
  2404   00156E                     
  2405                           ; BSR set to: 0
  2406                           ;main.c: 235:                     T4PR = T_tmr4(RPM);
  2407   00156E  C1F2  F001         	movff	_RPM,___fltol@f1
  2408   001572  C1F3  F002         	movff	_RPM+1,___fltol@f1+1
  2409   001576  C1F4  F003         	movff	_RPM+2,___fltol@f1+2
  2410   00157A  C1F5  F004         	movff	_RPM+3,___fltol@f1+3
  2411   00157E  EC53  F01F         	call	___fltol	;wreg free
  2412   001582  C001  F0D5         	movff	?___fltol,_main$2729
  2413   001586  C002  F0D6         	movff	?___fltol+1,_main$2729+1
  2414   00158A                     
  2415                           ;main.c: 235:                     T4PR = T_tmr4(RPM);
  2416   00158A  C0D5  F041         	movff	_main$2729,T_tmr4@rpm
  2417   00158E  C0D6  F042         	movff	_main$2729+1,T_tmr4@rpm+1
  2418   001592  EC5C  F01D         	call	_T_tmr4	;wreg free
  2419   001596  5041               	movf	?_T_tmr4^0,w,c
  2420   001598  6E9F               	movwf	159,c	;volatile
  2421   00159A  96BD               	bcf	189,3,c	;volatile
  2422   00159C                     
  2423                           ;main.c: 237:                     pasos_bobina = n_vueltas * 200;
  2424   00159C  C0E5  F001         	movff	_n_vueltas,___wmul@multiplier
  2425   0015A0  C0E6  F002         	movff	_n_vueltas+1,___wmul@multiplier+1
  2426   0015A4  0E00               	movlw	0
  2427   0015A6  6E04               	movwf	(___wmul@multiplicand+1)^0,c
  2428   0015A8  0EC8               	movlw	200
  2429   0015AA  6E03               	movwf	___wmul@multiplicand^0,c
  2430   0015AC  ECBE  F029         	call	___wmul	;wreg free
  2431   0015B0  C001  F128         	movff	?___wmul,_pasos_bobina
  2432   0015B4  C002  F129         	movff	?___wmul+1,_pasos_bobina+1
  2433   0015B8  0101               	movlb	1	; () banked
  2434   0015BA  0E00               	movlw	0
  2435   0015BC  BF29               	btfsc	(_pasos_bobina+1)& (0+255),7,b
  2436   0015BE  0EFF               	movlw	-1
  2437   0015C0  6F2A               	movwf	(_pasos_bobina+2)& (0+255),b
  2438   0015C2  6F2B               	movwf	(_pasos_bobina+3)& (0+255),b
  2439   0015C4                     
  2440                           ; BSR set to: 1
  2441                           ;main.c: 238:                     pasos_bobina = pasos_bobina * 2;
  2442   0015C4  90D8               	bcf	status,0,c
  2443   0015C6  3528               	rlcf	_pasos_bobina& (0+255),w,b
  2444   0015C8  6F28               	movwf	_pasos_bobina& (0+255),b
  2445   0015CA  3529               	rlcf	(_pasos_bobina+1)& (0+255),w,b
  2446   0015CC  6F29               	movwf	(_pasos_bobina+1)& (0+255),b
  2447   0015CE  352A               	rlcf	(_pasos_bobina+2)& (0+255),w,b
  2448   0015D0  6F2A               	movwf	(_pasos_bobina+2)& (0+255),b
  2449   0015D2  352B               	rlcf	(_pasos_bobina+3)& (0+255),w,b
  2450   0015D4  6F2B               	movwf	(_pasos_bobina+3)& (0+255),b
  2451   0015D6                     
  2452                           ; BSR set to: 1
  2453                           ;main.c: 239:                     vel_lineal = (RPM * (float) diametro) / 60000;
  2454   0015D6  C1F2  F02C         	movff	_RPM,___flmul@a
  2455   0015DA  C1F3  F02D         	movff	_RPM+1,___flmul@a+1
  2456   0015DE  C1F4  F02E         	movff	_RPM+2,___flmul@a+2
  2457   0015E2  C1F5  F02F         	movff	_RPM+3,___flmul@a+3
  2458   0015E6  C0E9  F001         	movff	_diametro,___xxtofl@val
  2459   0015EA  C0EA  F002         	movff	_diametro+1,___xxtofl@val+1
  2460   0015EE  0E00               	movlw	0
  2461   0015F0  BE02               	btfsc	(___xxtofl@val+1)^0,7,c
  2462   0015F2  0EFF               	movlw	-1
  2463   0015F4  6E03               	movwf	(___xxtofl@val+2)^0,c
  2464   0015F6  6E04               	movwf	(___xxtofl@val+3)^0,c
  2465   0015F8  0E01               	movlw	1
  2466   0015FA  ECB6  F01B         	call	___xxtofl
  2467   0015FE  C001  F028         	movff	?___xxtofl,___flmul@b
  2468   001602  C002  F029         	movff	?___xxtofl+1,___flmul@b+1
  2469   001606  C003  F02A         	movff	?___xxtofl+2,___flmul@b+2
  2470   00160A  C004  F02B         	movff	?___xxtofl+3,___flmul@b+3
  2471   00160E  EC0D  F015         	call	___flmul	;wreg free
  2472   001612  C028  F00F         	movff	?___flmul,___fldiv@b
  2473   001616  C029  F010         	movff	?___flmul+1,___fldiv@b+1
  2474   00161A  C02A  F011         	movff	?___flmul+2,___fldiv@b+2
  2475   00161E  C02B  F012         	movff	?___flmul+3,___fldiv@b+3
  2476   001622  0E00               	movlw	0
  2477   001624  6E13               	movwf	___fldiv@a^0,c
  2478   001626  0E60               	movlw	96
  2479   001628  6E14               	movwf	(___fldiv@a+1)^0,c
  2480   00162A  0E6A               	movlw	106
  2481   00162C  6E15               	movwf	(___fldiv@a+2)^0,c
  2482   00162E  0E47               	movlw	71
  2483   001630  6E16               	movwf	(___fldiv@a+3)^0,c
  2484   001632  EC34  F017         	call	___fldiv	;wreg free
  2485   001636  C00F  F1EE         	movff	?___fldiv,_vel_lineal
  2486   00163A  C010  F1EF         	movff	?___fldiv+1,_vel_lineal+1
  2487   00163E  C011  F1F0         	movff	?___fldiv+2,_vel_lineal+2
  2488   001642  C012  F1F1         	movff	?___fldiv+3,_vel_lineal+3
  2489   001646                     
  2490                           ;main.c: 240:                     T2PR = T_tmr2(vel_lineal);
  2491   001646  C1EE  F041         	movff	_vel_lineal,T_tmr2@mm_s
  2492   00164A  C1EF  F042         	movff	_vel_lineal+1,T_tmr2@mm_s+1
  2493   00164E  C1F0  F043         	movff	_vel_lineal+2,T_tmr2@mm_s+2
  2494   001652  C1F1  F044         	movff	_vel_lineal+3,T_tmr2@mm_s+3
  2495   001656  EC1B  F01E         	call	_T_tmr2	;wreg free
  2496   00165A  5041               	movf	?_T_tmr2^0,w,c
  2497   00165C  6EAB               	movwf	171,c	;volatile
  2498   00165E  94BD               	bcf	189,2,c	;volatile
  2499   001660                     
  2500                           ;main.c: 242:                     pasos_lineal = L / 10;
  2501   001660  C0F1  F001         	movff	_L,___awdiv@dividend
  2502   001664  C0F2  F002         	movff	_L+1,___awdiv@dividend+1
  2503   001668  0E00               	movlw	0
  2504   00166A  6E04               	movwf	(___awdiv@divisor+1)^0,c
  2505   00166C  0E0A               	movlw	10
  2506   00166E  6E03               	movwf	___awdiv@divisor^0,c
  2507   001670  EC30  F022         	call	___awdiv	;wreg free
  2508   001674  C001  F0DB         	movff	?___awdiv,_pasos_lineal
  2509   001678  C002  F0DC         	movff	?___awdiv+1,_pasos_lineal+1
  2510   00167C  0100               	movlb	0	; () banked
  2511   00167E  0E00               	movlw	0
  2512   001680  BFDC               	btfsc	(_pasos_lineal+1)& (0+255),7,b
  2513   001682  0EFF               	movlw	-1
  2514   001684  6FDD               	movwf	(_pasos_lineal+2)& (0+255),b
  2515   001686  6FDE               	movwf	(_pasos_lineal+3)& (0+255),b
  2516                           
  2517                           ;main.c: 243:                     pasos_lineal = pasos_lineal * 2;
  2518   001688  90D8               	bcf	status,0,c
  2519   00168A  35DB               	rlcf	_pasos_lineal& (0+255),w,b
  2520   00168C  6FDB               	movwf	_pasos_lineal& (0+255),b
  2521   00168E  35DC               	rlcf	(_pasos_lineal+1)& (0+255),w,b
  2522   001690  6FDC               	movwf	(_pasos_lineal+1)& (0+255),b
  2523   001692  35DD               	rlcf	(_pasos_lineal+2)& (0+255),w,b
  2524   001694  6FDD               	movwf	(_pasos_lineal+2)& (0+255),b
  2525   001696  35DE               	rlcf	(_pasos_lineal+3)& (0+255),w,b
  2526   001698  6FDE               	movwf	(_pasos_lineal+3)& (0+255),b
  2527   00169A                     
  2528                           ; BSR set to: 0
  2529                           ;main.c: 244:                     TMR2_flag = 0;
  2530   00169A  0E00               	movlw	0
  2531   00169C  6FF8               	movwf	_TMR2_flag& (0+255),b
  2532   00169E                     
  2533                           ; BSR set to: 0
  2534                           ;main.c: 245:                     TMR4_flag = 0;
  2535   00169E  0E00               	movlw	0
  2536   0016A0  6FF7               	movwf	_TMR4_flag& (0+255),b
  2537   0016A2                     
  2538                           ; BSR set to: 0
  2539                           ;main.c: 246:                     n_p_lineal = 0;
  2540   0016A2  0E00               	movlw	0
  2541   0016A4  0101               	movlb	1	; () banked
  2542   0016A6  6F24               	movwf	_n_p_lineal& (0+255),b
  2543   0016A8  0E00               	movlw	0
  2544   0016AA  6F25               	movwf	(_n_p_lineal+1)& (0+255),b
  2545   0016AC  0E00               	movlw	0
  2546   0016AE  6F26               	movwf	(_n_p_lineal+2)& (0+255),b
  2547   0016B0  0E00               	movlw	0
  2548   0016B2  6F27               	movwf	(_n_p_lineal+3)& (0+255),b
  2549   0016B4                     
  2550                           ; BSR set to: 1
  2551                           ;main.c: 247:                     n_p_bobina = 0;
  2552   0016B4  0E00               	movlw	0
  2553   0016B6  6F20               	movwf	_n_p_bobina& (0+255),b
  2554   0016B8  0E00               	movlw	0
  2555   0016BA  6F21               	movwf	(_n_p_bobina+1)& (0+255),b
  2556   0016BC  0E00               	movlw	0
  2557   0016BE  6F22               	movwf	(_n_p_bobina+2)& (0+255),b
  2558   0016C0  0E00               	movlw	0
  2559   0016C2  6F23               	movwf	(_n_p_bobina+3)& (0+255),b
  2560   0016C4                     
  2561                           ; BSR set to: 1
  2562                           ;main.c: 248:                     PWM5_LoadDutyValue(pwm);
  2563   0016C4  C0E3  F001         	movff	_pwm,PWM5_LoadDutyValue@dutyValue
  2564   0016C8  C0E4  F002         	movff	_pwm+1,PWM5_LoadDutyValue@dutyValue+1
  2565   0016CC  EC38  F029         	call	_PWM5_LoadDutyValue	;wreg free
  2566   0016D0                     
  2567                           ;main.c: 249:                     PWM6_LoadDutyValue(pwm);
  2568   0016D0  C0E3  F001         	movff	_pwm,PWM6_LoadDutyValue@dutyValue
  2569   0016D4  C0E4  F002         	movff	_pwm+1,PWM6_LoadDutyValue@dutyValue+1
  2570   0016D8  EC1E  F029         	call	_PWM6_LoadDutyValue	;wreg free
  2571   0016DC                     l5906:
  2572                           
  2573                           ;main.c: 250:                     estado = 7;
  2574   0016DC  0E00               	movlw	0
  2575   0016DE  0100               	movlb	0	; () banked
  2576   0016E0  6FF4               	movwf	(_estado+1)& (0+255),b
  2577   0016E2  0E07               	movlw	7
  2578   0016E4  6FF3               	movwf	_estado& (0+255),b
  2579   0016E6  EF77  F00D         	goto	l6020
  2580   0016EA                     l5908:
  2581                           
  2582                           ; BSR set to: 0
  2583                           ;main.c: 254:                 if (TMR4_flag) {
  2584   0016EA  51F7               	movf	_TMR4_flag& (0+255),w,b
  2585   0016EC  B4D8               	btfsc	status,2,c
  2586   0016EE  EF7B  F00B         	goto	u5521
  2587   0016F2  EF7D  F00B         	goto	u5520
  2588   0016F6                     u5521:
  2589   0016F6  EF98  F00B         	goto	l5914
  2590   0016FA                     u5520:
  2591   0016FA                     
  2592                           ; BSR set to: 0
  2593   0016FA  B2BD               	btfsc	189,1,c	;volatile
  2594   0016FC  EF82  F00B         	goto	u5531
  2595   001700  EF85  F00B         	goto	u5530
  2596   001704                     u5531:
  2597   001704  0E01               	movlw	1
  2598   001706  EF86  F00B         	goto	u5536
  2599   00170A                     u5530:
  2600   00170A  0E00               	movlw	0
  2601   00170C                     u5536:
  2602   00170C  0AFF               	xorlw	255
  2603   00170E  6FD3               	movwf	??_main& (0+255),b
  2604   001710  47D3               	rlncf	??_main& (0+255),f,b
  2605   001712  50BD               	movf	189,w,c	;volatile
  2606   001714  19D3               	xorwf	??_main& (0+255),w,b
  2607   001716  0BFD               	andlw	-3
  2608   001718  19D3               	xorwf	??_main& (0+255),w,b
  2609   00171A  6EBD               	movwf	189,c	;volatile
  2610   00171C                     
  2611                           ; BSR set to: 0
  2612                           ;main.c: 256:                     n_p_bobina++;
  2613   00171C  0E01               	movlw	1
  2614   00171E  0101               	movlb	1	; () banked
  2615   001720  2720               	addwf	_n_p_bobina& (0+255),f,b
  2616   001722  0E00               	movlw	0
  2617   001724  2321               	addwfc	(_n_p_bobina+1)& (0+255),f,b
  2618   001726  2322               	addwfc	(_n_p_bobina+2)& (0+255),f,b
  2619   001728  2323               	addwfc	(_n_p_bobina+3)& (0+255),f,b
  2620   00172A                     
  2621                           ; BSR set to: 1
  2622                           ;main.c: 257:                     TMR4_flag = 0;
  2623   00172A  0E00               	movlw	0
  2624   00172C  0100               	movlb	0	; () banked
  2625   00172E  6FF7               	movwf	_TMR4_flag& (0+255),b
  2626   001730                     l5914:
  2627                           
  2628                           ; BSR set to: 0
  2629                           ;main.c: 259:                 if (TMR2_flag) {
  2630   001730  51F8               	movf	_TMR2_flag& (0+255),w,b
  2631   001732  B4D8               	btfsc	status,2,c
  2632   001734  EF9E  F00B         	goto	u5541
  2633   001738  EFA0  F00B         	goto	u5540
  2634   00173C                     u5541:
  2635   00173C  EFBA  F00B         	goto	l5920
  2636   001740                     u5540:
  2637   001740                     
  2638                           ; BSR set to: 0
  2639   001740  B0BD               	btfsc	189,0,c	;volatile
  2640   001742  EFA5  F00B         	goto	u5551
  2641   001746  EFA8  F00B         	goto	u5550
  2642   00174A                     u5551:
  2643   00174A  0E01               	movlw	1
  2644   00174C  EFA9  F00B         	goto	u5556
  2645   001750                     u5550:
  2646   001750  0E00               	movlw	0
  2647   001752                     u5556:
  2648   001752  0AFF               	xorlw	255
  2649   001754  6FD3               	movwf	??_main& (0+255),b
  2650   001756  50BD               	movf	189,w,c	;volatile
  2651   001758  19D3               	xorwf	??_main& (0+255),w,b
  2652   00175A  0BFE               	andlw	-2
  2653   00175C  19D3               	xorwf	??_main& (0+255),w,b
  2654   00175E  6EBD               	movwf	189,c	;volatile
  2655   001760                     
  2656                           ; BSR set to: 0
  2657                           ;main.c: 261:                     n_p_lineal++;
  2658   001760  0E01               	movlw	1
  2659   001762  0101               	movlb	1	; () banked
  2660   001764  2724               	addwf	_n_p_lineal& (0+255),f,b
  2661   001766  0E00               	movlw	0
  2662   001768  2325               	addwfc	(_n_p_lineal+1)& (0+255),f,b
  2663   00176A  2326               	addwfc	(_n_p_lineal+2)& (0+255),f,b
  2664   00176C  2327               	addwfc	(_n_p_lineal+3)& (0+255),f,b
  2665   00176E                     
  2666                           ; BSR set to: 1
  2667                           ;main.c: 262:                     TMR2_flag = 0;
  2668   00176E  0E00               	movlw	0
  2669   001770  0100               	movlb	0	; () banked
  2670   001772  6FF8               	movwf	_TMR2_flag& (0+255),b
  2671   001774                     l5920:
  2672                           
  2673                           ; BSR set to: 0
  2674                           ;main.c: 265:                 PWM5_LoadDutyValue(pwm);
  2675   001774  C0E3  F001         	movff	_pwm,PWM5_LoadDutyValue@dutyValue
  2676   001778  C0E4  F002         	movff	_pwm+1,PWM5_LoadDutyValue@dutyValue+1
  2677   00177C  EC38  F029         	call	_PWM5_LoadDutyValue	;wreg free
  2678   001780                     
  2679                           ;main.c: 266:                 PWM6_LoadDutyValue(pwm);
  2680   001780  C0E3  F001         	movff	_pwm,PWM6_LoadDutyValue@dutyValue
  2681   001784  C0E4  F002         	movff	_pwm+1,PWM6_LoadDutyValue@dutyValue+1
  2682   001788  EC1E  F029         	call	_PWM6_LoadDutyValue	;wreg free
  2683   00178C                     
  2684                           ;main.c: 267:                 promedio = get_average(10);
  2685   00178C  0E00               	movlw	0
  2686   00178E  6E0F               	movwf	(get_average@times+1)^0,c
  2687   001790  0E0A               	movlw	10
  2688   001792  6E0E               	movwf	get_average@times^0,c
  2689   001794  EC35  F024         	call	_get_average	;wreg free
  2690   001798  C00E  F0D7         	movff	?_get_average,_promedio
  2691   00179C  C00F  F0D8         	movff	?_get_average+1,_promedio+1
  2692   0017A0  C010  F0D9         	movff	?_get_average+2,_promedio+2
  2693   0017A4  C011  F0DA         	movff	?_get_average+3,_promedio+3
  2694   0017A8                     
  2695                           ;main.c: 269:                 if ((promedio < gramo_abajo) && (clockwise == 1))
  2696   0017A8  0101               	movlb	1	; () banked
  2697   0017AA  510C               	movf	_gramo_abajo& (0+255),w,b
  2698   0017AC  0100               	movlb	0	; () banked
  2699   0017AE  5DD7               	subwf	_promedio& (0+255),w,b
  2700   0017B0  0101               	movlb	1	; () banked
  2701   0017B2  510D               	movf	(_gramo_abajo+1)& (0+255),w,b
  2702   0017B4  0100               	movlb	0	; () banked
  2703   0017B6  59D8               	subwfb	(_promedio+1)& (0+255),w,b
  2704   0017B8  0101               	movlb	1	; () banked
  2705   0017BA  510E               	movf	(_gramo_abajo+2)& (0+255),w,b
  2706   0017BC  0100               	movlb	0	; () banked
  2707   0017BE  59D9               	subwfb	(_promedio+2)& (0+255),w,b
  2708   0017C0  51DA               	movf	(_promedio+3)& (0+255),w,b
  2709   0017C2  0A80               	xorlw	128
  2710   0017C4  6FD3               	movwf	??_main& (0+255),b
  2711   0017C6  0101               	movlb	1	; () banked
  2712   0017C8  510F               	movf	(_gramo_abajo+3)& (0+255),w,b
  2713   0017CA  0A80               	xorlw	128
  2714   0017CC  0100               	movlb	0	; () banked
  2715   0017CE  59D3               	subwfb	??_main& (0+255),w,b
  2716   0017D0  B0D8               	btfsc	status,0,c
  2717   0017D2  EFED  F00B         	goto	u5561
  2718   0017D6  EFEF  F00B         	goto	u5560
  2719   0017DA                     u5561:
  2720   0017DA  EFFC  F00B         	goto	l5934
  2721   0017DE                     u5560:
  2722   0017DE                     
  2723                           ; BSR set to: 0
  2724   0017DE  05F6               	decf	_clockwise& (0+255),w,b
  2725   0017E0  A4D8               	btfss	status,2,c
  2726   0017E2  EFF5  F00B         	goto	u5571
  2727   0017E6  EFF7  F00B         	goto	u5570
  2728   0017EA                     u5571:
  2729   0017EA  EFFC  F00B         	goto	l5934
  2730   0017EE                     u5570:
  2731   0017EE                     
  2732                           ; BSR set to: 0
  2733                           ;main.c: 270:                 {;main.c: 271:                     pwm --;
  2734   0017EE  07E3               	decf	_pwm& (0+255),f,b
  2735   0017F0  A0D8               	btfss	status,0,c
  2736   0017F2  07E4               	decf	(_pwm+1)& (0+255),f,b
  2737   0017F4  EF31  F00C         	goto	l5944
  2738   0017F8                     l5934:
  2739                           
  2740                           ; BSR set to: 0
  2741   0017F8  51D7               	movf	_promedio& (0+255),w,b
  2742   0017FA  0101               	movlb	1	; () banked
  2743   0017FC  5D08               	subwf	_gramo_arriba& (0+255),w,b
  2744   0017FE  0100               	movlb	0	; () banked
  2745   001800  51D8               	movf	(_promedio+1)& (0+255),w,b
  2746   001802  0101               	movlb	1	; () banked
  2747   001804  5909               	subwfb	(_gramo_arriba+1)& (0+255),w,b
  2748   001806  0100               	movlb	0	; () banked
  2749   001808  51D9               	movf	(_promedio+2)& (0+255),w,b
  2750   00180A  0101               	movlb	1	; () banked
  2751   00180C  590A               	subwfb	(_gramo_arriba+2)& (0+255),w,b
  2752   00180E  510B               	movf	(_gramo_arriba+3)& (0+255),w,b
  2753   001810  0A80               	xorlw	128
  2754   001812  0100               	movlb	0	; () banked
  2755   001814  6FD3               	movwf	??_main& (0+255),b
  2756   001816  51DA               	movf	(_promedio+3)& (0+255),w,b
  2757   001818  0A80               	xorlw	128
  2758   00181A  59D3               	subwfb	??_main& (0+255),w,b
  2759   00181C  B0D8               	btfsc	status,0,c
  2760   00181E  EF13  F00C         	goto	u5581
  2761   001822  EF15  F00C         	goto	u5580
  2762   001826                     u5581:
  2763   001826  EF31  F00C         	goto	l5944
  2764   00182A                     u5580:
  2765   00182A                     
  2766                           ; BSR set to: 0
  2767   00182A  05F6               	decf	_clockwise& (0+255),w,b
  2768   00182C  A4D8               	btfss	status,2,c
  2769   00182E  EF1B  F00C         	goto	u5591
  2770   001832  EF1D  F00C         	goto	u5590
  2771   001836                     u5591:
  2772   001836  EF31  F00C         	goto	l5944
  2773   00183A                     u5590:
  2774   00183A                     
  2775                           ; BSR set to: 0
  2776                           ;main.c: 277:                 {;main.c: 278:                     pwm++;
  2777   00183A  4BE3               	infsnz	_pwm& (0+255),f,b
  2778   00183C  2BE4               	incf	(_pwm+1)& (0+255),f,b
  2779   00183E                     
  2780                           ; BSR set to: 0
  2781                           ;main.c: 279:                     if(pwm > 800)
  2782   00183E  BFE4               	btfsc	(_pwm+1)& (0+255),7,b
  2783   001840  EF2B  F00C         	goto	u5601
  2784   001844  0E21               	movlw	33
  2785   001846  5DE3               	subwf	_pwm& (0+255),w,b
  2786   001848  0E03               	movlw	3
  2787   00184A  59E4               	subwfb	(_pwm+1)& (0+255),w,b
  2788   00184C  A0D8               	btfss	status,0,c
  2789   00184E  EF2B  F00C         	goto	u5601
  2790   001852  EF2D  F00C         	goto	u5600
  2791   001856                     u5601:
  2792   001856  EF31  F00C         	goto	l5944
  2793   00185A                     u5600:
  2794   00185A                     
  2795                           ; BSR set to: 0
  2796                           ;main.c: 280:                         pwm = 800;
  2797   00185A  0E03               	movlw	3
  2798   00185C  6FE4               	movwf	(_pwm+1)& (0+255),b
  2799   00185E  0E20               	movlw	32
  2800   001860  6FE3               	movwf	_pwm& (0+255),b
  2801   001862                     l5944:
  2802                           
  2803                           ; BSR set to: 0
  2804                           ;main.c: 283:                 if ((promedio < gramo_abajo) && (clockwise == 0))
  2805   001862  0101               	movlb	1	; () banked
  2806   001864  510C               	movf	_gramo_abajo& (0+255),w,b
  2807   001866  0100               	movlb	0	; () banked
  2808   001868  5DD7               	subwf	_promedio& (0+255),w,b
  2809   00186A  0101               	movlb	1	; () banked
  2810   00186C  510D               	movf	(_gramo_abajo+1)& (0+255),w,b
  2811   00186E  0100               	movlb	0	; () banked
  2812   001870  59D8               	subwfb	(_promedio+1)& (0+255),w,b
  2813   001872  0101               	movlb	1	; () banked
  2814   001874  510E               	movf	(_gramo_abajo+2)& (0+255),w,b
  2815   001876  0100               	movlb	0	; () banked
  2816   001878  59D9               	subwfb	(_promedio+2)& (0+255),w,b
  2817   00187A  51DA               	movf	(_promedio+3)& (0+255),w,b
  2818   00187C  0A80               	xorlw	128
  2819   00187E  6FD3               	movwf	??_main& (0+255),b
  2820   001880  0101               	movlb	1	; () banked
  2821   001882  510F               	movf	(_gramo_abajo+3)& (0+255),w,b
  2822   001884  0A80               	xorlw	128
  2823   001886  0100               	movlb	0	; () banked
  2824   001888  59D3               	subwfb	??_main& (0+255),w,b
  2825   00188A  B0D8               	btfsc	status,0,c
  2826   00188C  EF4A  F00C         	goto	u5611
  2827   001890  EF4C  F00C         	goto	u5610
  2828   001894                     u5611:
  2829   001894  EF64  F00C         	goto	l5954
  2830   001898                     u5610:
  2831   001898                     
  2832                           ; BSR set to: 0
  2833   001898  51F6               	movf	_clockwise& (0+255),w,b
  2834   00189A  A4D8               	btfss	status,2,c
  2835   00189C  EF52  F00C         	goto	u5621
  2836   0018A0  EF54  F00C         	goto	u5620
  2837   0018A4                     u5621:
  2838   0018A4  EF64  F00C         	goto	l5954
  2839   0018A8                     u5620:
  2840   0018A8                     
  2841                           ; BSR set to: 0
  2842                           ;main.c: 284:                 {;main.c: 285:                     pwm --;
  2843   0018A8  07E3               	decf	_pwm& (0+255),f,b
  2844   0018AA  A0D8               	btfss	status,0,c
  2845   0018AC  07E4               	decf	(_pwm+1)& (0+255),f,b
  2846   0018AE                     
  2847                           ; BSR set to: 0
  2848                           ;main.c: 286:                     if(pwm < 0)
  2849   0018AE  BFE4               	btfsc	(_pwm+1)& (0+255),7,b
  2850   0018B0  EF5E  F00C         	goto	u5630
  2851   0018B4  EF5C  F00C         	goto	u5631
  2852   0018B8                     u5631:
  2853   0018B8  EF97  F00C         	goto	l5964
  2854   0018BC                     u5630:
  2855   0018BC                     
  2856                           ; BSR set to: 0
  2857                           ;main.c: 287:                     {;main.c: 288:                         pwm = 0;
  2858   0018BC  0E00               	movlw	0
  2859   0018BE  6FE4               	movwf	(_pwm+1)& (0+255),b
  2860   0018C0  0E00               	movlw	0
  2861   0018C2  6FE3               	movwf	_pwm& (0+255),b
  2862   0018C4  EF97  F00C         	goto	l5964
  2863   0018C8                     l5954:
  2864                           
  2865                           ; BSR set to: 0
  2866   0018C8  51D7               	movf	_promedio& (0+255),w,b
  2867   0018CA  0101               	movlb	1	; () banked
  2868   0018CC  5D08               	subwf	_gramo_arriba& (0+255),w,b
  2869   0018CE  0100               	movlb	0	; () banked
  2870   0018D0  51D8               	movf	(_promedio+1)& (0+255),w,b
  2871   0018D2  0101               	movlb	1	; () banked
  2872   0018D4  5909               	subwfb	(_gramo_arriba+1)& (0+255),w,b
  2873   0018D6  0100               	movlb	0	; () banked
  2874   0018D8  51D9               	movf	(_promedio+2)& (0+255),w,b
  2875   0018DA  0101               	movlb	1	; () banked
  2876   0018DC  590A               	subwfb	(_gramo_arriba+2)& (0+255),w,b
  2877   0018DE  510B               	movf	(_gramo_arriba+3)& (0+255),w,b
  2878   0018E0  0A80               	xorlw	128
  2879   0018E2  0100               	movlb	0	; () banked
  2880   0018E4  6FD3               	movwf	??_main& (0+255),b
  2881   0018E6  51DA               	movf	(_promedio+3)& (0+255),w,b
  2882   0018E8  0A80               	xorlw	128
  2883   0018EA  59D3               	subwfb	??_main& (0+255),w,b
  2884   0018EC  B0D8               	btfsc	status,0,c
  2885   0018EE  EF7B  F00C         	goto	u5641
  2886   0018F2  EF7D  F00C         	goto	u5640
  2887   0018F6                     u5641:
  2888   0018F6  EF97  F00C         	goto	l5964
  2889   0018FA                     u5640:
  2890   0018FA                     
  2891                           ; BSR set to: 0
  2892   0018FA  51F6               	movf	_clockwise& (0+255),w,b
  2893   0018FC  A4D8               	btfss	status,2,c
  2894   0018FE  EF83  F00C         	goto	u5651
  2895   001902  EF85  F00C         	goto	u5650
  2896   001906                     u5651:
  2897   001906  EF97  F00C         	goto	l5964
  2898   00190A                     u5650:
  2899   00190A                     
  2900                           ; BSR set to: 0
  2901                           ;main.c: 291:                 {;main.c: 292:                     pwm++;
  2902   00190A  4BE3               	infsnz	_pwm& (0+255),f,b
  2903   00190C  2BE4               	incf	(_pwm+1)& (0+255),f,b
  2904   00190E                     
  2905                           ; BSR set to: 0
  2906                           ;main.c: 293:                     if(pwm > 400)
  2907   00190E  BFE4               	btfsc	(_pwm+1)& (0+255),7,b
  2908   001910  EF93  F00C         	goto	u5661
  2909   001914  0E91               	movlw	145
  2910   001916  5DE3               	subwf	_pwm& (0+255),w,b
  2911   001918  0E01               	movlw	1
  2912   00191A  59E4               	subwfb	(_pwm+1)& (0+255),w,b
  2913   00191C  A0D8               	btfss	status,0,c
  2914   00191E  EF93  F00C         	goto	u5661
  2915   001922  EF95  F00C         	goto	u5660
  2916   001926                     u5661:
  2917   001926  EF97  F00C         	goto	l5964
  2918   00192A                     u5660:
  2919   00192A                     
  2920                           ; BSR set to: 0
  2921                           ;main.c: 294:                         clockwise = 1;
  2922   00192A  0E01               	movlw	1
  2923   00192C  6FF6               	movwf	_clockwise& (0+255),b
  2924   00192E                     l5964:
  2925                           
  2926                           ; BSR set to: 0
  2927                           ;main.c: 297:                 if ((n_p_lineal == pasos_lineal)) {
  2928   00192E  51DB               	movf	_pasos_lineal& (0+255),w,b
  2929   001930  0101               	movlb	1	; () banked
  2930   001932  1924               	xorwf	_n_p_lineal& (0+255),w,b
  2931   001934  E113               	bnz	u5671
  2932   001936  0100               	movlb	0	; () banked
  2933   001938  51DC               	movf	(_pasos_lineal+1)& (0+255),w,b
  2934   00193A  0101               	movlb	1	; () banked
  2935   00193C  1925               	xorwf	(_n_p_lineal+1)& (0+255),w,b
  2936   00193E  E10E               	bnz	u5671
  2937   001940  0100               	movlb	0	; () banked
  2938   001942  51DD               	movf	(_pasos_lineal+2)& (0+255),w,b
  2939   001944  0101               	movlb	1	; () banked
  2940   001946  1926               	xorwf	(_n_p_lineal+2)& (0+255),w,b
  2941   001948  E109               	bnz	u5671
  2942   00194A  0100               	movlb	0	; () banked
  2943   00194C  51DE               	movf	(_pasos_lineal+3)& (0+255),w,b
  2944   00194E  0101               	movlb	1	; () banked
  2945   001950  1927               	xorwf	(_n_p_lineal+3)& (0+255),w,b
  2946   001952  A4D8               	btfss	status,2,c
  2947   001954  EFAE  F00C         	goto	u5671
  2948   001958  EFB0  F00C         	goto	u5670
  2949   00195C                     u5671:
  2950   00195C  EF77  F00D         	goto	l676
  2951   001960                     u5670:
  2952   001960                     
  2953                           ; BSR set to: 1
  2954                           ;main.c: 298:                     mensaje_terminado();
  2955   001960  EC6C  F025         	call	_mensaje_terminado	;wreg free
  2956   001964                     
  2957                           ;main.c: 299:                     pwm = 400;
  2958   001964  0E01               	movlw	1
  2959   001966  0100               	movlb	0	; () banked
  2960   001968  6FE4               	movwf	(_pwm+1)& (0+255),b
  2961   00196A  0E90               	movlw	144
  2962   00196C  6FE3               	movwf	_pwm& (0+255),b
  2963   00196E                     
  2964                           ; BSR set to: 0
  2965                           ;main.c: 300:                     PWM5_LoadDutyValue(pwm);
  2966   00196E  C0E3  F001         	movff	_pwm,PWM5_LoadDutyValue@dutyValue
  2967   001972  C0E4  F002         	movff	_pwm+1,PWM5_LoadDutyValue@dutyValue+1
  2968   001976  EC38  F029         	call	_PWM5_LoadDutyValue	;wreg free
  2969   00197A                     
  2970                           ;main.c: 301:                     PWM6_LoadDutyValue(pwm);
  2971   00197A  C0E3  F001         	movff	_pwm,PWM6_LoadDutyValue@dutyValue
  2972   00197E  C0E4  F002         	movff	_pwm+1,PWM6_LoadDutyValue@dutyValue+1
  2973   001982  EC1E  F029         	call	_PWM6_LoadDutyValue	;wreg free
  2974   001986                     
  2975                           ;main.c: 302:                     if (capas > 1) {
  2976   001986  0100               	movlb	0	; () banked
  2977   001988  BFEE               	btfsc	(_capas+1)& (0+255),7,b
  2978   00198A  EFD0  F00C         	goto	u5681
  2979   00198E  51EE               	movf	(_capas+1)& (0+255),w,b
  2980   001990  E109               	bnz	u5680
  2981   001992  0E02               	movlw	2
  2982   001994  5DED               	subwf	_capas& (0+255),w,b
  2983   001996  A0D8               	btfss	status,0,c
  2984   001998  EFD0  F00C         	goto	u5681
  2985   00199C  EFD2  F00C         	goto	u5680
  2986   0019A0                     u5681:
  2987   0019A0  EFEC  F00C         	goto	l5984
  2988   0019A4                     u5680:
  2989   0019A4                     
  2990                           ; BSR set to: 0
  2991                           ;main.c: 303:                         mensaje_capa2();
  2992   0019A4  EC0E  F026         	call	_mensaje_capa2	;wreg free
  2993   0019A8                     
  2994                           ;main.c: 304:                         n_p_lineal = 0;
  2995   0019A8  0E00               	movlw	0
  2996   0019AA  0101               	movlb	1	; () banked
  2997   0019AC  6F24               	movwf	_n_p_lineal& (0+255),b
  2998   0019AE  0E00               	movlw	0
  2999   0019B0  6F25               	movwf	(_n_p_lineal+1)& (0+255),b
  3000   0019B2  0E00               	movlw	0
  3001   0019B4  6F26               	movwf	(_n_p_lineal+2)& (0+255),b
  3002   0019B6  0E00               	movlw	0
  3003   0019B8  6F27               	movwf	(_n_p_lineal+3)& (0+255),b
  3004   0019BA                     
  3005                           ; BSR set to: 1
  3006                           ;main.c: 305:                         n_p_bobina = 0;
  3007   0019BA  0E00               	movlw	0
  3008   0019BC  6F20               	movwf	_n_p_bobina& (0+255),b
  3009   0019BE  0E00               	movlw	0
  3010   0019C0  6F21               	movwf	(_n_p_bobina+1)& (0+255),b
  3011   0019C2  0E00               	movlw	0
  3012   0019C4  6F22               	movwf	(_n_p_bobina+2)& (0+255),b
  3013   0019C6  0E00               	movlw	0
  3014   0019C8  6F23               	movwf	(_n_p_bobina+3)& (0+255),b
  3015   0019CA                     
  3016                           ; BSR set to: 1
  3017                           ;main.c: 306:                         estado = 8;
  3018   0019CA  0E00               	movlw	0
  3019   0019CC  0100               	movlb	0	; () banked
  3020   0019CE  6FF4               	movwf	(_estado+1)& (0+255),b
  3021   0019D0  0E08               	movlw	8
  3022   0019D2  6FF3               	movwf	_estado& (0+255),b
  3023                           
  3024                           ;main.c: 307:                     } else {
  3025   0019D4  EF77  F00D         	goto	l6020
  3026   0019D8                     l5984:
  3027                           
  3028                           ; BSR set to: 0
  3029                           ;main.c: 308:                         n_p_lineal = 0;
  3030   0019D8  0E00               	movlw	0
  3031   0019DA  0101               	movlb	1	; () banked
  3032   0019DC  6F24               	movwf	_n_p_lineal& (0+255),b
  3033   0019DE  0E00               	movlw	0
  3034   0019E0  6F25               	movwf	(_n_p_lineal+1)& (0+255),b
  3035   0019E2  0E00               	movlw	0
  3036   0019E4  6F26               	movwf	(_n_p_lineal+2)& (0+255),b
  3037   0019E6  0E00               	movlw	0
  3038   0019E8  6F27               	movwf	(_n_p_lineal+3)& (0+255),b
  3039                           
  3040                           ;main.c: 309:                         n_p_bobina = 0;
  3041   0019EA  0E00               	movlw	0
  3042   0019EC  6F20               	movwf	_n_p_bobina& (0+255),b
  3043   0019EE  0E00               	movlw	0
  3044   0019F0  6F21               	movwf	(_n_p_bobina+1)& (0+255),b
  3045   0019F2  0E00               	movlw	0
  3046   0019F4  6F22               	movwf	(_n_p_bobina+2)& (0+255),b
  3047   0019F6  0E00               	movlw	0
  3048   0019F8  6F23               	movwf	(_n_p_bobina+3)& (0+255),b
  3049                           
  3050                           ;main.c: 310:                         estado = 9;
  3051   0019FA  0E00               	movlw	0
  3052   0019FC  0100               	movlb	0	; () banked
  3053   0019FE  6FF4               	movwf	(_estado+1)& (0+255),b
  3054   001A00  0E09               	movlw	9
  3055   001A02  6FF3               	movwf	_estado& (0+255),b
  3056   001A04  EF77  F00D         	goto	l6020
  3057   001A08                     l733:
  3058                           
  3059                           ; BSR set to: 0
  3060                           ;main.c: 316:                 if (PORTDbits.RD6 == 1) {
  3061   001A08  ACCD               	btfss	205,6,c	;volatile
  3062   001A0A  EF09  F00D         	goto	u5691
  3063   001A0E  EF0B  F00D         	goto	u5690
  3064   001A12                     u5691:
  3065   001A12  EF77  F00D         	goto	l676
  3066   001A16                     u5690:
  3067   001A16                     
  3068                           ; BSR set to: 0
  3069   001A16  B4BD               	btfsc	189,2,c	;volatile
  3070   001A18  EF10  F00D         	goto	u5701
  3071   001A1C  EF13  F00D         	goto	u5700
  3072   001A20                     u5701:
  3073   001A20  0E01               	movlw	1
  3074   001A22  EF14  F00D         	goto	u5706
  3075   001A26                     u5700:
  3076   001A26  0E00               	movlw	0
  3077   001A28                     u5706:
  3078   001A28  0AFF               	xorlw	255
  3079   001A2A  6FD3               	movwf	??_main& (0+255),b
  3080   001A2C  47D3               	rlncf	??_main& (0+255),f,b
  3081   001A2E  47D3               	rlncf	??_main& (0+255),f,b
  3082   001A30  50BD               	movf	189,w,c	;volatile
  3083   001A32  19D3               	xorwf	??_main& (0+255),w,b
  3084   001A34  0BFB               	andlw	-5
  3085   001A36  19D3               	xorwf	??_main& (0+255),w,b
  3086   001A38  6EBD               	movwf	189,c	;volatile
  3087   001A3A                     
  3088                           ; BSR set to: 0
  3089                           ;main.c: 318:                     capas--;
  3090   001A3A  07ED               	decf	_capas& (0+255),f,b
  3091   001A3C  A0D8               	btfss	status,0,c
  3092   001A3E  07EE               	decf	(_capas+1)& (0+255),f,b
  3093   001A40  EF6E  F00B         	goto	l5906
  3094   001A44                     l5992:
  3095                           
  3096                           ; BSR set to: 0
  3097                           ;main.c: 323:                 mensaje_final();
  3098   001A44  ECA2  F025         	call	_mensaje_final	;wreg free
  3099   001A48                     
  3100                           ;main.c: 324:                 L = 0;
  3101   001A48  0E00               	movlw	0
  3102   001A4A  0100               	movlb	0	; () banked
  3103   001A4C  6FF2               	movwf	(_L+1)& (0+255),b
  3104   001A4E  0E00               	movlw	0
  3105   001A50  6FF1               	movwf	_L& (0+255),b
  3106   001A52                     
  3107                           ; BSR set to: 0
  3108                           ;main.c: 325:                 AWG = 0;
  3109   001A52  0E00               	movlw	0
  3110   001A54  6FF0               	movwf	(_AWG+1)& (0+255),b
  3111   001A56  0E00               	movlw	0
  3112   001A58  6FEF               	movwf	_AWG& (0+255),b
  3113   001A5A                     
  3114                           ; BSR set to: 0
  3115                           ;main.c: 326:                 capas = 0;
  3116   001A5A  0E00               	movlw	0
  3117   001A5C  6FEE               	movwf	(_capas+1)& (0+255),b
  3118   001A5E  0E00               	movlw	0
  3119   001A60  6FED               	movwf	_capas& (0+255),b
  3120   001A62                     
  3121                           ; BSR set to: 0
  3122                           ;main.c: 327:                 sel_vel = 0;
  3123   001A62  0E00               	movlw	0
  3124   001A64  6FEC               	movwf	(_sel_vel+1)& (0+255),b
  3125   001A66  0E00               	movlw	0
  3126   001A68  6FEB               	movwf	_sel_vel& (0+255),b
  3127   001A6A                     
  3128                           ; BSR set to: 0
  3129                           ;main.c: 328:                 t_capa1 = 0.0;
  3130   001A6A  0E00               	movlw	0
  3131   001A6C  0101               	movlb	1	; () banked
  3132   001A6E  6FF6               	movwf	_t_capa1& (0+255),b
  3133   001A70  0E00               	movlw	0
  3134   001A72  6FF7               	movwf	(_t_capa1+1)& (0+255),b
  3135   001A74  0E00               	movlw	0
  3136   001A76  6FF8               	movwf	(_t_capa1+2)& (0+255),b
  3137   001A78  0E00               	movlw	0
  3138   001A7A  6FF9               	movwf	(_t_capa1+3)& (0+255),b
  3139   001A7C                     
  3140                           ; BSR set to: 1
  3141                           ;main.c: 329:                 pasos_bobina = 0;
  3142   001A7C  0E00               	movlw	0
  3143   001A7E  6F28               	movwf	_pasos_bobina& (0+255),b
  3144   001A80  0E00               	movlw	0
  3145   001A82  6F29               	movwf	(_pasos_bobina+1)& (0+255),b
  3146   001A84  0E00               	movlw	0
  3147   001A86  6F2A               	movwf	(_pasos_bobina+2)& (0+255),b
  3148   001A88  0E00               	movlw	0
  3149   001A8A  6F2B               	movwf	(_pasos_bobina+3)& (0+255),b
  3150   001A8C                     
  3151                           ; BSR set to: 1
  3152                           ;main.c: 330:                 pasos_lineal = 0;
  3153   001A8C  0E00               	movlw	0
  3154   001A8E  0100               	movlb	0	; () banked
  3155   001A90  6FDB               	movwf	_pasos_lineal& (0+255),b
  3156   001A92  0E00               	movlw	0
  3157   001A94  6FDC               	movwf	(_pasos_lineal+1)& (0+255),b
  3158   001A96  0E00               	movlw	0
  3159   001A98  6FDD               	movwf	(_pasos_lineal+2)& (0+255),b
  3160   001A9A  0E00               	movlw	0
  3161   001A9C  6FDE               	movwf	(_pasos_lineal+3)& (0+255),b
  3162   001A9E                     
  3163                           ; BSR set to: 0
  3164                           ;main.c: 331:                 vel_lineal = 0;
  3165   001A9E  0E00               	movlw	0
  3166   001AA0  0101               	movlb	1	; () banked
  3167   001AA2  6FEE               	movwf	_vel_lineal& (0+255),b
  3168   001AA4  0E00               	movlw	0
  3169   001AA6  6FEF               	movwf	(_vel_lineal+1)& (0+255),b
  3170   001AA8  0E00               	movlw	0
  3171   001AAA  6FF0               	movwf	(_vel_lineal+2)& (0+255),b
  3172   001AAC  0E00               	movlw	0
  3173   001AAE  6FF1               	movwf	(_vel_lineal+3)& (0+255),b
  3174   001AB0                     
  3175                           ; BSR set to: 1
  3176                           ;main.c: 332:                 RPM = w_ideal;
  3177   001AB0  0E00               	movlw	0
  3178   001AB2  6FF2               	movwf	_RPM& (0+255),b
  3179   001AB4  0E00               	movlw	0
  3180   001AB6  6FF3               	movwf	(_RPM+1)& (0+255),b
  3181   001AB8  0E96               	movlw	150
  3182   001ABA  6FF4               	movwf	(_RPM+2)& (0+255),b
  3183   001ABC  0E43               	movlw	67
  3184   001ABE  6FF5               	movwf	(_RPM+3)& (0+255),b
  3185   001AC0                     
  3186                           ; BSR set to: 1
  3187                           ;main.c: 333:                 n_p_lineal = 0;
  3188   001AC0  0E00               	movlw	0
  3189   001AC2  6F24               	movwf	_n_p_lineal& (0+255),b
  3190   001AC4  0E00               	movlw	0
  3191   001AC6  6F25               	movwf	(_n_p_lineal+1)& (0+255),b
  3192   001AC8  0E00               	movlw	0
  3193   001ACA  6F26               	movwf	(_n_p_lineal+2)& (0+255),b
  3194   001ACC  0E00               	movlw	0
  3195   001ACE  6F27               	movwf	(_n_p_lineal+3)& (0+255),b
  3196   001AD0                     
  3197                           ; BSR set to: 1
  3198                           ;main.c: 334:                 n_p_bobina = 0;
  3199   001AD0  0E00               	movlw	0
  3200   001AD2  6F20               	movwf	_n_p_bobina& (0+255),b
  3201   001AD4  0E00               	movlw	0
  3202   001AD6  6F21               	movwf	(_n_p_bobina+1)& (0+255),b
  3203   001AD8  0E00               	movlw	0
  3204   001ADA  6F22               	movwf	(_n_p_bobina+2)& (0+255),b
  3205   001ADC  0E00               	movlw	0
  3206   001ADE  6F23               	movwf	(_n_p_bobina+3)& (0+255),b
  3207   001AE0                     
  3208                           ; BSR set to: 1
  3209                           ;main.c: 335:                 estado = 0;
  3210   001AE0  0E00               	movlw	0
  3211   001AE2  0100               	movlb	0	; () banked
  3212   001AE4  6FF4               	movwf	(_estado+1)& (0+255),b
  3213   001AE6  0E00               	movlw	0
  3214   001AE8  6FF3               	movwf	_estado& (0+255),b
  3215                           
  3216                           ;main.c: 336:                 break;
  3217   001AEA  EF77  F00D         	goto	l6020
  3218   001AEE                     l676:
  3219   001AEE                     l6020:
  3220   001AEE  C0F3  F0D3         	movff	_estado,??_main
  3221   001AF2  C0F4  F0D4         	movff	_estado+1,??_main+1
  3222                           
  3223                           ; Switch on 2 bytes has been partitioned into a top level switch of size 1, and 1 sub-sw
      +                          itches
  3224                           ; Switch size 1, requested type "simple"
  3225                           ; Number of cases is 1, Range of values is 0 to 0
  3226                           ; switch strategies available:
  3227                           ; Name         Instructions Cycles
  3228                           ; simple_byte            4     3 (average)
  3229                           ;	Chosen strategy is simple_byte
  3230   001AF6  0100               	movlb	0	; () banked
  3231   001AF8  51D4               	movf	(??_main+1)& (0+255),w,b
  3232   001AFA  0A00               	xorlw	0	; case 0
  3233   001AFC  B4D8               	btfsc	status,2,c
  3234   001AFE  EF83  F00D         	goto	l6262
  3235   001B02  EF77  F00D         	goto	l6020
  3236   001B06                     l6262:
  3237                           
  3238                           ; BSR set to: 0
  3239                           ; Switch size 1, requested type "simple"
  3240                           ; Number of cases is 10, Range of values is 0 to 9
  3241                           ; switch strategies available:
  3242                           ; Name         Instructions Cycles
  3243                           ; simple_byte           31    16 (average)
  3244                           ;	Chosen strategy is simple_byte
  3245   001B06  51D3               	movf	??_main& (0+255),w,b
  3246   001B08  0A00               	xorlw	0	; case 0
  3247   001B0A  B4D8               	btfsc	status,2,c
  3248   001B0C  EF93  F008         	goto	l5776
  3249   001B10  0A01               	xorlw	1	; case 1
  3250   001B12  B4D8               	btfsc	status,2,c
  3251   001B14  EFBB  F008         	goto	l5788
  3252   001B18  0A03               	xorlw	3	; case 2
  3253   001B1A  B4D8               	btfsc	status,2,c
  3254   001B1C  EFEB  F008         	goto	l5800
  3255   001B20  0A01               	xorlw	1	; case 3
  3256   001B22  B4D8               	btfsc	status,2,c
  3257   001B24  EF73  F009         	goto	l5830
  3258   001B28  0A07               	xorlw	7	; case 4
  3259   001B2A  B4D8               	btfsc	status,2,c
  3260   001B2C  EFAF  F009         	goto	l5846
  3261   001B30  0A01               	xorlw	1	; case 5
  3262   001B32  B4D8               	btfsc	status,2,c
  3263   001B34  EF08  F00A         	goto	l701
  3264   001B38  0A03               	xorlw	3	; case 6
  3265   001B3A  B4D8               	btfsc	status,2,c
  3266   001B3C  EFB0  F00A         	goto	l707
  3267   001B40  0A01               	xorlw	1	; case 7
  3268   001B42  B4D8               	btfsc	status,2,c
  3269   001B44  EF75  F00B         	goto	l5908
  3270   001B48  0A0F               	xorlw	15	; case 8
  3271   001B4A  B4D8               	btfsc	status,2,c
  3272   001B4C  EF04  F00D         	goto	l733
  3273   001B50  0A01               	xorlw	1	; case 9
  3274   001B52  B4D8               	btfsc	status,2,c
  3275   001B54  EF22  F00D         	goto	l5992
  3276   001B58  EF77  F00D         	goto	l6020
  3277   001B5C  EF0D  F000         	goto	start
  3278   001B60                     __end_of_main:
  3279                           	callstack 0
  3280                           
  3281 ;; *************** function _send_t *****************
  3282 ;; Defined at:
  3283 ;;		line 473 in file "main.c"
  3284 ;; Parameters:    Size  Location     Type
  3285 ;;  t_capa          4   79[BANK0 ] float 
  3286 ;;  t_total         4   83[BANK0 ] float 
  3287 ;; Auto vars:     Size  Location     Type
  3288 ;;  i               2  113[BANK0 ] int 
  3289 ;;  i               2  111[BANK0 ] int 
  3290 ;;  aux            18   88[BANK0 ] unsigned char [18]
  3291 ;;  mensaje         5  106[BANK0 ] unsigned char [5]
  3292 ;; Return value:  Size  Location     Type
  3293 ;;                  1    wreg      void 
  3294 ;; Registers used:
  3295 ;;		wreg, fsr1l, fsr1h, fsr2l, fsr2h, status,2, status,0, tblptrl, tblptrh, tblptru, prodl, prodh, cstack
  3296 ;; Tracked objects:
  3297 ;;		On entry : 0/0
  3298 ;;		On exit  : 0/0
  3299 ;;		Unchanged: 0/0
  3300 ;; Data sizes:     COMRAM   BANK0   BANK1   BANK2   BANK3   BANK4   BANK5   BANK6   BANK7   BANK8   BANK9  BANK10  BANK1
      +1  BANK12  BANK13  BANK14  BANK15
  3301 ;;      Params:         0       8       0       0       0       0       0       0       0       0       0       0       
      +0       0       0       0       0
  3302 ;;      Locals:         0      27       0       0       0       0       0       0       0       0       0       0       
      +0       0       0       0       0
  3303 ;;      Temps:          0       1       0       0       0       0       0       0       0       0       0       0       
      +0       0       0       0       0
  3304 ;;      Totals:         0      36       0       0       0       0       0       0       0       0       0       0       
      +0       0       0       0       0
  3305 ;;Total ram usage:       36 bytes
  3306 ;; Hardware stack levels used: 1
  3307 ;; Hardware stack levels required when called: 10
  3308 ;; This function calls:
  3309 ;;		_UART1_Write
  3310 ;;		_UART1_is_tx_ready
  3311 ;;		_sprintf
  3312 ;; This function is called by:
  3313 ;;		_main
  3314 ;; This function uses a non-reentrant model
  3315 ;;
  3316                           
  3317                           	psect	text1
  3318   0041AE                     __ptext1:
  3319                           	callstack 0
  3320   0041AE                     _send_t:
  3321                           	callstack 20
  3322   0041AE                     
  3323                           ;main.c: 474:     char aux[] = "\nTiempo\testimado:";
  3324   0041AE  EE20  F1A9         	lfsr	2,send_t@F16535
  3325   0041B2  EE10  F0B8         	lfsr	1,send_t@aux
  3326   0041B6  0E11               	movlw	17
  3327   0041B8                     u5181:
  3328   0041B8  006F FF6F FFE3     	movff	plusw2,plusw1
  3329   0041BE  06E8               	decf	wreg,f,c
  3330   0041C0  E2FB               	bc	u5181
  3331   0041C2                     
  3332                           ;main.c: 475:     for (int i = 0; i < sizeof (aux); i++)
  3333   0041C2  0E00               	movlw	0
  3334   0041C4  0100               	movlb	0	; () banked
  3335   0041C6  6FD0               	movwf	(send_t@i+1)& (0+255),b
  3336   0041C8  0E00               	movlw	0
  3337   0041CA  6FCF               	movwf	send_t@i& (0+255),b
  3338   0041CC                     l5586:
  3339                           
  3340                           ; BSR set to: 0
  3341                           ;main.c: 476:     {;main.c: 477:         if (UART1_is_tx_ready()) {
  3342   0041CC  EC52  F029         	call	_UART1_is_tx_ready	;wreg free
  3343   0041D0  0900               	iorlw	0
  3344   0041D2  B4D8               	btfsc	status,2,c
  3345   0041D4  EFEE  F020         	goto	u5191
  3346   0041D8  EFF0  F020         	goto	u5190
  3347   0041DC                     u5191:
  3348   0041DC  EFFA  F020         	goto	l5590
  3349   0041E0                     u5190:
  3350   0041E0                     
  3351                           ;main.c: 478:             UART1_Write(aux[i]);
  3352   0041E0  0EB8               	movlw	low send_t@aux
  3353   0041E2  0100               	movlb	0	; () banked
  3354   0041E4  25CF               	addwf	send_t@i& (0+255),w,b
  3355   0041E6  6ED9               	movwf	fsr2l,c
  3356   0041E8  0E00               	movlw	high send_t@aux
  3357   0041EA  21D0               	addwfc	(send_t@i+1)& (0+255),w,b
  3358   0041EC  6EDA               	movwf	fsr2h,c
  3359   0041EE  50DF               	movf	indf2,w,c
  3360   0041F0  EC05  F02A         	call	_UART1_Write
  3361   0041F4                     l5590:
  3362                           
  3363                           ;main.c: 480:         _delay((unsigned long)((10)*(16000000/4000.0)));
  3364   0041F4  0E34               	movlw	52
  3365   0041F6  0100               	movlb	0	; () banked
  3366   0041F8  6FB7               	movwf	??_send_t& (0+255),b
  3367   0041FA  0EF1               	movlw	241
  3368   0041FC                     u5737:
  3369   0041FC  2EE8               	decfsz	wreg,f,c
  3370   0041FE  D7FE               	bra	u5737
  3371   004200  2FB7               	decfsz	??_send_t& (0+255),f,b
  3372   004202  D7FC               	bra	u5737
  3373   004204  D000               	nop2	
  3374   004206                     
  3375                           ;main.c: 481:     }
  3376   004206  0100               	movlb	0	; () banked
  3377   004208  4BCF               	infsnz	send_t@i& (0+255),f,b
  3378   00420A  2BD0               	incf	(send_t@i+1)& (0+255),f,b
  3379   00420C                     
  3380                           ; BSR set to: 0
  3381   00420C  51D0               	movf	(send_t@i+1)& (0+255),w,b
  3382   00420E  E109               	bnz	u5200
  3383   004210  0E12               	movlw	18
  3384   004212  5DCF               	subwf	send_t@i& (0+255),w,b
  3385   004214  A0D8               	btfss	status,0,c
  3386   004216  EF0F  F021         	goto	u5201
  3387   00421A  EF11  F021         	goto	u5200
  3388   00421E                     u5201:
  3389   00421E  EFE6  F020         	goto	l5586
  3390   004222                     u5200:
  3391   004222                     
  3392                           ; BSR set to: 0
  3393                           ;main.c: 482:     char mensaje[5];;main.c: 483:     sprintf(mensaje, "%f", t_total);
  3394   004222  0ECA               	movlw	low send_t@mensaje
  3395   004224  6F99               	movwf	sprintf@s& (0+255),b
  3396   004226  0E00               	movlw	high send_t@mensaje
  3397   004228  6F9A               	movwf	(sprintf@s+1)& (0+255),b
  3398   00422A  0E0C               	movlw	low STR_2
  3399   00422C  6F9B               	movwf	sprintf@fmt& (0+255),b
  3400   00422E  0E10               	movlw	high STR_2
  3401   004230  6F9C               	movwf	(sprintf@fmt+1)& (0+255),b
  3402   004232  C0B3  F09D         	movff	send_t@t_total,?_sprintf+4
  3403   004236  C0B4  F09E         	movff	send_t@t_total+1,?_sprintf+5
  3404   00423A  C0B5  F09F         	movff	send_t@t_total+2,?_sprintf+6
  3405   00423E  C0B6  F0A0         	movff	send_t@t_total+3,?_sprintf+7
  3406   004242  EC10  F028         	call	_sprintf	;wreg free
  3407   004246                     
  3408                           ;main.c: 484:     for (int i = 0; i < sizeof (mensaje); i++)
  3409   004246  0E00               	movlw	0
  3410   004248  0100               	movlb	0	; () banked
  3411   00424A  6FD2               	movwf	(send_t@i_1675+1)& (0+255),b
  3412   00424C  0E00               	movlw	0
  3413   00424E  6FD1               	movwf	send_t@i_1675& (0+255),b
  3414   004250                     l5604:
  3415                           
  3416                           ; BSR set to: 0
  3417                           ;main.c: 485:     {;main.c: 486:         if (UART1_is_tx_ready()) {
  3418   004250  EC52  F029         	call	_UART1_is_tx_ready	;wreg free
  3419   004254  0900               	iorlw	0
  3420   004256  B4D8               	btfsc	status,2,c
  3421   004258  EF30  F021         	goto	u5211
  3422   00425C  EF32  F021         	goto	u5210
  3423   004260                     u5211:
  3424   004260  EF3C  F021         	goto	l5608
  3425   004264                     u5210:
  3426   004264                     
  3427                           ;main.c: 487:             UART1_Write(mensaje[i]);
  3428   004264  0ECA               	movlw	low send_t@mensaje
  3429   004266  0100               	movlb	0	; () banked
  3430   004268  25D1               	addwf	send_t@i_1675& (0+255),w,b
  3431   00426A  6ED9               	movwf	fsr2l,c
  3432   00426C  0E00               	movlw	high send_t@mensaje
  3433   00426E  21D2               	addwfc	(send_t@i_1675+1)& (0+255),w,b
  3434   004270  6EDA               	movwf	fsr2h,c
  3435   004272  50DF               	movf	indf2,w,c
  3436   004274  EC05  F02A         	call	_UART1_Write
  3437   004278                     l5608:
  3438                           
  3439                           ;main.c: 489:         _delay((unsigned long)((10)*(16000000/4000.0)));
  3440   004278  0E34               	movlw	52
  3441   00427A  0100               	movlb	0	; () banked
  3442   00427C  6FB7               	movwf	??_send_t& (0+255),b
  3443   00427E  0EF1               	movlw	241
  3444   004280                     u5747:
  3445   004280  2EE8               	decfsz	wreg,f,c
  3446   004282  D7FE               	bra	u5747
  3447   004284  2FB7               	decfsz	??_send_t& (0+255),f,b
  3448   004286  D7FC               	bra	u5747
  3449   004288  D000               	nop2	
  3450   00428A                     
  3451                           ;main.c: 490:     }
  3452   00428A  0100               	movlb	0	; () banked
  3453   00428C  4BD1               	infsnz	send_t@i_1675& (0+255),f,b
  3454   00428E  2BD2               	incf	(send_t@i_1675+1)& (0+255),f,b
  3455   004290                     
  3456                           ; BSR set to: 0
  3457   004290  51D2               	movf	(send_t@i_1675+1)& (0+255),w,b
  3458   004292  E109               	bnz	u5220
  3459   004294  0E05               	movlw	5
  3460   004296  5DD1               	subwf	send_t@i_1675& (0+255),w,b
  3461   004298  A0D8               	btfss	status,0,c
  3462   00429A  EF51  F021         	goto	u5221
  3463   00429E  EF53  F021         	goto	u5220
  3464   0042A2                     u5221:
  3465   0042A2  EF28  F021         	goto	l5604
  3466   0042A6                     u5220:
  3467   0042A6                     
  3468                           ; BSR set to: 0
  3469   0042A6  0012               	return		;funcret
  3470   0042A8                     __end_of_send_t:
  3471                           	callstack 0
  3472                           
  3473 ;; *************** function _sprintf *****************
  3474 ;; Defined at:
  3475 ;;		line 9 in file "C:\Program Files\Microchip\xc8\v2.41\pic\sources\c99\common\nf_sprintf.c"
  3476 ;; Parameters:    Size  Location     Type
  3477 ;;  s               2   57[BANK0 ] PTR unsigned char 
  3478 ;;		 -> send_t@mensaje(5), print_num@mensaje(6), 
  3479 ;;  fmt             2   59[BANK0 ] PTR const unsigned char 
  3480 ;;		 -> STR_2(3), STR_1(3), 
  3481 ;; Auto vars:     Size  Location     Type
  3482 ;;  f              12   67[BANK0 ] struct _IO_FILE
  3483 ;;  ap              2   65[BANK0 ] PTR void [1]
  3484 ;;		 -> ?_sprintf(2), 
  3485 ;;  ret             2    0        int 
  3486 ;; Return value:  Size  Location     Type
  3487 ;;                  2   57[BANK0 ] int 
  3488 ;; Registers used:
  3489 ;;		wreg, fsr1l, fsr1h, fsr2l, fsr2h, status,2, status,0, tblptrl, tblptrh, tblptru, prodl, prodh, cstack
  3490 ;; Tracked objects:
  3491 ;;		On entry : 0/0
  3492 ;;		On exit  : 0/0
  3493 ;;		Unchanged: 0/0
  3494 ;; Data sizes:     COMRAM   BANK0   BANK1   BANK2   BANK3   BANK4   BANK5   BANK6   BANK7   BANK8   BANK9  BANK10  BANK1
      +1  BANK12  BANK13  BANK14  BANK15
  3495 ;;      Params:         0       8       0       0       0       0       0       0       0       0       0       0       
      +0       0       0       0       0
  3496 ;;      Locals:         0      14       0       0       0       0       0       0       0       0       0       0       
      +0       0       0       0       0
  3497 ;;      Temps:          0       0       0       0       0       0       0       0       0       0       0       0       
      +0       0       0       0       0
  3498 ;;      Totals:         0      22       0       0       0       0       0       0       0       0       0       0       
      +0       0       0       0       0
  3499 ;;Total ram usage:       22 bytes
  3500 ;; Hardware stack levels used: 1
  3501 ;; Hardware stack levels required when called: 9
  3502 ;; This function calls:
  3503 ;;		_vfprintf
  3504 ;; This function is called by:
  3505 ;;		_send_t
  3506 ;;		_print_num
  3507 ;; This function uses a non-reentrant model
  3508 ;;
  3509                           
  3510                           	psect	text2
  3511   005020                     __ptext2:
  3512                           	callstack 0
  3513   005020                     _sprintf:
  3514                           	callstack 20
  3515   005020  0E9D               	movlw	low (?_sprintf+4)
  3516   005022  0100               	movlb	0	; () banked
  3517   005024  6FA1               	movwf	sprintf@ap& (0+255),b
  3518   005026  0E00               	movlw	high (?_sprintf+4)
  3519   005028  6FA2               	movwf	(sprintf@ap+1)& (0+255),b
  3520   00502A  C099  F0A3         	movff	sprintf@s,sprintf@f
  3521   00502E  C09A  F0A4         	movff	sprintf@s+1,sprintf@f+1
  3522   005032                     
  3523                           ; BSR set to: 0
  3524   005032  0E00               	movlw	0
  3525   005034  6FA7               	movwf	(sprintf@f+4)& (0+255),b
  3526   005036  0E00               	movlw	0
  3527   005038  6FA6               	movwf	(sprintf@f+3)& (0+255),b
  3528   00503A                     
  3529                           ; BSR set to: 0
  3530   00503A  0E00               	movlw	0
  3531   00503C  6FAE               	movwf	(sprintf@f+11)& (0+255),b
  3532   00503E  0E00               	movlw	0
  3533   005040  6FAD               	movwf	(sprintf@f+10)& (0+255),b
  3534   005042                     
  3535                           ; BSR set to: 0
  3536   005042  0EA3               	movlw	low sprintf@f
  3537   005044  6F93               	movwf	vfprintf@fp& (0+255),b
  3538   005046  0E00               	movlw	high sprintf@f
  3539   005048  6F94               	movwf	(vfprintf@fp+1)& (0+255),b
  3540   00504A  C09B  F095         	movff	sprintf@fmt,vfprintf@fmt
  3541   00504E  C09C  F096         	movff	sprintf@fmt+1,vfprintf@fmt+1
  3542   005052  0EA1               	movlw	low sprintf@ap
  3543   005054  6F97               	movwf	vfprintf@ap& (0+255),b
  3544   005056  0E00               	movlw	high sprintf@ap
  3545   005058  6F98               	movwf	(vfprintf@ap+1)& (0+255),b
  3546   00505A  ECE5  F027         	call	_vfprintf	;wreg free
  3547   00505E  0100               	movlb	0	; () banked
  3548   005060  51A6               	movf	(sprintf@f+3)& (0+255),w,b
  3549   005062  2599               	addwf	sprintf@s& (0+255),w,b
  3550   005064  6ED9               	movwf	fsr2l,c
  3551   005066  51A7               	movf	(sprintf@f+4)& (0+255),w,b
  3552   005068  219A               	addwfc	(sprintf@s+1)& (0+255),w,b
  3553   00506A  6EDA               	movwf	fsr2h,c
  3554   00506C  6ADF               	clrf	indf2,c
  3555   00506E                     
  3556                           ; BSR set to: 0
  3557   00506E  0012               	return		;funcret
  3558   005070                     __end_of_sprintf:
  3559                           	callstack 0
  3560                           
  3561 ;; *************** function _vfprintf *****************
  3562 ;; Defined at:
  3563 ;;		line 1546 in file "C:\Program Files\Microchip\xc8\v2.41\pic\sources\c99\common\doprnt.c"
  3564 ;; Parameters:    Size  Location     Type
  3565 ;;  fp              2   51[BANK0 ] PTR struct _IO_FILE
  3566 ;;		 -> sprintf@f(12), 
  3567 ;;  fmt             2   53[BANK0 ] PTR const unsigned char 
  3568 ;;		 -> STR_2(3), STR_1(3), 
  3569 ;;  ap              2   55[BANK0 ] PTR PTR void 
  3570 ;;		 -> sprintf@ap(2), 
  3571 ;; Auto vars:     Size  Location     Type
  3572 ;;  cfmt            2   93[COMRAM] PTR unsigned char 
  3573 ;;		 -> STR_2(3), STR_1(3), 
  3574 ;; Return value:  Size  Location     Type
  3575 ;;                  2   51[BANK0 ] int 
  3576 ;; Registers used:
  3577 ;;		wreg, fsr1l, fsr1h, fsr2l, fsr2h, status,2, status,0, tblptrl, tblptrh, tblptru, prodl, prodh, cstack
  3578 ;; Tracked objects:
  3579 ;;		On entry : 0/0
  3580 ;;		On exit  : 0/0
  3581 ;;		Unchanged: 0/0
  3582 ;; Data sizes:     COMRAM   BANK0   BANK1   BANK2   BANK3   BANK4   BANK5   BANK6   BANK7   BANK8   BANK9  BANK10  BANK1
      +1  BANK12  BANK13  BANK14  BANK15
  3583 ;;      Params:         0       6       0       0       0       0       0       0       0       0       0       0       
      +0       0       0       0       0
  3584 ;;      Locals:         2       0       0       0       0       0       0       0       0       0       0       0       
      +0       0       0       0       0
  3585 ;;      Temps:          0       0       0       0       0       0       0       0       0       0       0       0       
      +0       0       0       0       0
  3586 ;;      Totals:         2       6       0       0       0       0       0       0       0       0       0       0       
      +0       0       0       0       0
  3587 ;;Total ram usage:        8 bytes
  3588 ;; Hardware stack levels used: 1
  3589 ;; Hardware stack levels required when called: 8
  3590 ;; This function calls:
  3591 ;;		_vfpfcnvrt
  3592 ;; This function is called by:
  3593 ;;		_sprintf
  3594 ;; This function uses a non-reentrant model
  3595 ;;
  3596                           
  3597                           	psect	text3
  3598   004FCA                     __ptext3:
  3599                           	callstack 0
  3600   004FCA                     _vfprintf:
  3601                           	callstack 20
  3602   004FCA                     
  3603                           ;C:\Program Files\Microchip\xc8\v2.41\pic\sources\c99\common\doprnt.c: 1546: int vfprint
      +                          f(FILE *fp, const char *fmt, va_list ap);C:\Program Files\Microchip\xc8\v2.41\pic\source
      +                          s\c99\common\doprnt.c: 1547: {;C:\Program Files\Microchip\xc8\v2.41\pic\sources\c99\comm
      +                          on\doprnt.c: 1549:     char *cfmt;;C:\Program Files\Microchip\xc8\v2.41\pic\sources\c99\
      +                          common\doprnt.c: 1551:     cfmt = (char *)fmt;
  3604   004FCA  C095  F05E         	movff	vfprintf@fmt,vfprintf@cfmt
  3605   004FCE  C096  F05F         	movff	vfprintf@fmt+1,vfprintf@cfmt+1
  3606                           
  3607                           ;C:\Program Files\Microchip\xc8\v2.41\pic\sources\c99\common\doprnt.c: 1555:     while (
      +                          *cfmt) {
  3608   004FD2  EFF9  F027         	goto	l5196
  3609   004FD6                     l5194:
  3610                           
  3611                           ;C:\Program Files\Microchip\xc8\v2.41\pic\sources\c99\common\doprnt.c: 1559:    vfpfcnvr
      +                          t(fp, &cfmt, ap);
  3612   004FD6  C093  F056         	movff	vfprintf@fp,vfpfcnvrt@fp
  3613   004FDA  C094  F057         	movff	vfprintf@fp+1,vfpfcnvrt@fp+1
  3614   004FDE  0E5E               	movlw	low vfprintf@cfmt
  3615   004FE0  6E58               	movwf	vfpfcnvrt@fmt^0,c
  3616   004FE2  0E00               	movlw	high vfprintf@cfmt
  3617   004FE4  6E59               	movwf	(vfpfcnvrt@fmt+1)^0,c
  3618   004FE6  C097  F05A         	movff	vfprintf@ap,vfpfcnvrt@ap
  3619   004FEA  C098  F05B         	movff	vfprintf@ap+1,vfpfcnvrt@ap+1
  3620   004FEE  EC01  F019         	call	_vfpfcnvrt	;wreg free
  3621   004FF2                     l5196:
  3622                           
  3623                           ;C:\Program Files\Microchip\xc8\v2.41\pic\sources\c99\common\doprnt.c: 1555:     while (
      +                          *cfmt) {
  3624   004FF2  0060  F17B  FFF6   	movff	vfprintf@cfmt,tblptrl
  3625   004FF8  0060  F17F  FFF7   	movff	vfprintf@cfmt+1,tblptrh
  3626   004FFE                     	if	1	;Program memory is < 0x10000, tblptru is always zero
  3627   004FFE  6AF8               	clrf	tblptru,c
  3628   005000                     	endif
  3629   005000                     	if	0	;tblptru may be non-zero
  3630   005000                     	endif
  3631   005000  0008               	tblrd		*
  3632   005002  50F5               	movf	tablat,w,c
  3633   005004  0900               	iorlw	0
  3634   005006  A4D8               	btfss	status,2,c
  3635   005008  EF08  F028         	goto	u4751
  3636   00500C  EF0A  F028         	goto	u4750
  3637   005010                     u4751:
  3638   005010  EFEB  F027         	goto	l5194
  3639   005014                     u4750:
  3640   005014                     
  3641                           ;C:\Program Files\Microchip\xc8\v2.41\pic\sources\c99\common\doprnt.c: 1564:  return 0;
  3642   005014  0E00               	movlw	0
  3643   005016  0100               	movlb	0	; () banked
  3644   005018  6F94               	movwf	(?_vfprintf+1)& (0+255),b
  3645   00501A  0E00               	movlw	0
  3646   00501C  6F93               	movwf	?_vfprintf& (0+255),b
  3647   00501E                     
  3648                           ; BSR set to: 0
  3649   00501E  0012               	return		;funcret
  3650   005020                     __end_of_vfprintf:
  3651                           	callstack 0
  3652                           
  3653 ;; *************** function _vfpfcnvrt *****************
  3654 ;; Defined at:
  3655 ;;		line 1048 in file "C:\Program Files\Microchip\xc8\v2.41\pic\sources\c99\common\doprnt.c"
  3656 ;; Parameters:    Size  Location     Type
  3657 ;;  fp              2   85[COMRAM] PTR struct _IO_FILE
  3658 ;;		 -> sprintf@f(12), 
  3659 ;;  fmt             2   87[COMRAM] PTR PTR unsigned char 
  3660 ;;		 -> vfprintf@cfmt(2), 
  3661 ;;  ap              2   89[COMRAM] PTR PTR void 
  3662 ;;		 -> sprintf@ap(2), 
  3663 ;; Auto vars:     Size  Location     Type
  3664 ;;  convarg         4   44[BANK0 ] struct .
  3665 ;;  cp              2   49[BANK0 ] PTR unsigned char 
  3666 ;;		 -> STR_2(3), STR_1(3), 
  3667 ;;  i               2    0        int 
  3668 ;;  done            2    0        int 
  3669 ;;  c               1   48[BANK0 ] unsigned char 
  3670 ;; Return value:  Size  Location     Type
  3671 ;;                  1    wreg      void 
  3672 ;; Registers used:
  3673 ;;		wreg, fsr1l, fsr1h, fsr2l, fsr2h, status,2, status,0, tblptrl, tblptrh, tblptru, prodl, prodh, cstack
  3674 ;; Tracked objects:
  3675 ;;		On entry : 0/0
  3676 ;;		On exit  : 0/0
  3677 ;;		Unchanged: 0/0
  3678 ;; Data sizes:     COMRAM   BANK0   BANK1   BANK2   BANK3   BANK4   BANK5   BANK6   BANK7   BANK8   BANK9  BANK10  BANK1
      +1  BANK12  BANK13  BANK14  BANK15
  3679 ;;      Params:         6       0       0       0       0       0       0       0       0       0       0       0       
      +0       0       0       0       0
  3680 ;;      Locals:         0       7       0       0       0       0       0       0       0       0       0       0       
      +0       0       0       0       0
  3681 ;;      Temps:          2       0       0       0       0       0       0       0       0       0       0       0       
      +0       0       0       0       0
  3682 ;;      Totals:         8       7       0       0       0       0       0       0       0       0       0       0       
      +0       0       0       0       0
  3683 ;;Total ram usage:       15 bytes
  3684 ;; Hardware stack levels used: 1
  3685 ;; Hardware stack levels required when called: 7
  3686 ;; This function calls:
  3687 ;;		_dtoa
  3688 ;;		_efgtoa
  3689 ;;		_fputc
  3690 ;; This function is called by:
  3691 ;;		_vfprintf
  3692 ;; This function uses a non-reentrant model
  3693 ;;
  3694                           
  3695                           	psect	text4
  3696   003202                     __ptext4:
  3697                           	callstack 0
  3698   003202                     _vfpfcnvrt:
  3699                           	callstack 20
  3700   003202                     
  3701                           ;C:\Program Files\Microchip\xc8\v2.41\pic\sources\c99\common\doprnt.c: 1048: vfpfcnvrt(F
      +                          ILE *fp, char *fmt[], va_list ap);C:\Program Files\Microchip\xc8\v2.41\pic\sources\c99\c
      +                          ommon\doprnt.c: 1049: {;C:\Program Files\Microchip\xc8\v2.41\pic\sources\c99\common\dopr
      +                          nt.c: 1050:     char c, *cp;;C:\Program Files\Microchip\xc8\v2.41\pic\sources\c99\common
      +                          \doprnt.c: 1051:     int done, i;;C:\Program Files\Microchip\xc8\v2.41\pic\sources\c99\c
      +                          ommon\doprnt.c: 1059:  } convarg;;C:\Program Files\Microchip\xc8\v2.41\pic\sources\c99\c
      +                          ommon\doprnt.c: 1062:     if ((*fmt)[0] == '%') {
  3702   003202  0060  F163  FFD9   	movff	vfpfcnvrt@fmt,fsr2l
  3703   003208  0060  F167  FFDA   	movff	vfpfcnvrt@fmt+1,fsr2h
  3704   00320E  006F FF7B FFF6     	movff	postinc2,tblptrl
  3705   003214  006F FF77 FFF7     	movff	postdec2,tblptrh
  3706   00321A                     	if	1	;Program memory is < 0x10000, tblptru is always zero
  3707   00321A  6AF8               	clrf	tblptru,c
  3708   00321C                     	endif
  3709   00321C                     	if	0	;tblptru may be non-zero
  3710   00321C                     	endif
  3711   00321C  0008               	tblrd		*
  3712   00321E  50F5               	movf	tablat,w,c
  3713   003220  0A25               	xorlw	37
  3714   003222  A4D8               	btfss	status,2,c
  3715   003224  EF16  F019         	goto	u4671
  3716   003228  EF18  F019         	goto	u4670
  3717   00322C                     u4671:
  3718   00322C  EF93  F01A         	goto	l5118
  3719   003230                     u4670:
  3720   003230                     
  3721                           ;C:\Program Files\Microchip\xc8\v2.41\pic\sources\c99\common\doprnt.c: 1063:         ++*
      +                          fmt;
  3722   003230  0060  F163  FFD9   	movff	vfpfcnvrt@fmt,fsr2l
  3723   003236  0060  F167  FFDA   	movff	vfpfcnvrt@fmt+1,fsr2h
  3724   00323C  2ADE               	incf	postinc2,f,c
  3725   00323E  0E00               	movlw	0
  3726   003240  22DD               	addwfc	postdec2,f,c
  3727   003242                     
  3728                           ;C:\Program Files\Microchip\xc8\v2.41\pic\sources\c99\common\doprnt.c: 1065:         fla
      +                          gs = width = 0;
  3729   003242  0E00               	movlw	0
  3730   003244  0100               	movlb	0	; () banked
  3731   003246  6FE0               	movwf	(_width+1)& (0+255),b
  3732   003248  0E00               	movlw	0
  3733   00324A  6FDF               	movwf	_width& (0+255),b
  3734   00324C  C0DF  F0F5         	movff	_width,_flags
  3735   003250                     
  3736                           ; BSR set to: 0
  3737                           ;C:\Program Files\Microchip\xc8\v2.41\pic\sources\c99\common\doprnt.c: 1066:         pre
      +                          c = -1;
  3738   003250  69E1               	setf	_prec& (0+255),b
  3739   003252  69E2               	setf	(_prec+1)& (0+255),b
  3740   003254                     
  3741                           ; BSR set to: 0
  3742                           ;C:\Program Files\Microchip\xc8\v2.41\pic\sources\c99\common\doprnt.c: 1143:   cp = *fmt
      +                          ;
  3743   003254  0060  F163  FFD9   	movff	vfpfcnvrt@fmt,fsr2l
  3744   00325A  0060  F167  FFDA   	movff	vfpfcnvrt@fmt+1,fsr2h
  3745   003260  006F FF78  F091    	movff	postinc2,vfpfcnvrt@cp
  3746   003266  006F FF74  F092    	movff	postdec2,vfpfcnvrt@cp+1
  3747   00326C                     
  3748                           ; BSR set to: 0
  3749                           ;C:\Program Files\Microchip\xc8\v2.41\pic\sources\c99\common\doprnt.c: 1213:   if (*cp =
      +                          = 'd' || *cp == 'i') {
  3750   00326C  0060  F247  FFF6   	movff	vfpfcnvrt@cp,tblptrl
  3751   003272  0060  F24B  FFF7   	movff	vfpfcnvrt@cp+1,tblptrh
  3752   003278                     	if	1	;Program memory is < 0x10000, tblptru is always zero
  3753   003278  6AF8               	clrf	tblptru,c
  3754   00327A                     	endif
  3755   00327A                     	if	0	;tblptru may be non-zero
  3756   00327A                     	endif
  3757   00327A  0008               	tblrd		*
  3758   00327C  50F5               	movf	tablat,w,c
  3759   00327E  0A64               	xorlw	100
  3760   003280  B4D8               	btfsc	status,2,c
  3761   003282  EF45  F019         	goto	u4681
  3762   003286  EF47  F019         	goto	u4680
  3763   00328A                     u4681:
  3764   00328A  EF58  F019         	goto	l5074
  3765   00328E                     u4680:
  3766   00328E                     
  3767                           ; BSR set to: 0
  3768   00328E  0060  F247  FFF6   	movff	vfpfcnvrt@cp,tblptrl
  3769   003294  0060  F24B  FFF7   	movff	vfpfcnvrt@cp+1,tblptrh
  3770   00329A                     	if	1	;Program memory is < 0x10000, tblptru is always zero
  3771   00329A  6AF8               	clrf	tblptru,c
  3772   00329C                     	endif
  3773   00329C                     	if	0	;tblptru may be non-zero
  3774   00329C                     	endif
  3775   00329C  0008               	tblrd		*
  3776   00329E  50F5               	movf	tablat,w,c
  3777   0032A0  0A69               	xorlw	105
  3778   0032A2  A4D8               	btfss	status,2,c
  3779   0032A4  EF56  F019         	goto	u4691
  3780   0032A8  EF58  F019         	goto	u4690
  3781   0032AC                     u4691:
  3782   0032AC  EF92  F019         	goto	l5080
  3783   0032B0                     u4690:
  3784   0032B0                     l5074:
  3785                           
  3786                           ; BSR set to: 0
  3787                           ;C:\Program Files\Microchip\xc8\v2.41\pic\sources\c99\common\doprnt.c: 1256:    convarg.
      +                          sint = (vfpf_sint_t)(int)(*(int *)__va_arg(*(int **)ap, (int)0));
  3788   0032B0  0060  F16B  FFD9   	movff	vfpfcnvrt@ap,fsr2l
  3789   0032B6  0060  F16F  FFDA   	movff	vfpfcnvrt@ap+1,fsr2h
  3790   0032BC  006F FF7C  F05C    	movff	indf2,??_vfpfcnvrt
  3791   0032C2  0E02               	movlw	2
  3792   0032C4  26DE               	addwf	postinc2,f,c
  3793   0032C6  006F FF7C  F05D    	movff	indf2,??_vfpfcnvrt+1
  3794   0032CC  0E00               	movlw	0
  3795   0032CE  22DD               	addwfc	postdec2,f,c
  3796   0032D0  0060  F173  FFD9   	movff	??_vfpfcnvrt,fsr2l
  3797   0032D6  0060  F177  FFDA   	movff	??_vfpfcnvrt+1,fsr2h
  3798   0032DC  006F FF78  F08C    	movff	postinc2,vfpfcnvrt@convarg
  3799   0032E2  006F FF74  F08D    	movff	postdec2,vfpfcnvrt@convarg+1
  3800                           
  3801                           ;C:\Program Files\Microchip\xc8\v2.41\pic\sources\c99\common\doprnt.c: 1258:    *fmt = c
      +                          p+1;
  3802   0032E8  0E01               	movlw	1
  3803   0032EA  2591               	addwf	vfpfcnvrt@cp& (0+255),w,b
  3804   0032EC  6E5C               	movwf	??_vfpfcnvrt^0,c
  3805   0032EE  0E00               	movlw	0
  3806   0032F0  2192               	addwfc	(vfpfcnvrt@cp+1)& (0+255),w,b
  3807   0032F2  6E5D               	movwf	(??_vfpfcnvrt+1)^0,c
  3808   0032F4  0060  F163  FFD9   	movff	vfpfcnvrt@fmt,fsr2l
  3809   0032FA  0060  F167  FFDA   	movff	vfpfcnvrt@fmt+1,fsr2h
  3810   003300  0060  F173  FFDE   	movff	??_vfpfcnvrt,postinc2
  3811   003306  0060  F177  FFDD   	movff	??_vfpfcnvrt+1,postdec2
  3812   00330C                     
  3813                           ; BSR set to: 0
  3814                           ;C:\Program Files\Microchip\xc8\v2.41\pic\sources\c99\common\doprnt.c: 1259:    return (
      +                          void) dtoa(fp, convarg.sint);;	Return value of _vfpfcnvrt is never used
  3815   00330C  C056  F01C         	movff	vfpfcnvrt@fp,dtoa@fp
  3816   003310  C057  F01D         	movff	vfpfcnvrt@fp+1,dtoa@fp+1
  3817   003314  C08C  F01E         	movff	vfpfcnvrt@convarg,dtoa@d
  3818   003318  C08D  F01F         	movff	vfpfcnvrt@convarg+1,dtoa@d+1
  3819   00331C  EC90  F01C         	call	_dtoa	;wreg free
  3820   003320  EFAC  F01A         	goto	l1679
  3821   003324                     l5080:
  3822                           
  3823                           ; BSR set to: 0
  3824                           ;C:\Program Files\Microchip\xc8\v2.41\pic\sources\c99\common\doprnt.c: 1418:   cp = *fmt
      +                          ;
  3825   003324  0060  F163  FFD9   	movff	vfpfcnvrt@fmt,fsr2l
  3826   00332A  0060  F167  FFDA   	movff	vfpfcnvrt@fmt+1,fsr2h
  3827   003330  006F FF78  F091    	movff	postinc2,vfpfcnvrt@cp
  3828   003336  006F FF74  F092    	movff	postdec2,vfpfcnvrt@cp+1
  3829   00333C                     
  3830                           ; BSR set to: 0
  3831                           ;C:\Program Files\Microchip\xc8\v2.41\pic\sources\c99\common\doprnt.c: 1419:   c = *cp;
  3832   00333C  0060  F247  FFF6   	movff	vfpfcnvrt@cp,tblptrl
  3833   003342  0060  F24B  FFF7   	movff	vfpfcnvrt@cp+1,tblptrh
  3834   003348                     	if	1	;Program memory is < 0x10000, tblptru is always zero
  3835   003348  6AF8               	clrf	tblptru,c
  3836   00334A                     	endif
  3837   00334A                     	if	0	;tblptru may be non-zero
  3838   00334A                     	endif
  3839   00334A  0008               	tblrd		*
  3840   00334C  006F FFD4  F090    	movff	tablat,vfpfcnvrt@c
  3841                           
  3842                           ;C:\Program Files\Microchip\xc8\v2.41\pic\sources\c99\common\doprnt.c: 1420:   switch(c)
      +                           {
  3843   003352  EFB7  F019         	goto	l5092
  3844   003356                     l5084:
  3845                           
  3846                           ; BSR set to: 0
  3847                           ;C:\Program Files\Microchip\xc8\v2.41\pic\sources\c99\common\doprnt.c: 1424:     cp++;
  3848   003356  4B91               	infsnz	vfpfcnvrt@cp& (0+255),f,b
  3849   003358  2B92               	incf	(vfpfcnvrt@cp+1)& (0+255),f,b
  3850                           
  3851                           ;C:\Program Files\Microchip\xc8\v2.41\pic\sources\c99\common\doprnt.c: 1425:     break;
  3852   00335A  EFD0  F019         	goto	l5094
  3853   00335E                     l5086:
  3854                           
  3855                           ; BSR set to: 0
  3856                           ;C:\Program Files\Microchip\xc8\v2.41\pic\sources\c99\common\doprnt.c: 1450:     c = 'l'
      +                          ;
  3857   00335E  0E6C               	movlw	108
  3858   003360  6F90               	movwf	vfpfcnvrt@c& (0+255),b
  3859                           
  3860                           ;C:\Program Files\Microchip\xc8\v2.41\pic\sources\c99\common\doprnt.c: 1451:     break;
  3861   003362  EFD0  F019         	goto	l5094
  3862   003366                     l5088:
  3863                           
  3864                           ; BSR set to: 0
  3865                           ;C:\Program Files\Microchip\xc8\v2.41\pic\sources\c99\common\doprnt.c: 1453:     c = 0;
  3866   003366  0E00               	movlw	0
  3867   003368  6F90               	movwf	vfpfcnvrt@c& (0+255),b
  3868                           
  3869                           ;C:\Program Files\Microchip\xc8\v2.41\pic\sources\c99\common\doprnt.c: 1454:     break;
  3870   00336A  EFD0  F019         	goto	l5094
  3871   00336E                     l5092:
  3872                           
  3873                           ; BSR set to: 0
  3874   00336E  5190               	movf	vfpfcnvrt@c& (0+255),w,b
  3875   003370  6E5C               	movwf	??_vfpfcnvrt^0,c
  3876   003372  6A5D               	clrf	(??_vfpfcnvrt+1)^0,c
  3877                           
  3878                           ; Switch on 2 bytes has been partitioned into a top level switch of size 1, and 1 sub-sw
      +                          itches
  3879                           ; Switch size 1, requested type "simple"
  3880                           ; Number of cases is 1, Range of values is 0 to 0
  3881                           ; switch strategies available:
  3882                           ; Name         Instructions Cycles
  3883                           ; simple_byte            4     3 (average)
  3884                           ;	Chosen strategy is simple_byte
  3885   003374  505D               	movf	(??_vfpfcnvrt+1)^0,w,c
  3886   003376  0A00               	xorlw	0	; case 0
  3887   003378  B4D8               	btfsc	status,2,c
  3888   00337A  EFC1  F019         	goto	l6264
  3889   00337E  EFB3  F019         	goto	l5088
  3890   003382                     l6264:
  3891                           
  3892                           ; BSR set to: 0
  3893                           ; Switch size 1, requested type "simple"
  3894                           ; Number of cases is 3, Range of values is 76 to 108
  3895                           ; switch strategies available:
  3896                           ; Name         Instructions Cycles
  3897                           ; simple_byte           10     6 (average)
  3898                           ;	Chosen strategy is simple_byte
  3899   003382  505C               	movf	??_vfpfcnvrt^0,w,c
  3900   003384  0A4C               	xorlw	76	; case 76
  3901   003386  B4D8               	btfsc	status,2,c
  3902   003388  EFAB  F019         	goto	l5084
  3903   00338C  0A2A               	xorlw	42	; case 102
  3904   00338E  B4D8               	btfsc	status,2,c
  3905   003390  EFAF  F019         	goto	l5086
  3906   003394  0A0A               	xorlw	10	; case 108
  3907   003396  B4D8               	btfsc	status,2,c
  3908   003398  EFAB  F019         	goto	l5084
  3909   00339C  EFB3  F019         	goto	l5088
  3910   0033A0                     l5094:
  3911                           
  3912                           ; BSR set to: 0
  3913   0033A0  0060  F247  FFF6   	movff	vfpfcnvrt@cp,tblptrl
  3914   0033A6  0060  F24B  FFF7   	movff	vfpfcnvrt@cp+1,tblptrh
  3915   0033AC                     	if	1	;Program memory is < 0x10000, tblptru is always zero
  3916   0033AC  6AF8               	clrf	tblptru,c
  3917   0033AE                     	endif
  3918   0033AE                     	if	0	;tblptru may be non-zero
  3919   0033AE                     	endif
  3920   0033AE  0008               	tblrd		*
  3921   0033B0  50F5               	movf	tablat,w,c
  3922   0033B2  0A66               	xorlw	102
  3923   0033B4  A4D8               	btfss	status,2,c
  3924   0033B6  EFDF  F019         	goto	u4701
  3925   0033BA  EFE1  F019         	goto	u4700
  3926   0033BE                     u4701:
  3927   0033BE  EF88  F01A         	goto	l5114
  3928   0033C2                     u4700:
  3929   0033C2  EF2B  F01A         	goto	l5102
  3930   0033C6                     l5096:
  3931                           
  3932                           ; BSR set to: 0
  3933                           ;C:\Program Files\Microchip\xc8\v2.41\pic\sources\c99\common\doprnt.c: 1485:      convar
      +                          g.f = (long double)(*(double *)__va_arg(*(double **)ap, (double)0));
  3934   0033C6  0060  F16B  FFD9   	movff	vfpfcnvrt@ap,fsr2l
  3935   0033CC  0060  F16F  FFDA   	movff	vfpfcnvrt@ap+1,fsr2h
  3936   0033D2  006F FF7C  F05C    	movff	indf2,??_vfpfcnvrt
  3937   0033D8  0E04               	movlw	4
  3938   0033DA  26DE               	addwf	postinc2,f,c
  3939   0033DC  006F FF7C  F05D    	movff	indf2,??_vfpfcnvrt+1
  3940   0033E2  0E00               	movlw	0
  3941   0033E4  22DD               	addwfc	postdec2,f,c
  3942   0033E6  0060  F173  FFD9   	movff	??_vfpfcnvrt,fsr2l
  3943   0033EC  0060  F177  FFDA   	movff	??_vfpfcnvrt+1,fsr2h
  3944   0033F2  006F FF78  F08C    	movff	postinc2,vfpfcnvrt@convarg
  3945   0033F8  006F FF78  F08D    	movff	postinc2,vfpfcnvrt@convarg+1
  3946   0033FE  006F FF78  F08E    	movff	postinc2,vfpfcnvrt@convarg+2
  3947   003404  006F FF78  F08F    	movff	postinc2,vfpfcnvrt@convarg+3
  3948                           
  3949                           ;C:\Program Files\Microchip\xc8\v2.41\pic\sources\c99\common\doprnt.c: 1486:      break;
  3950   00340A  EF40  F01A         	goto	l5104
  3951   00340E                     l5098:
  3952                           
  3953                           ; BSR set to: 0
  3954                           ;C:\Program Files\Microchip\xc8\v2.41\pic\sources\c99\common\doprnt.c: 1488:      convar
      +                          g.f = (long double)(*(long double *)__va_arg(*(long double **)ap, (long double)0));
  3955   00340E  0060  F16B  FFD9   	movff	vfpfcnvrt@ap,fsr2l
  3956   003414  0060  F16F  FFDA   	movff	vfpfcnvrt@ap+1,fsr2h
  3957   00341A  006F FF7C  F05C    	movff	indf2,??_vfpfcnvrt
  3958   003420  0E04               	movlw	4
  3959   003422  26DE               	addwf	postinc2,f,c
  3960   003424  006F FF7C  F05D    	movff	indf2,??_vfpfcnvrt+1
  3961   00342A  0E00               	movlw	0
  3962   00342C  22DD               	addwfc	postdec2,f,c
  3963   00342E  0060  F173  FFD9   	movff	??_vfpfcnvrt,fsr2l
  3964   003434  0060  F177  FFDA   	movff	??_vfpfcnvrt+1,fsr2h
  3965   00343A  006F FF78  F08C    	movff	postinc2,vfpfcnvrt@convarg
  3966   003440  006F FF78  F08D    	movff	postinc2,vfpfcnvrt@convarg+1
  3967   003446  006F FF78  F08E    	movff	postinc2,vfpfcnvrt@convarg+2
  3968   00344C  006F FF78  F08F    	movff	postinc2,vfpfcnvrt@convarg+3
  3969                           
  3970                           ;C:\Program Files\Microchip\xc8\v2.41\pic\sources\c99\common\doprnt.c: 1489:      break;
  3971   003452  EF40  F01A         	goto	l5104
  3972   003456                     l5102:
  3973                           
  3974                           ; BSR set to: 0
  3975   003456  5190               	movf	vfpfcnvrt@c& (0+255),w,b
  3976   003458  6E5C               	movwf	??_vfpfcnvrt^0,c
  3977   00345A  6A5D               	clrf	(??_vfpfcnvrt+1)^0,c
  3978                           
  3979                           ; Switch on 2 bytes has been partitioned into a top level switch of size 1, and 1 sub-sw
      +                          itches
  3980                           ; Switch size 1, requested type "simple"
  3981                           ; Number of cases is 1, Range of values is 0 to 0
  3982                           ; switch strategies available:
  3983                           ; Name         Instructions Cycles
  3984                           ; simple_byte            4     3 (average)
  3985                           ;	Chosen strategy is simple_byte
  3986   00345C  505D               	movf	(??_vfpfcnvrt+1)^0,w,c
  3987   00345E  0A00               	xorlw	0	; case 0
  3988   003460  B4D8               	btfsc	status,2,c
  3989   003462  EF35  F01A         	goto	l6266
  3990   003466  EF40  F01A         	goto	l5104
  3991   00346A                     l6266:
  3992                           
  3993                           ; BSR set to: 0
  3994                           ; Switch size 1, requested type "simple"
  3995                           ; Number of cases is 2, Range of values is 76 to 108
  3996                           ; switch strategies available:
  3997                           ; Name         Instructions Cycles
  3998                           ; simple_byte            7     4 (average)
  3999                           ;	Chosen strategy is simple_byte
  4000   00346A  505C               	movf	??_vfpfcnvrt^0,w,c
  4001   00346C  0A4C               	xorlw	76	; case 76
  4002   00346E  B4D8               	btfsc	status,2,c
  4003   003470  EF07  F01A         	goto	l5098
  4004   003474  0A20               	xorlw	32	; case 108
  4005   003476  B4D8               	btfsc	status,2,c
  4006   003478  EFE3  F019         	goto	l5096
  4007   00347C  EF40  F01A         	goto	l5104
  4008   003480                     l5104:
  4009                           
  4010                           ; BSR set to: 0
  4011                           ;C:\Program Files\Microchip\xc8\v2.41\pic\sources\c99\common\doprnt.c: 1491:    *fmt = c
      +                          p+1;
  4012   003480  0E01               	movlw	1
  4013   003482  2591               	addwf	vfpfcnvrt@cp& (0+255),w,b
  4014   003484  6E5C               	movwf	??_vfpfcnvrt^0,c
  4015   003486  0E00               	movlw	0
  4016   003488  2192               	addwfc	(vfpfcnvrt@cp+1)& (0+255),w,b
  4017   00348A  6E5D               	movwf	(??_vfpfcnvrt+1)^0,c
  4018   00348C  0060  F163  FFD9   	movff	vfpfcnvrt@fmt,fsr2l
  4019   003492  0060  F167  FFDA   	movff	vfpfcnvrt@fmt+1,fsr2h
  4020   003498  0060  F173  FFDE   	movff	??_vfpfcnvrt,postinc2
  4021   00349E  0060  F177  FFDD   	movff	??_vfpfcnvrt+1,postdec2
  4022                           
  4023                           ;C:\Program Files\Microchip\xc8\v2.41\pic\sources\c99\common\doprnt.c: 1492:    switch (
      +                          *cp) {
  4024   0034A4  EF6F  F01A         	goto	l5112
  4025   0034A8                     l5106:
  4026                           
  4027                           ; BSR set to: 0
  4028                           ;C:\Program Files\Microchip\xc8\v2.41\pic\sources\c99\common\doprnt.c: 1519:      return
      +                           (void) efgtoa(fp, convarg.f, *cp);;	Return value of _vfpfcnvrt is never used
  4029   0034A8  C056  F04D         	movff	vfpfcnvrt@fp,efgtoa@fp
  4030   0034AC  C057  F04E         	movff	vfpfcnvrt@fp+1,efgtoa@fp+1
  4031   0034B0  C08C  F04F         	movff	vfpfcnvrt@convarg,efgtoa@f
  4032   0034B4  C08D  F050         	movff	vfpfcnvrt@convarg+1,efgtoa@f+1
  4033   0034B8  C08E  F051         	movff	vfpfcnvrt@convarg+2,efgtoa@f+2
  4034   0034BC  C08F  F052         	movff	vfpfcnvrt@convarg+3,efgtoa@f+3
  4035   0034C0  0060  F247  FFF6   	movff	vfpfcnvrt@cp,tblptrl
  4036   0034C6  0060  F24B  FFF7   	movff	vfpfcnvrt@cp+1,tblptrh
  4037   0034CC                     	if	1	;Program memory is < 0x10000, tblptru is always zero
  4038   0034CC  6AF8               	clrf	tblptru,c
  4039   0034CE                     	endif
  4040   0034CE                     	if	0	;tblptru may be non-zero
  4041   0034CE                     	endif
  4042   0034CE  0008               	tblrd		*
  4043   0034D0  006F FFD4  F053    	movff	tablat,efgtoa@c
  4044   0034D6  ECB0  F00D         	call	_efgtoa	;wreg free
  4045   0034DA  EFAC  F01A         	goto	l1679
  4046   0034DE                     l5112:
  4047                           
  4048                           ; BSR set to: 0
  4049   0034DE  0060  F247  FFF6   	movff	vfpfcnvrt@cp,tblptrl
  4050   0034E4  0060  F24B  FFF7   	movff	vfpfcnvrt@cp+1,tblptrh
  4051   0034EA                     	if	1	;Program memory is < 0x10000, tblptru is always zero
  4052   0034EA  6AF8               	clrf	tblptru,c
  4053   0034EC                     	endif
  4054   0034EC                     	if	0	;tblptru may be non-zero
  4055   0034EC                     	endif
  4056   0034EC  0008               	tblrd		*
  4057   0034EE  50F5               	movf	tablat,w,c
  4058   0034F0  6E5C               	movwf	??_vfpfcnvrt^0,c
  4059   0034F2  6A5D               	clrf	(??_vfpfcnvrt+1)^0,c
  4060                           
  4061                           ; Switch on 2 bytes has been partitioned into a top level switch of size 1, and 1 sub-sw
      +                          itches
  4062                           ; Switch size 1, requested type "simple"
  4063                           ; Number of cases is 1, Range of values is 0 to 0
  4064                           ; switch strategies available:
  4065                           ; Name         Instructions Cycles
  4066                           ; simple_byte            4     3 (average)
  4067                           ;	Chosen strategy is simple_byte
  4068   0034F4  505D               	movf	(??_vfpfcnvrt+1)^0,w,c
  4069   0034F6  0A00               	xorlw	0	; case 0
  4070   0034F8  B4D8               	btfsc	status,2,c
  4071   0034FA  EF81  F01A         	goto	l6268
  4072   0034FE  EF88  F01A         	goto	l5114
  4073   003502                     l6268:
  4074                           
  4075                           ; BSR set to: 0
  4076                           ; Switch size 1, requested type "simple"
  4077                           ; Number of cases is 1, Range of values is 102 to 102
  4078                           ; switch strategies available:
  4079                           ; Name         Instructions Cycles
  4080                           ; simple_byte            4     3 (average)
  4081                           ;	Chosen strategy is simple_byte
  4082   003502  505C               	movf	??_vfpfcnvrt^0,w,c
  4083   003504  0A66               	xorlw	102	; case 102
  4084   003506  B4D8               	btfsc	status,2,c
  4085   003508  EF54  F01A         	goto	l5106
  4086   00350C  EF88  F01A         	goto	l5114
  4087   003510                     l5114:
  4088                           
  4089                           ;C:\Program Files\Microchip\xc8\v2.41\pic\sources\c99\common\doprnt.c: 1535:         ++*
      +                          fmt;
  4090   003510  0060  F163  FFD9   	movff	vfpfcnvrt@fmt,fsr2l
  4091   003516  0060  F167  FFDA   	movff	vfpfcnvrt@fmt+1,fsr2h
  4092   00351C  2ADE               	incf	postinc2,f,c
  4093   00351E  0E00               	movlw	0
  4094   003520  22DD               	addwfc	postdec2,f,c
  4095   003522  EFAC  F01A         	goto	l1679
  4096   003526                     l5118:
  4097                           
  4098                           ;C:\Program Files\Microchip\xc8\v2.41\pic\sources\c99\common\doprnt.c: 1540:     fputc((
      +                          int)(*fmt)[0], fp);
  4099   003526  0060  F163  FFD9   	movff	vfpfcnvrt@fmt,fsr2l
  4100   00352C  0060  F167  FFDA   	movff	vfpfcnvrt@fmt+1,fsr2h
  4101   003532  006F FF7B FFF6     	movff	postinc2,tblptrl
  4102   003538  006F FF77 FFF7     	movff	postdec2,tblptrh
  4103   00353E                     	if	1	;Program memory is < 0x10000, tblptru is always zero
  4104   00353E  6AF8               	clrf	tblptru,c
  4105   003540                     	endif
  4106   003540                     	if	0	;tblptru may be non-zero
  4107   003540                     	endif
  4108   003540  0008               	tblrd		*
  4109   003542  50F5               	movf	tablat,w,c
  4110   003544  6E01               	movwf	fputc@c^0,c
  4111   003546  6A02               	clrf	(fputc@c+1)^0,c
  4112   003548  C056  F003         	movff	vfpfcnvrt@fp,fputc@fp
  4113   00354C  C057  F004         	movff	vfpfcnvrt@fp+1,fputc@fp+1
  4114   003550  ECC4  F021         	call	_fputc	;wreg free
  4115   003554  EF88  F01A         	goto	l5114
  4116   003558                     l1679:
  4117   003558  0012               	return		;funcret
  4118   00355A                     __end_of_vfpfcnvrt:
  4119                           	callstack 0
  4120                           
  4121 ;; *************** function _efgtoa *****************
  4122 ;; Defined at:
  4123 ;;		line 531 in file "C:\Program Files\Microchip\xc8\v2.41\pic\sources\c99\common\doprnt.c"
  4124 ;; Parameters:    Size  Location     Type
  4125 ;;  fp              2   76[COMRAM] PTR struct _IO_FILE
  4126 ;;		 -> sprintf@f(12), 
  4127 ;;  f               4   78[COMRAM] PTR struct _IO_FILE
  4128 ;;  c               1   82[COMRAM] unsigned char 
  4129 ;; Auto vars:     Size  Location     Type
  4130 ;;  u               4   40[BANK0 ] struct flui
  4131 ;;  g               4   36[BANK0 ] struct flui
  4132 ;;  l               4   29[BANK0 ] struct flui
  4133 ;;  h               4   25[BANK0 ] struct flui
  4134 ;;  ou              4   19[BANK0 ] struct flui
  4135 ;;  n               2   34[BANK0 ] int 
  4136 ;;  i               2   23[BANK0 ] int 
  4137 ;;  w               2   17[BANK0 ] int 
  4138 ;;  e               2   15[BANK0 ] int 
  4139 ;;  m               2   13[BANK0 ] int 
  4140 ;;  d               2   11[BANK0 ] int 
  4141 ;;  t               2    4[BANK0 ] int 
  4142 ;;  p               2    2[BANK0 ] int 
  4143 ;;  ne              2    0[BANK0 ] int 
  4144 ;;  sign            1   33[BANK0 ] unsigned char 
  4145 ;;  nmode           1   10[BANK0 ] unsigned char 
  4146 ;;  mode            1    9[BANK0 ] unsigned char 
  4147 ;;  pp              1    8[BANK0 ] unsigned char 
  4148 ;;  esign           1    0        unsigned char 
  4149 ;; Return value:  Size  Location     Type
  4150 ;;                  1    wreg      void 
  4151 ;; Registers used:
  4152 ;;		wreg, fsr1l, fsr1h, fsr2l, fsr2h, status,2, status,0, tblptrl, tblptrh, tblptru, prodl, prodh, cstack
  4153 ;; Tracked objects:
  4154 ;;		On entry : 0/0
  4155 ;;		On exit  : 0/0
  4156 ;;		Unchanged: 0/0
  4157 ;; Data sizes:     COMRAM   BANK0   BANK1   BANK2   BANK3   BANK4   BANK5   BANK6   BANK7   BANK8   BANK9  BANK10  BANK1
      +1  BANK12  BANK13  BANK14  BANK15
  4158 ;;      Params:         7       0       0       0       0       0       0       0       0       0       0       0       
      +0       0       0       0       0
  4159 ;;      Locals:         0      44       0       0       0       0       0       0       0       0       0       0       
      +0       0       0       0       0
  4160 ;;      Temps:          2       0       0       0       0       0       0       0       0       0       0       0       
      +0       0       0       0       0
  4161 ;;      Totals:         9      44       0       0       0       0       0       0       0       0       0       0       
      +0       0       0       0       0
  4162 ;;Total ram usage:       53 bytes
  4163 ;; Hardware stack levels used: 1
  4164 ;; Hardware stack levels required when called: 6
  4165 ;; This function calls:
  4166 ;;		___fladd
  4167 ;;		___fldiv
  4168 ;;		___fleq
  4169 ;;		___flge
  4170 ;;		___flmul
  4171 ;;		___flneg
  4172 ;;		___flsub
  4173 ;;		___fltol
  4174 ;;		___fpclassifyf
  4175 ;;		_floorf
  4176 ;;		_labs
  4177 ;;		_memcpy
  4178 ;;		_pad
  4179 ;;		_strcpy
  4180 ;; This function is called by:
  4181 ;;		_vfpfcnvrt
  4182 ;; This function uses a non-reentrant model
  4183 ;;
  4184                           
  4185                           	psect	text5
  4186   001B60                     __ptext5:
  4187                           	callstack 0
  4188   001B60                     _efgtoa:
  4189                           	callstack 20
  4190   001B60                     
  4191                           ;C:\Program Files\Microchip\xc8\v2.41\pic\sources\c99\common\doprnt.c: 531: static void 
      +                          efgtoa(FILE *fp, long double f, char c);C:\Program Files\Microchip\xc8\v2.41\pic\sources
      +                          \c99\common\doprnt.c: 532: {;C:\Program Files\Microchip\xc8\v2.41\pic\sources\c99\common
      +                          \doprnt.c: 533:     char mode, nmode, pp, sign, esign;;C:\Program Files\Microchip\xc8\v2
      +                          .41\pic\sources\c99\common\doprnt.c: 534:     int d, e, i, m, n, ne, p, t, w;;C:\Program
      +                           Files\Microchip\xc8\v2.41\pic\sources\c99\common\doprnt.c: 535:     long double h, l;
  4192   001B60  0E00               	movlw	0
  4193   001B62  0100               	movlb	0	; () banked
  4194   001B64  6F81               	movwf	efgtoa@sign& (0+255),b
  4195   001B66                     
  4196                           ; BSR set to: 0
  4197                           ;C:\Program Files\Microchip\xc8\v2.41\pic\sources\c99\common\doprnt.c: 540:     g.f = f;
  4198   001B66  C04F  F084         	movff	efgtoa@f,efgtoa@g
  4199   001B6A  C050  F085         	movff	efgtoa@f+1,efgtoa@g+1
  4200   001B6E  C051  F086         	movff	efgtoa@f+2,efgtoa@g+2
  4201   001B72  C052  F087         	movff	efgtoa@f+3,efgtoa@g+3
  4202   001B76                     
  4203                           ; BSR set to: 0
  4204                           ;C:\Program Files\Microchip\xc8\v2.41\pic\sources\c99\common\doprnt.c: 541:     if (g.f 
      +                          < 0.0) {
  4205   001B76  BF87               	btfsc	(efgtoa@g+3)& (0+255),7,b
  4206   001B78  EFC2  F00D         	goto	u4350
  4207   001B7C  EFC0  F00D         	goto	u4351
  4208   001B80                     u4351:
  4209   001B80  EFD6  F00D         	goto	l4848
  4210   001B84                     u4350:
  4211   001B84                     
  4212                           ; BSR set to: 0
  4213                           ;C:\Program Files\Microchip\xc8\v2.41\pic\sources\c99\common\doprnt.c: 542:         sign
      +                           = 1;
  4214   001B84  0E01               	movlw	1
  4215   001B86  6F81               	movwf	efgtoa@sign& (0+255),b
  4216   001B88                     
  4217                           ; BSR set to: 0
  4218                           ;C:\Program Files\Microchip\xc8\v2.41\pic\sources\c99\common\doprnt.c: 543:         g.f 
      +                          = -g.f;
  4219   001B88  C084  F001         	movff	efgtoa@g,___flneg@f1
  4220   001B8C  C085  F002         	movff	efgtoa@g+1,___flneg@f1+1
  4221   001B90  C086  F003         	movff	efgtoa@g+2,___flneg@f1+2
  4222   001B94  C087  F004         	movff	efgtoa@g+3,___flneg@f1+3
  4223   001B98  ECE7  F028         	call	___flneg	;wreg free
  4224   001B9C  C001  F084         	movff	?___flneg,efgtoa@g
  4225   001BA0  C002  F085         	movff	?___flneg+1,efgtoa@g+1
  4226   001BA4  C003  F086         	movff	?___flneg+2,efgtoa@g+2
  4227   001BA8  C004  F087         	movff	?___flneg+3,efgtoa@g+3
  4228   001BAC                     l4848:
  4229                           
  4230                           ;C:\Program Files\Microchip\xc8\v2.41\pic\sources\c99\common\doprnt.c: 547:     n = 0;
  4231   001BAC  0E00               	movlw	0
  4232   001BAE  0100               	movlb	0	; () banked
  4233   001BB0  6F83               	movwf	(efgtoa@n+1)& (0+255),b
  4234   001BB2  0E00               	movlw	0
  4235   001BB4  6F82               	movwf	efgtoa@n& (0+255),b
  4236   001BB6                     
  4237                           ; BSR set to: 0
  4238                           ;C:\Program Files\Microchip\xc8\v2.41\pic\sources\c99\common\doprnt.c: 548:     w = widt
      +                          h;
  4239   001BB6  C0DF  F071         	movff	_width,efgtoa@w
  4240   001BBA  C0E0  F072         	movff	_width+1,efgtoa@w+1
  4241   001BBE                     
  4242                           ; BSR set to: 0
  4243                           ;C:\Program Files\Microchip\xc8\v2.41\pic\sources\c99\common\doprnt.c: 549:     if (sign
  4244   001BBE  5181               	movf	efgtoa@sign& (0+255),w,b
  4245   001BC0  B4D8               	btfsc	status,2,c
  4246   001BC2  EFE5  F00D         	goto	u4361
  4247   001BC6  EFE7  F00D         	goto	u4360
  4248   001BCA                     u4361:
  4249   001BCA  EFFB  F00D         	goto	l4862
  4250   001BCE                     u4360:
  4251   001BCE                     
  4252                           ; BSR set to: 0
  4253                           ;C:\Program Files\Microchip\xc8\v2.41\pic\sources\c99\common\doprnt.c: 553:    ) {;C:\Pr
      +                          ogram Files\Microchip\xc8\v2.41\pic\sources\c99\common\doprnt.c: 554:   sign = sign ? '-
      +                          ' : '+';
  4254   001BCE  5181               	movf	efgtoa@sign& (0+255),w,b
  4255   001BD0  A4D8               	btfss	status,2,c
  4256   001BD2  EFED  F00D         	goto	u4371
  4257   001BD6  EFEF  F00D         	goto	u4370
  4258   001BDA                     u4371:
  4259   001BDA  EFF5  F00D         	goto	l4858
  4260   001BDE                     u4370:
  4261   001BDE                     
  4262                           ; BSR set to: 0
  4263   001BDE  0E00               	movlw	0
  4264   001BE0  6F67               	movwf	(_efgtoa$2292+1)& (0+255),b
  4265   001BE2  0E2B               	movlw	43
  4266   001BE4  6F66               	movwf	_efgtoa$2292& (0+255),b
  4267   001BE6  EFF9  F00D         	goto	l4860
  4268   001BEA                     l4858:
  4269                           
  4270                           ; BSR set to: 0
  4271   001BEA  0E00               	movlw	0
  4272   001BEC  6F67               	movwf	(_efgtoa$2292+1)& (0+255),b
  4273   001BEE  0E2D               	movlw	45
  4274   001BF0  6F66               	movwf	_efgtoa$2292& (0+255),b
  4275   001BF2                     l4860:
  4276                           
  4277                           ; BSR set to: 0
  4278   001BF2  C066  F081         	movff	_efgtoa$2292,efgtoa@sign
  4279   001BF6                     l4862:
  4280                           
  4281                           ; BSR set to: 0
  4282                           ;C:\Program Files\Microchip\xc8\v2.41\pic\sources\c99\common\doprnt.c: 563:     if (( __
      +                          fpclassifyf(g.f) == 1 )) {
  4283   001BF6  C084  F001         	movff	efgtoa@g,___fpclassifyf@x
  4284   001BFA  C085  F002         	movff	efgtoa@g+1,___fpclassifyf@x+1
  4285   001BFE  C086  F003         	movff	efgtoa@g+2,___fpclassifyf@x+2
  4286   001C02  C087  F004         	movff	efgtoa@g+3,___fpclassifyf@x+3
  4287   001C06  EC58  F020         	call	___fpclassifyf	;wreg free
  4288   001C0A  0401               	decf	?___fpclassifyf^0,w,c
  4289   001C0C  1002               	iorwf	(?___fpclassifyf+1)^0,w,c
  4290   001C0E  A4D8               	btfss	status,2,c
  4291   001C10  EF0C  F00E         	goto	u4381
  4292   001C14  EF0E  F00E         	goto	u4380
  4293   001C18                     u4381:
  4294   001C18  EF41  F00E         	goto	l4880
  4295   001C1C                     u4380:
  4296   001C1C                     
  4297                           ;C:\Program Files\Microchip\xc8\v2.41\pic\sources\c99\common\doprnt.c: 564:   if (sign) 
      +                          {
  4298   001C1C  0100               	movlb	0	; () banked
  4299   001C1E  5181               	movf	efgtoa@sign& (0+255),w,b
  4300   001C20  B4D8               	btfsc	status,2,c
  4301   001C22  EF15  F00E         	goto	u4391
  4302   001C26  EF17  F00E         	goto	u4390
  4303   001C2A                     u4391:
  4304   001C2A  EF20  F00E         	goto	l4872
  4305   001C2E                     u4390:
  4306   001C2E                     
  4307                           ; BSR set to: 0
  4308                           ;C:\Program Files\Microchip\xc8\v2.41\pic\sources\c99\common\doprnt.c: 565:    dbuf[0] =
      +                           sign;
  4309   001C2E  C081  F132         	movff	efgtoa@sign,_dbuf
  4310   001C32                     
  4311                           ; BSR set to: 0
  4312                           ;C:\Program Files\Microchip\xc8\v2.41\pic\sources\c99\common\doprnt.c: 566:    w--;
  4313   001C32  0771               	decf	efgtoa@w& (0+255),f,b
  4314   001C34  A0D8               	btfss	status,0,c
  4315   001C36  0772               	decf	(efgtoa@w+1)& (0+255),f,b
  4316   001C38                     
  4317                           ; BSR set to: 0
  4318                           ;C:\Program Files\Microchip\xc8\v2.41\pic\sources\c99\common\doprnt.c: 567:    n = 1;
  4319   001C38  0E00               	movlw	0
  4320   001C3A  6F83               	movwf	(efgtoa@n+1)& (0+255),b
  4321   001C3C  0E01               	movlw	1
  4322   001C3E  6F82               	movwf	efgtoa@n& (0+255),b
  4323   001C40                     l4872:
  4324                           
  4325                           ; BSR set to: 0
  4326                           ;C:\Program Files\Microchip\xc8\v2.41\pic\sources\c99\common\doprnt.c: 575:   {;C:\Progr
      +                          am Files\Microchip\xc8\v2.41\pic\sources\c99\common\doprnt.c: 576:             strcpy(&d
      +                          buf[n], "inf");
  4327   001C40  0E32               	movlw	low _dbuf
  4328   001C42  2582               	addwf	efgtoa@n& (0+255),w,b
  4329   001C44  6E01               	movwf	strcpy@dest^0,c
  4330   001C46  0E01               	movlw	high _dbuf
  4331   001C48  2183               	addwfc	(efgtoa@n+1)& (0+255),w,b
  4332   001C4A  6E02               	movwf	(strcpy@dest+1)^0,c
  4333   001C4C  0E01               	movlw	low STR_3
  4334   001C4E  6E03               	movwf	strcpy@src^0,c
  4335   001C50  0E10               	movlw	high STR_3
  4336   001C52  6E04               	movwf	(strcpy@src+1)^0,c
  4337   001C54  EC38  F028         	call	_strcpy	;wreg free
  4338   001C58                     l4874:
  4339                           
  4340                           ;C:\Program Files\Microchip\xc8\v2.41\pic\sources\c99\common\doprnt.c: 577:         };C:
      +                          \Program Files\Microchip\xc8\v2.41\pic\sources\c99\common\doprnt.c: 578:         w -= ((
      +                          sizeof("inf")/sizeof("inf"[0]))-1);
  4341   001C58  0100               	movlb	0	; () banked
  4342   001C5A  0EFD               	movlw	253
  4343   001C5C  2771               	addwf	efgtoa@w& (0+255),f,b
  4344   001C5E  0EFF               	movlw	255
  4345   001C60  2372               	addwfc	(efgtoa@w+1)& (0+255),f,b
  4346   001C62                     
  4347                           ; BSR set to: 0
  4348                           ;C:\Program Files\Microchip\xc8\v2.41\pic\sources\c99\common\doprnt.c: 579:         retu
      +                          rn (void) pad(fp, &dbuf[0], w);
  4349   001C62  C04D  F011         	movff	efgtoa@fp,pad@fp
  4350   001C66  C04E  F012         	movff	efgtoa@fp+1,pad@fp+1
  4351   001C6A  0E32               	movlw	low _dbuf
  4352   001C6C  6E13               	movwf	pad@buf^0,c
  4353   001C6E  0E01               	movlw	high _dbuf
  4354   001C70  6E14               	movwf	(pad@buf+1)^0,c
  4355   001C72  C071  F015         	movff	efgtoa@w,pad@p
  4356   001C76  C072  F016         	movff	efgtoa@w+1,pad@p+1
  4357   001C7A  ECC3  F024         	call	_pad	;wreg free
  4358   001C7E  EFAC  F012         	goto	l1631
  4359   001C82                     l4880:
  4360                           
  4361                           ;C:\Program Files\Microchip\xc8\v2.41\pic\sources\c99\common\doprnt.c: 581:     if (( __
      +                          fpclassifyf(g.f) == 0 )) {
  4362   001C82  C084  F001         	movff	efgtoa@g,___fpclassifyf@x
  4363   001C86  C085  F002         	movff	efgtoa@g+1,___fpclassifyf@x+1
  4364   001C8A  C086  F003         	movff	efgtoa@g+2,___fpclassifyf@x+2
  4365   001C8E  C087  F004         	movff	efgtoa@g+3,___fpclassifyf@x+3
  4366   001C92  EC58  F020         	call	___fpclassifyf	;wreg free
  4367   001C96  5001               	movf	?___fpclassifyf^0,w,c
  4368   001C98  1002               	iorwf	(?___fpclassifyf+1)^0,w,c
  4369   001C9A  A4D8               	btfss	status,2,c
  4370   001C9C  EF52  F00E         	goto	u4401
  4371   001CA0  EF54  F00E         	goto	u4400
  4372   001CA4                     u4401:
  4373   001CA4  EF74  F00E         	goto	l4898
  4374   001CA8                     u4400:
  4375   001CA8                     
  4376                           ;C:\Program Files\Microchip\xc8\v2.41\pic\sources\c99\common\doprnt.c: 582:   if (sign) 
      +                          {
  4377   001CA8  0100               	movlb	0	; () banked
  4378   001CAA  5181               	movf	efgtoa@sign& (0+255),w,b
  4379   001CAC  B4D8               	btfsc	status,2,c
  4380   001CAE  EF5B  F00E         	goto	u4411
  4381   001CB2  EF5D  F00E         	goto	u4410
  4382   001CB6                     u4411:
  4383   001CB6  EF66  F00E         	goto	l4890
  4384   001CBA                     u4410:
  4385   001CBA                     
  4386                           ; BSR set to: 0
  4387                           ;C:\Program Files\Microchip\xc8\v2.41\pic\sources\c99\common\doprnt.c: 583:    dbuf[0] =
      +                           sign;
  4388   001CBA  C081  F132         	movff	efgtoa@sign,_dbuf
  4389   001CBE                     
  4390                           ; BSR set to: 0
  4391                           ;C:\Program Files\Microchip\xc8\v2.41\pic\sources\c99\common\doprnt.c: 584:    w--;
  4392   001CBE  0771               	decf	efgtoa@w& (0+255),f,b
  4393   001CC0  A0D8               	btfss	status,0,c
  4394   001CC2  0772               	decf	(efgtoa@w+1)& (0+255),f,b
  4395   001CC4                     
  4396                           ; BSR set to: 0
  4397                           ;C:\Program Files\Microchip\xc8\v2.41\pic\sources\c99\common\doprnt.c: 585:    n = 1;
  4398   001CC4  0E00               	movlw	0
  4399   001CC6  6F83               	movwf	(efgtoa@n+1)& (0+255),b
  4400   001CC8  0E01               	movlw	1
  4401   001CCA  6F82               	movwf	efgtoa@n& (0+255),b
  4402   001CCC                     l4890:
  4403                           
  4404                           ; BSR set to: 0
  4405                           ;C:\Program Files\Microchip\xc8\v2.41\pic\sources\c99\common\doprnt.c: 593:   {;C:\Progr
      +                          am Files\Microchip\xc8\v2.41\pic\sources\c99\common\doprnt.c: 594:             strcpy(&d
      +                          buf[n], "nan");
  4406   001CCC  0E32               	movlw	low _dbuf
  4407   001CCE  2582               	addwf	efgtoa@n& (0+255),w,b
  4408   001CD0  6E01               	movwf	strcpy@dest^0,c
  4409   001CD2  0E01               	movlw	high _dbuf
  4410   001CD4  2183               	addwfc	(efgtoa@n+1)& (0+255),w,b
  4411   001CD6  6E02               	movwf	(strcpy@dest+1)^0,c
  4412   001CD8  0E05               	movlw	low STR_6
  4413   001CDA  6E03               	movwf	strcpy@src^0,c
  4414   001CDC  0E10               	movlw	high STR_6
  4415   001CDE  6E04               	movwf	(strcpy@src+1)^0,c
  4416   001CE0  EC38  F028         	call	_strcpy	;wreg free
  4417   001CE4  EF2C  F00E         	goto	l4874
  4418   001CE8                     l4898:
  4419                           
  4420                           ;C:\Program Files\Microchip\xc8\v2.41\pic\sources\c99\common\doprnt.c: 601:     u.f = 1.
      +                          0;
  4421   001CE8  0E00               	movlw	0
  4422   001CEA  0100               	movlb	0	; () banked
  4423   001CEC  6F88               	movwf	efgtoa@u& (0+255),b
  4424   001CEE  0E00               	movlw	0
  4425   001CF0  6F89               	movwf	(efgtoa@u+1)& (0+255),b
  4426   001CF2  0E80               	movlw	128
  4427   001CF4  6F8A               	movwf	(efgtoa@u+2)& (0+255),b
  4428   001CF6  0E3F               	movlw	63
  4429   001CF8  6F8B               	movwf	(efgtoa@u+3)& (0+255),b
  4430                           
  4431                           ;C:\Program Files\Microchip\xc8\v2.41\pic\sources\c99\common\doprnt.c: 602:     e = 0;
  4432   001CFA  0E00               	movlw	0
  4433   001CFC  6F70               	movwf	(efgtoa@e+1)& (0+255),b
  4434   001CFE  0E00               	movlw	0
  4435   001D00  6F6F               	movwf	efgtoa@e& (0+255),b
  4436   001D02                     
  4437                           ; BSR set to: 0
  4438                           ;C:\Program Files\Microchip\xc8\v2.41\pic\sources\c99\common\doprnt.c: 603:  if (!(g.f =
      +                          = 0.0)) {
  4439   001D02  C084  F001         	movff	efgtoa@g,___fleq@ff1
  4440   001D06  C085  F002         	movff	efgtoa@g+1,___fleq@ff1+1
  4441   001D0A  C086  F003         	movff	efgtoa@g+2,___fleq@ff1+2
  4442   001D0E  C087  F004         	movff	efgtoa@g+3,___fleq@ff1+3
  4443   001D12  0E00               	movlw	0
  4444   001D14  6E05               	movwf	___fleq@ff2^0,c
  4445   001D16  0E00               	movlw	0
  4446   001D18  6E06               	movwf	(___fleq@ff2+1)^0,c
  4447   001D1A  0E00               	movlw	0
  4448   001D1C  6E07               	movwf	(___fleq@ff2+2)^0,c
  4449   001D1E  0E00               	movlw	0
  4450   001D20  6E08               	movwf	(___fleq@ff2+3)^0,c
  4451   001D22  ECEA  F022         	call	___fleq	;wreg free
  4452   001D26  B0D8               	btfsc	status,0,c
  4453   001D28  EF98  F00E         	goto	u4421
  4454   001D2C  EF9A  F00E         	goto	u4420
  4455   001D30                     u4421:
  4456   001D30  EF79  F00F         	goto	l1634
  4457   001D34                     u4420:
  4458   001D34  EFA7  F00E         	goto	l4906
  4459   001D38                     l1636:
  4460                           
  4461                           ;C:\Program Files\Microchip\xc8\v2.41\pic\sources\c99\common\doprnt.c: 605:    u = ou;
  4462   001D38  C073  F088         	movff	efgtoa@ou,efgtoa@u
  4463   001D3C  C074  F089         	movff	efgtoa@ou+1,efgtoa@u+1
  4464   001D40  C075  F08A         	movff	efgtoa@ou+2,efgtoa@u+2
  4465   001D44  C076  F08B         	movff	efgtoa@ou+3,efgtoa@u+3
  4466   001D48                     
  4467                           ;C:\Program Files\Microchip\xc8\v2.41\pic\sources\c99\common\doprnt.c: 606:    ++e;
  4468   001D48  0100               	movlb	0	; () banked
  4469   001D4A  4B6F               	infsnz	efgtoa@e& (0+255),f,b
  4470   001D4C  2B70               	incf	(efgtoa@e+1)& (0+255),f,b
  4471   001D4E                     l4906:
  4472                           
  4473                           ;C:\Program Files\Microchip\xc8\v2.41\pic\sources\c99\common\doprnt.c: 604:   while ((la
      +                          bs((g).u-((ou.f = u.f*10.0,ou)).u) <= 1) || g.f > ou.f) {
  4474   001D4E  C088  F028         	movff	efgtoa@u,___flmul@b
  4475   001D52  C089  F029         	movff	efgtoa@u+1,___flmul@b+1
  4476   001D56  C08A  F02A         	movff	efgtoa@u+2,___flmul@b+2
  4477   001D5A  C08B  F02B         	movff	efgtoa@u+3,___flmul@b+3
  4478   001D5E  0E00               	movlw	0
  4479   001D60  6E2C               	movwf	___flmul@a^0,c
  4480   001D62  0E00               	movlw	0
  4481   001D64  6E2D               	movwf	(___flmul@a+1)^0,c
  4482   001D66  0E20               	movlw	32
  4483   001D68  6E2E               	movwf	(___flmul@a+2)^0,c
  4484   001D6A  0E41               	movlw	65
  4485   001D6C  6E2F               	movwf	(___flmul@a+3)^0,c
  4486   001D6E  EC0D  F015         	call	___flmul	;wreg free
  4487   001D72  C028  F073         	movff	?___flmul,efgtoa@ou
  4488   001D76  C029  F074         	movff	?___flmul+1,efgtoa@ou+1
  4489   001D7A  C02A  F075         	movff	?___flmul+2,efgtoa@ou+2
  4490   001D7E  C02B  F076         	movff	?___flmul+3,efgtoa@ou+3
  4491   001D82  0100               	movlb	0	; () banked
  4492   001D84  5173               	movf	efgtoa@ou& (0+255),w,b
  4493   001D86  5D84               	subwf	efgtoa@g& (0+255),w,b
  4494   001D88  6E01               	movwf	labs@a^0,c
  4495   001D8A  5174               	movf	(efgtoa@ou+1)& (0+255),w,b
  4496   001D8C  5985               	subwfb	(efgtoa@g+1)& (0+255),w,b
  4497   001D8E  6E02               	movwf	(labs@a+1)^0,c
  4498   001D90  5175               	movf	(efgtoa@ou+2)& (0+255),w,b
  4499   001D92  5986               	subwfb	(efgtoa@g+2)& (0+255),w,b
  4500   001D94  6E03               	movwf	(labs@a+2)^0,c
  4501   001D96  5176               	movf	(efgtoa@ou+3)& (0+255),w,b
  4502   001D98  5987               	subwfb	(efgtoa@g+3)& (0+255),w,b
  4503   001D9A  6E04               	movwf	(labs@a+3)^0,c
  4504   001D9C  EC85  F027         	call	_labs	;wreg free
  4505   001DA0  BE04               	btfsc	(?_labs+3)^0,7,c
  4506   001DA2  EFDE  F00E         	goto	u4431
  4507   001DA6  5004               	movf	(?_labs+3)^0,w,c
  4508   001DA8  1003               	iorwf	(?_labs+2)^0,w,c
  4509   001DAA  1002               	iorwf	(?_labs+1)^0,w,c
  4510   001DAC  E109               	bnz	u4430
  4511   001DAE  0E02               	movlw	2
  4512   001DB0  5C01               	subwf	?_labs^0,w,c
  4513   001DB2  A0D8               	btfss	status,0,c
  4514   001DB4  EFDE  F00E         	goto	u4431
  4515   001DB8  EFE0  F00E         	goto	u4430
  4516   001DBC                     u4431:
  4517   001DBC  EF9C  F00E         	goto	l1636
  4518   001DC0                     u4430:
  4519   001DC0  C073  F041         	movff	efgtoa@ou,___flge@ff1
  4520   001DC4  C074  F042         	movff	efgtoa@ou+1,___flge@ff1+1
  4521   001DC8  C075  F043         	movff	efgtoa@ou+2,___flge@ff1+2
  4522   001DCC  C076  F044         	movff	efgtoa@ou+3,___flge@ff1+3
  4523   001DD0  C084  F045         	movff	efgtoa@g,___flge@ff2
  4524   001DD4  C085  F046         	movff	efgtoa@g+1,___flge@ff2+1
  4525   001DD8  C086  F047         	movff	efgtoa@g+2,___flge@ff2+2
  4526   001DDC  C087  F048         	movff	efgtoa@g+3,___flge@ff2+3
  4527   001DE0  ECD6  F01F         	call	___flge	;wreg free
  4528   001DE4  A0D8               	btfss	status,0,c
  4529   001DE6  EFF7  F00E         	goto	u4441
  4530   001DEA  EFF9  F00E         	goto	u4440
  4531   001DEE                     u4441:
  4532   001DEE  EF9C  F00E         	goto	l1636
  4533   001DF2                     u4440:
  4534   001DF2                     
  4535                           ;C:\Program Files\Microchip\xc8\v2.41\pic\sources\c99\common\doprnt.c: 608:   if ((labs(
      +                          (g).u-(u).u) <= 1)) {
  4536   001DF2  0100               	movlb	0	; () banked
  4537   001DF4  5188               	movf	efgtoa@u& (0+255),w,b
  4538   001DF6  5D84               	subwf	efgtoa@g& (0+255),w,b
  4539   001DF8  6E01               	movwf	labs@a^0,c
  4540   001DFA  5189               	movf	(efgtoa@u+1)& (0+255),w,b
  4541   001DFC  5985               	subwfb	(efgtoa@g+1)& (0+255),w,b
  4542   001DFE  6E02               	movwf	(labs@a+1)^0,c
  4543   001E00  518A               	movf	(efgtoa@u+2)& (0+255),w,b
  4544   001E02  5986               	subwfb	(efgtoa@g+2)& (0+255),w,b
  4545   001E04  6E03               	movwf	(labs@a+2)^0,c
  4546   001E06  518B               	movf	(efgtoa@u+3)& (0+255),w,b
  4547   001E08  5987               	subwfb	(efgtoa@g+3)& (0+255),w,b
  4548   001E0A  6E04               	movwf	(labs@a+3)^0,c
  4549   001E0C  EC85  F027         	call	_labs	;wreg free
  4550   001E10  BE04               	btfsc	(?_labs+3)^0,7,c
  4551   001E12  EF18  F00F         	goto	u4450
  4552   001E16  5004               	movf	(?_labs+3)^0,w,c
  4553   001E18  1003               	iorwf	(?_labs+2)^0,w,c
  4554   001E1A  1002               	iorwf	(?_labs+1)^0,w,c
  4555   001E1C  E107               	bnz	u4451
  4556   001E1E  0E02               	movlw	2
  4557   001E20  5C01               	subwf	?_labs^0,w,c
  4558   001E22  B0D8               	btfsc	status,0,c
  4559   001E24  EF16  F00F         	goto	u4451
  4560   001E28  EF18  F00F         	goto	u4450
  4561   001E2C                     u4451:
  4562   001E2C  EF60  F00F         	goto	l4924
  4563   001E30                     u4450:
  4564   001E30                     l4914:
  4565                           
  4566                           ;C:\Program Files\Microchip\xc8\v2.41\pic\sources\c99\common\doprnt.c: 609:    g = u;
  4567   001E30  C088  F084         	movff	efgtoa@u,efgtoa@g
  4568   001E34  C089  F085         	movff	efgtoa@u+1,efgtoa@g+1
  4569   001E38  C08A  F086         	movff	efgtoa@u+2,efgtoa@g+2
  4570   001E3C  C08B  F087         	movff	efgtoa@u+3,efgtoa@g+3
  4571                           
  4572                           ;C:\Program Files\Microchip\xc8\v2.41\pic\sources\c99\common\doprnt.c: 610:   }
  4573   001E40  EF79  F00F         	goto	l1634
  4574   001E44                     l4916:
  4575                           
  4576                           ;C:\Program Files\Microchip\xc8\v2.41\pic\sources\c99\common\doprnt.c: 613:     u.f = u.
      +                          f/10.0;
  4577   001E44  C088  F00F         	movff	efgtoa@u,___fldiv@b
  4578   001E48  C089  F010         	movff	efgtoa@u+1,___fldiv@b+1
  4579   001E4C  C08A  F011         	movff	efgtoa@u+2,___fldiv@b+2
  4580   001E50  C08B  F012         	movff	efgtoa@u+3,___fldiv@b+3
  4581   001E54  0E00               	movlw	0
  4582   001E56  6E13               	movwf	___fldiv@a^0,c
  4583   001E58  0E00               	movlw	0
  4584   001E5A  6E14               	movwf	(___fldiv@a+1)^0,c
  4585   001E5C  0E20               	movlw	32
  4586   001E5E  6E15               	movwf	(___fldiv@a+2)^0,c
  4587   001E60  0E41               	movlw	65
  4588   001E62  6E16               	movwf	(___fldiv@a+3)^0,c
  4589   001E64  EC34  F017         	call	___fldiv	;wreg free
  4590   001E68  C00F  F088         	movff	?___fldiv,efgtoa@u
  4591   001E6C  C010  F089         	movff	?___fldiv+1,efgtoa@u+1
  4592   001E70  C011  F08A         	movff	?___fldiv+2,efgtoa@u+2
  4593   001E74  C012  F08B         	movff	?___fldiv+3,efgtoa@u+3
  4594   001E78                     
  4595                           ;C:\Program Files\Microchip\xc8\v2.41\pic\sources\c99\common\doprnt.c: 614:     --e;
  4596   001E78  0100               	movlb	0	; () banked
  4597   001E7A  076F               	decf	efgtoa@e& (0+255),f,b
  4598   001E7C  A0D8               	btfss	status,0,c
  4599   001E7E  0770               	decf	(efgtoa@e+1)& (0+255),f,b
  4600   001E80                     
  4601                           ; BSR set to: 0
  4602                           ;C:\Program Files\Microchip\xc8\v2.41\pic\sources\c99\common\doprnt.c: 615:     if ((lab
      +                          s((g).u-(u).u) <= 1)) {
  4603   001E80  5188               	movf	efgtoa@u& (0+255),w,b
  4604   001E82  5D84               	subwf	efgtoa@g& (0+255),w,b
  4605   001E84  6E01               	movwf	labs@a^0,c
  4606   001E86  5189               	movf	(efgtoa@u+1)& (0+255),w,b
  4607   001E88  5985               	subwfb	(efgtoa@g+1)& (0+255),w,b
  4608   001E8A  6E02               	movwf	(labs@a+1)^0,c
  4609   001E8C  518A               	movf	(efgtoa@u+2)& (0+255),w,b
  4610   001E8E  5986               	subwfb	(efgtoa@g+2)& (0+255),w,b
  4611   001E90  6E03               	movwf	(labs@a+2)^0,c
  4612   001E92  518B               	movf	(efgtoa@u+3)& (0+255),w,b
  4613   001E94  5987               	subwfb	(efgtoa@g+3)& (0+255),w,b
  4614   001E96  6E04               	movwf	(labs@a+3)^0,c
  4615   001E98  EC85  F027         	call	_labs	;wreg free
  4616   001E9C  BE04               	btfsc	(?_labs+3)^0,7,c
  4617   001E9E  EF5E  F00F         	goto	u4460
  4618   001EA2  5004               	movf	(?_labs+3)^0,w,c
  4619   001EA4  1003               	iorwf	(?_labs+2)^0,w,c
  4620   001EA6  1002               	iorwf	(?_labs+1)^0,w,c
  4621   001EA8  E107               	bnz	u4461
  4622   001EAA  0E02               	movlw	2
  4623   001EAC  5C01               	subwf	?_labs^0,w,c
  4624   001EAE  B0D8               	btfsc	status,0,c
  4625   001EB0  EF5C  F00F         	goto	u4461
  4626   001EB4  EF5E  F00F         	goto	u4460
  4627   001EB8                     u4461:
  4628   001EB8  EF60  F00F         	goto	l4924
  4629   001EBC                     u4460:
  4630   001EBC  EF18  F00F         	goto	l4914
  4631   001EC0                     l4924:
  4632                           
  4633                           ;C:\Program Files\Microchip\xc8\v2.41\pic\sources\c99\common\doprnt.c: 612:    while (g.
      +                          f < u.f) {
  4634   001EC0  C084  F041         	movff	efgtoa@g,___flge@ff1
  4635   001EC4  C085  F042         	movff	efgtoa@g+1,___flge@ff1+1
  4636   001EC8  C086  F043         	movff	efgtoa@g+2,___flge@ff1+2
  4637   001ECC  C087  F044         	movff	efgtoa@g+3,___flge@ff1+3
  4638   001ED0  C088  F045         	movff	efgtoa@u,___flge@ff2
  4639   001ED4  C089  F046         	movff	efgtoa@u+1,___flge@ff2+1
  4640   001ED8  C08A  F047         	movff	efgtoa@u+2,___flge@ff2+2
  4641   001EDC  C08B  F048         	movff	efgtoa@u+3,___flge@ff2+3
  4642   001EE0  ECD6  F01F         	call	___flge	;wreg free
  4643   001EE4  A0D8               	btfss	status,0,c
  4644   001EE6  EF77  F00F         	goto	u4471
  4645   001EEA  EF79  F00F         	goto	u4470
  4646   001EEE                     u4471:
  4647   001EEE  EF22  F00F         	goto	l4916
  4648   001EF2                     u4470:
  4649   001EF2                     l1634:
  4650                           
  4651                           ;C:\Program Files\Microchip\xc8\v2.41\pic\sources\c99\common\doprnt.c: 627:  mode = c;
  4652   001EF2  C053  F069         	movff	efgtoa@c,efgtoa@mode
  4653                           
  4654                           ;C:\Program Files\Microchip\xc8\v2.41\pic\sources\c99\common\doprnt.c: 629:     nmode = 
      +                          mode;
  4655   001EF6  C069  F06A         	movff	efgtoa@mode,efgtoa@nmode
  4656   001EFA                     
  4657                           ;C:\Program Files\Microchip\xc8\v2.41\pic\sources\c99\common\doprnt.c: 639:  {;C:\Progra
      +                          m Files\Microchip\xc8\v2.41\pic\sources\c99\common\doprnt.c: 640:         p = (prec < 0)
      +                           ? 6 : prec;
  4658   001EFA  0100               	movlb	0	; () banked
  4659   001EFC  BFE2               	btfsc	(_prec+1)& (0+255),7,b
  4660   001EFE  EF83  F00F         	goto	u4481
  4661   001F02  EF85  F00F         	goto	u4480
  4662   001F06                     u4481:
  4663   001F06  EF8B  F00F         	goto	l4930
  4664   001F0A                     u4480:
  4665   001F0A                     
  4666                           ; BSR set to: 0
  4667   001F0A  C0E1  F062         	movff	_prec,efgtoa@p
  4668   001F0E  C0E2  F063         	movff	_prec+1,efgtoa@p+1
  4669   001F12  EF8F  F00F         	goto	l4932
  4670   001F16                     l4930:
  4671                           
  4672                           ; BSR set to: 0
  4673   001F16  0E00               	movlw	0
  4674   001F18  6F63               	movwf	(efgtoa@p+1)& (0+255),b
  4675   001F1A  0E06               	movlw	6
  4676   001F1C  6F62               	movwf	efgtoa@p& (0+255),b
  4677   001F1E                     l4932:
  4678                           
  4679                           ; BSR set to: 0
  4680                           ;C:\Program Files\Microchip\xc8\v2.41\pic\sources\c99\common\doprnt.c: 641:     };C:\Pro
      +                          gram Files\Microchip\xc8\v2.41\pic\sources\c99\common\doprnt.c: 655:     m = p;
  4681   001F1E  C062  F06D         	movff	efgtoa@p,efgtoa@m
  4682   001F22  C063  F06E         	movff	efgtoa@p+1,efgtoa@m+1
  4683   001F26                     
  4684                           ; BSR set to: 0
  4685                           ;C:\Program Files\Microchip\xc8\v2.41\pic\sources\c99\common\doprnt.c: 659:  {;C:\Progra
      +                          m Files\Microchip\xc8\v2.41\pic\sources\c99\common\doprnt.c: 660:         ++m;
  4686   001F26  4B6D               	infsnz	efgtoa@m& (0+255),f,b
  4687   001F28  2B6E               	incf	(efgtoa@m+1)& (0+255),f,b
  4688   001F2A                     
  4689                           ; BSR set to: 0
  4690                           ;C:\Program Files\Microchip\xc8\v2.41\pic\sources\c99\common\doprnt.c: 661:     };C:\Pro
      +                          gram Files\Microchip\xc8\v2.41\pic\sources\c99\common\doprnt.c: 665:     if (nmode == 'f
      +                          ') {
  4691   001F2A  0E66               	movlw	102
  4692   001F2C  196A               	xorwf	efgtoa@nmode& (0+255),w,b
  4693   001F2E  A4D8               	btfss	status,2,c
  4694   001F30  EF9C  F00F         	goto	u4491
  4695   001F34  EF9E  F00F         	goto	u4490
  4696   001F38                     u4491:
  4697   001F38  EFBE  F00F         	goto	l4946
  4698   001F3C                     u4490:
  4699   001F3C                     
  4700                           ; BSR set to: 0
  4701                           ;C:\Program Files\Microchip\xc8\v2.41\pic\sources\c99\common\doprnt.c: 666:         if (
      +                          e < 0) {
  4702   001F3C  BF70               	btfsc	(efgtoa@e+1)& (0+255),7,b
  4703   001F3E  EFA5  F00F         	goto	u4500
  4704   001F42  EFA3  F00F         	goto	u4501
  4705   001F46                     u4501:
  4706   001F46  EFB1  F00F         	goto	l4942
  4707   001F4A                     u4500:
  4708   001F4A                     
  4709                           ; BSR set to: 0
  4710                           ;C:\Program Files\Microchip\xc8\v2.41\pic\sources\c99\common\doprnt.c: 667:             
      +                          u.f = 1.0;
  4711   001F4A  0E00               	movlw	0
  4712   001F4C  6F88               	movwf	efgtoa@u& (0+255),b
  4713   001F4E  0E00               	movlw	0
  4714   001F50  6F89               	movwf	(efgtoa@u+1)& (0+255),b
  4715   001F52  0E80               	movlw	128
  4716   001F54  6F8A               	movwf	(efgtoa@u+2)& (0+255),b
  4717   001F56  0E3F               	movlw	63
  4718   001F58  6F8B               	movwf	(efgtoa@u+3)& (0+255),b
  4719                           
  4720                           ;C:\Program Files\Microchip\xc8\v2.41\pic\sources\c99\common\doprnt.c: 668:             
      +                          e = 0;
  4721   001F5A  0E00               	movlw	0
  4722   001F5C  6F70               	movwf	(efgtoa@e+1)& (0+255),b
  4723   001F5E  0E00               	movlw	0
  4724   001F60  6F6F               	movwf	efgtoa@e& (0+255),b
  4725   001F62                     l4942:
  4726                           
  4727                           ; BSR set to: 0
  4728                           ;C:\Program Files\Microchip\xc8\v2.41\pic\sources\c99\common\doprnt.c: 670:         if (
      +                          !(mode == 'g')) {
  4729   001F62  0E67               	movlw	103
  4730   001F64  1969               	xorwf	efgtoa@mode& (0+255),w,b
  4731   001F66  B4D8               	btfsc	status,2,c
  4732   001F68  EFB8  F00F         	goto	u4511
  4733   001F6C  EFBA  F00F         	goto	u4510
  4734   001F70                     u4511:
  4735   001F70  EFBE  F00F         	goto	l4946
  4736   001F74                     u4510:
  4737   001F74                     
  4738                           ; BSR set to: 0
  4739                           ;C:\Program Files\Microchip\xc8\v2.41\pic\sources\c99\common\doprnt.c: 671:             
      +                          m += e;
  4740   001F74  516F               	movf	efgtoa@e& (0+255),w,b
  4741   001F76  276D               	addwf	efgtoa@m& (0+255),f,b
  4742   001F78  5170               	movf	(efgtoa@e+1)& (0+255),w,b
  4743   001F7A  236E               	addwfc	(efgtoa@m+1)& (0+255),f,b
  4744   001F7C                     l4946:
  4745                           
  4746                           ; BSR set to: 0
  4747                           ;C:\Program Files\Microchip\xc8\v2.41\pic\sources\c99\common\doprnt.c: 677:     i = 0;
  4748   001F7C  0E00               	movlw	0
  4749   001F7E  6F78               	movwf	(efgtoa@i+1)& (0+255),b
  4750   001F80  0E00               	movlw	0
  4751   001F82  6F77               	movwf	efgtoa@i& (0+255),b
  4752   001F84                     
  4753                           ; BSR set to: 0
  4754                           ;C:\Program Files\Microchip\xc8\v2.41\pic\sources\c99\common\doprnt.c: 678:     h = g.f;
  4755   001F84  C084  F079         	movff	efgtoa@g,efgtoa@h
  4756   001F88  C085  F07A         	movff	efgtoa@g+1,efgtoa@h+1
  4757   001F8C  C086  F07B         	movff	efgtoa@g+2,efgtoa@h+2
  4758   001F90  C087  F07C         	movff	efgtoa@g+3,efgtoa@h+3
  4759   001F94                     
  4760                           ; BSR set to: 0
  4761                           ;C:\Program Files\Microchip\xc8\v2.41\pic\sources\c99\common\doprnt.c: 679:     ou = u;
  4762   001F94  C088  F073         	movff	efgtoa@u,efgtoa@ou
  4763   001F98  C089  F074         	movff	efgtoa@u+1,efgtoa@ou+1
  4764   001F9C  C08A  F075         	movff	efgtoa@u+2,efgtoa@ou+2
  4765   001FA0  C08B  F076         	movff	efgtoa@u+3,efgtoa@ou+3
  4766                           
  4767                           ;C:\Program Files\Microchip\xc8\v2.41\pic\sources\c99\common\doprnt.c: 680:     while (i
      +                           < m) {
  4768   001FA4  EF4F  F010         	goto	l4960
  4769   001FA8                     l4952:
  4770                           
  4771                           ; BSR set to: 0
  4772                           ;C:\Program Files\Microchip\xc8\v2.41\pic\sources\c99\common\doprnt.c: 681:         l = 
      +                          floorf(h/u.f);
  4773   001FA8  C079  F00F         	movff	efgtoa@h,___fldiv@b
  4774   001FAC  C07A  F010         	movff	efgtoa@h+1,___fldiv@b+1
  4775   001FB0  C07B  F011         	movff	efgtoa@h+2,___fldiv@b+2
  4776   001FB4  C07C  F012         	movff	efgtoa@h+3,___fldiv@b+3
  4777   001FB8  C088  F013         	movff	efgtoa@u,___fldiv@a
  4778   001FBC  C089  F014         	movff	efgtoa@u+1,___fldiv@a+1
  4779   001FC0  C08A  F015         	movff	efgtoa@u+2,___fldiv@a+2
  4780   001FC4  C08B  F016         	movff	efgtoa@u+3,___fldiv@a+3
  4781   001FC8  EC34  F017         	call	___fldiv	;wreg free
  4782   001FCC  C00F  F028         	movff	?___fldiv,floorf@x
  4783   001FD0  C010  F029         	movff	?___fldiv+1,floorf@x+1
  4784   001FD4  C011  F02A         	movff	?___fldiv+2,floorf@x+2
  4785   001FD8  C012  F02B         	movff	?___fldiv+3,floorf@x+3
  4786   001FDC  ECAD  F01A         	call	_floorf	;wreg free
  4787   001FE0  C028  F07D         	movff	?_floorf,efgtoa@l
  4788   001FE4  C029  F07E         	movff	?_floorf+1,efgtoa@l+1
  4789   001FE8  C02A  F07F         	movff	?_floorf+2,efgtoa@l+2
  4790   001FEC  C02B  F080         	movff	?_floorf+3,efgtoa@l+3
  4791                           
  4792                           ;C:\Program Files\Microchip\xc8\v2.41\pic\sources\c99\common\doprnt.c: 682:         d = 
      +                          (int)l;
  4793   001FF0  C07D  F001         	movff	efgtoa@l,___fltol@f1
  4794   001FF4  C07E  F002         	movff	efgtoa@l+1,___fltol@f1+1
  4795   001FF8  C07F  F003         	movff	efgtoa@l+2,___fltol@f1+2
  4796   001FFC  C080  F004         	movff	efgtoa@l+3,___fltol@f1+3
  4797   002000  EC53  F01F         	call	___fltol	;wreg free
  4798   002004  C001  F06B         	movff	?___fltol,efgtoa@d
  4799   002008  C002  F06C         	movff	?___fltol+1,efgtoa@d+1
  4800   00200C                     
  4801                           ;C:\Program Files\Microchip\xc8\v2.41\pic\sources\c99\common\doprnt.c: 683:         h -=
      +                           l*u.f;
  4802   00200C  C079  F041         	movff	efgtoa@h,___flsub@b
  4803   002010  C07A  F042         	movff	efgtoa@h+1,___flsub@b+1
  4804   002014  C07B  F043         	movff	efgtoa@h+2,___flsub@b+2
  4805   002018  C07C  F044         	movff	efgtoa@h+3,___flsub@b+3
  4806   00201C  C07D  F02C         	movff	efgtoa@l,___flmul@a
  4807   002020  C07E  F02D         	movff	efgtoa@l+1,___flmul@a+1
  4808   002024  C07F  F02E         	movff	efgtoa@l+2,___flmul@a+2
  4809   002028  C080  F02F         	movff	efgtoa@l+3,___flmul@a+3
  4810   00202C  C088  F028         	movff	efgtoa@u,___flmul@b
  4811   002030  C089  F029         	movff	efgtoa@u+1,___flmul@b+1
  4812   002034  C08A  F02A         	movff	efgtoa@u+2,___flmul@b+2
  4813   002038  C08B  F02B         	movff	efgtoa@u+3,___flmul@b+3
  4814   00203C  EC0D  F015         	call	___flmul	;wreg free
  4815   002040  C028  F045         	movff	?___flmul,___flsub@a
  4816   002044  C029  F046         	movff	?___flmul+1,___flsub@a+1
  4817   002048  C02A  F047         	movff	?___flmul+2,___flsub@a+2
  4818   00204C  C02B  F048         	movff	?___flmul+3,___flsub@a+3
  4819   002050  EC82  F028         	call	___flsub	;wreg free
  4820   002054  C041  F079         	movff	?___flsub,efgtoa@h
  4821   002058  C042  F07A         	movff	?___flsub+1,efgtoa@h+1
  4822   00205C  C043  F07B         	movff	?___flsub+2,efgtoa@h+2
  4823   002060  C044  F07C         	movff	?___flsub+3,efgtoa@h+3
  4824   002064                     
  4825                           ;C:\Program Files\Microchip\xc8\v2.41\pic\sources\c99\common\doprnt.c: 684:         u.f 
      +                          = u.f/10.0;
  4826   002064  C088  F00F         	movff	efgtoa@u,___fldiv@b
  4827   002068  C089  F010         	movff	efgtoa@u+1,___fldiv@b+1
  4828   00206C  C08A  F011         	movff	efgtoa@u+2,___fldiv@b+2
  4829   002070  C08B  F012         	movff	efgtoa@u+3,___fldiv@b+3
  4830   002074  0E00               	movlw	0
  4831   002076  6E13               	movwf	___fldiv@a^0,c
  4832   002078  0E00               	movlw	0
  4833   00207A  6E14               	movwf	(___fldiv@a+1)^0,c
  4834   00207C  0E20               	movlw	32
  4835   00207E  6E15               	movwf	(___fldiv@a+2)^0,c
  4836   002080  0E41               	movlw	65
  4837   002082  6E16               	movwf	(___fldiv@a+3)^0,c
  4838   002084  EC34  F017         	call	___fldiv	;wreg free
  4839   002088  C00F  F088         	movff	?___fldiv,efgtoa@u
  4840   00208C  C010  F089         	movff	?___fldiv+1,efgtoa@u+1
  4841   002090  C011  F08A         	movff	?___fldiv+2,efgtoa@u+2
  4842   002094  C012  F08B         	movff	?___fldiv+3,efgtoa@u+3
  4843   002098                     
  4844                           ;C:\Program Files\Microchip\xc8\v2.41\pic\sources\c99\common\doprnt.c: 685:         ++i;
  4845   002098  0100               	movlb	0	; () banked
  4846   00209A  4B77               	infsnz	efgtoa@i& (0+255),f,b
  4847   00209C  2B78               	incf	(efgtoa@i+1)& (0+255),f,b
  4848   00209E                     l4960:
  4849                           
  4850                           ; BSR set to: 0
  4851                           ;C:\Program Files\Microchip\xc8\v2.41\pic\sources\c99\common\doprnt.c: 680:     while (i
      +                           < m) {
  4852   00209E  516D               	movf	efgtoa@m& (0+255),w,b
  4853   0020A0  5D77               	subwf	efgtoa@i& (0+255),w,b
  4854   0020A2  5178               	movf	(efgtoa@i+1)& (0+255),w,b
  4855   0020A4  0A80               	xorlw	128
  4856   0020A6  6E54               	movwf	??_efgtoa^0,c
  4857   0020A8  516E               	movf	(efgtoa@m+1)& (0+255),w,b
  4858   0020AA  0A80               	xorlw	128
  4859   0020AC  5854               	subwfb	??_efgtoa^0,w,c
  4860   0020AE  A0D8               	btfss	status,0,c
  4861   0020B0  EF5C  F010         	goto	u4521
  4862   0020B4  EF5E  F010         	goto	u4520
  4863   0020B8                     u4521:
  4864   0020B8  EFD4  F00F         	goto	l4952
  4865   0020BC                     u4520:
  4866   0020BC                     
  4867                           ; BSR set to: 0
  4868                           ;C:\Program Files\Microchip\xc8\v2.41\pic\sources\c99\common\doprnt.c: 689:     l = u.f*
      +                          5.0;
  4869   0020BC  C088  F028         	movff	efgtoa@u,___flmul@b
  4870   0020C0  C089  F029         	movff	efgtoa@u+1,___flmul@b+1
  4871   0020C4  C08A  F02A         	movff	efgtoa@u+2,___flmul@b+2
  4872   0020C8  C08B  F02B         	movff	efgtoa@u+3,___flmul@b+3
  4873   0020CC  0E00               	movlw	0
  4874   0020CE  6E2C               	movwf	___flmul@a^0,c
  4875   0020D0  0E00               	movlw	0
  4876   0020D2  6E2D               	movwf	(___flmul@a+1)^0,c
  4877   0020D4  0EA0               	movlw	160
  4878   0020D6  6E2E               	movwf	(___flmul@a+2)^0,c
  4879   0020D8  0E40               	movlw	64
  4880   0020DA  6E2F               	movwf	(___flmul@a+3)^0,c
  4881   0020DC  EC0D  F015         	call	___flmul	;wreg free
  4882   0020E0  C028  F07D         	movff	?___flmul,efgtoa@l
  4883   0020E4  C029  F07E         	movff	?___flmul+1,efgtoa@l+1
  4884   0020E8  C02A  F07F         	movff	?___flmul+2,efgtoa@l+2
  4885   0020EC  C02B  F080         	movff	?___flmul+3,efgtoa@l+3
  4886   0020F0                     
  4887                           ;C:\Program Files\Microchip\xc8\v2.41\pic\sources\c99\common\doprnt.c: 690:     if (h < 
      +                          l) {
  4888   0020F0  C079  F041         	movff	efgtoa@h,___flge@ff1
  4889   0020F4  C07A  F042         	movff	efgtoa@h+1,___flge@ff1+1
  4890   0020F8  C07B  F043         	movff	efgtoa@h+2,___flge@ff1+2
  4891   0020FC  C07C  F044         	movff	efgtoa@h+3,___flge@ff1+3
  4892   002100  C07D  F045         	movff	efgtoa@l,___flge@ff2
  4893   002104  C07E  F046         	movff	efgtoa@l+1,___flge@ff2+1
  4894   002108  C07F  F047         	movff	efgtoa@l+2,___flge@ff2+2
  4895   00210C  C080  F048         	movff	efgtoa@l+3,___flge@ff2+3
  4896   002110  ECD6  F01F         	call	___flge	;wreg free
  4897   002114  B0D8               	btfsc	status,0,c
  4898   002116  EF8F  F010         	goto	u4531
  4899   00211A  EF91  F010         	goto	u4530
  4900   00211E                     u4531:
  4901   00211E  EF9C  F010         	goto	l4968
  4902   002122                     u4530:
  4903   002122                     
  4904                           ;C:\Program Files\Microchip\xc8\v2.41\pic\sources\c99\common\doprnt.c: 691:         l = 
      +                          0.0;
  4905   002122  0E00               	movlw	0
  4906   002124  0100               	movlb	0	; () banked
  4907   002126  6F7D               	movwf	efgtoa@l& (0+255),b
  4908   002128  0E00               	movlw	0
  4909   00212A  6F7E               	movwf	(efgtoa@l+1)& (0+255),b
  4910   00212C  0E00               	movlw	0
  4911   00212E  6F7F               	movwf	(efgtoa@l+2)& (0+255),b
  4912   002130  0E00               	movlw	0
  4913   002132  6F80               	movwf	(efgtoa@l+3)& (0+255),b
  4914                           
  4915                           ;C:\Program Files\Microchip\xc8\v2.41\pic\sources\c99\common\doprnt.c: 692:     } else {
  4916   002134  EFC5  F010         	goto	l4974
  4917   002138                     l4968:
  4918                           
  4919                           ;C:\Program Files\Microchip\xc8\v2.41\pic\sources\c99\common\doprnt.c: 694:         if (
      +                          (h == l) && !(d % 2)) {
  4920   002138  C079  F001         	movff	efgtoa@h,___fleq@ff1
  4921   00213C  C07A  F002         	movff	efgtoa@h+1,___fleq@ff1+1
  4922   002140  C07B  F003         	movff	efgtoa@h+2,___fleq@ff1+2
  4923   002144  C07C  F004         	movff	efgtoa@h+3,___fleq@ff1+3
  4924   002148  C07D  F005         	movff	efgtoa@l,___fleq@ff2
  4925   00214C  C07E  F006         	movff	efgtoa@l+1,___fleq@ff2+1
  4926   002150  C07F  F007         	movff	efgtoa@l+2,___fleq@ff2+2
  4927   002154  C080  F008         	movff	efgtoa@l+3,___fleq@ff2+3
  4928   002158  ECEA  F022         	call	___fleq	;wreg free
  4929   00215C  A0D8               	btfss	status,0,c
  4930   00215E  EFB3  F010         	goto	u4541
  4931   002162  EFB5  F010         	goto	u4540
  4932   002166                     u4541:
  4933   002166  EFC5  F010         	goto	l4974
  4934   00216A                     u4540:
  4935   00216A  0100               	movlb	0	; () banked
  4936   00216C  B16B               	btfsc	efgtoa@d& (0+255),0,b
  4937   00216E  EFBB  F010         	goto	u4551
  4938   002172  EFBD  F010         	goto	u4550
  4939   002176                     u4551:
  4940   002176  EFC5  F010         	goto	l4974
  4941   00217A                     u4550:
  4942   00217A                     
  4943                           ; BSR set to: 0
  4944                           ;C:\Program Files\Microchip\xc8\v2.41\pic\sources\c99\common\doprnt.c: 695:             
      +                          l = 0.0;
  4945   00217A  0E00               	movlw	0
  4946   00217C  6F7D               	movwf	efgtoa@l& (0+255),b
  4947   00217E  0E00               	movlw	0
  4948   002180  6F7E               	movwf	(efgtoa@l+1)& (0+255),b
  4949   002182  0E00               	movlw	0
  4950   002184  6F7F               	movwf	(efgtoa@l+2)& (0+255),b
  4951   002186  0E00               	movlw	0
  4952   002188  6F80               	movwf	(efgtoa@l+3)& (0+255),b
  4953   00218A                     l4974:
  4954                           
  4955                           ;C:\Program Files\Microchip\xc8\v2.41\pic\sources\c99\common\doprnt.c: 700:     h = g.f 
      +                          + l;
  4956   00218A  C084  F001         	movff	efgtoa@g,___fladd@b
  4957   00218E  C085  F002         	movff	efgtoa@g+1,___fladd@b+1
  4958   002192  C086  F003         	movff	efgtoa@g+2,___fladd@b+2
  4959   002196  C087  F004         	movff	efgtoa@g+3,___fladd@b+3
  4960   00219A  C07D  F005         	movff	efgtoa@l,___fladd@a
  4961   00219E  C07E  F006         	movff	efgtoa@l+1,___fladd@a+1
  4962   0021A2  C07F  F007         	movff	efgtoa@l+2,___fladd@a+2
  4963   0021A6  C080  F008         	movff	efgtoa@l+3,___fladd@a+3
  4964   0021AA  ECAD  F012         	call	___fladd	;wreg free
  4965   0021AE  C001  F079         	movff	?___fladd,efgtoa@h
  4966   0021B2  C002  F07A         	movff	?___fladd+1,efgtoa@h+1
  4967   0021B6  C003  F07B         	movff	?___fladd+2,efgtoa@h+2
  4968   0021BA  C004  F07C         	movff	?___fladd+3,efgtoa@h+3
  4969   0021BE                     
  4970                           ;C:\Program Files\Microchip\xc8\v2.41\pic\sources\c99\common\doprnt.c: 702:  if (h >= (o
      +                          u.f*10.0)) {
  4971   0021BE  C079  F041         	movff	efgtoa@h,___flge@ff1
  4972   0021C2  C07A  F042         	movff	efgtoa@h+1,___flge@ff1+1
  4973   0021C6  C07B  F043         	movff	efgtoa@h+2,___flge@ff1+2
  4974   0021CA  C07C  F044         	movff	efgtoa@h+3,___flge@ff1+3
  4975   0021CE  0E00               	movlw	0
  4976   0021D0  6E2C               	movwf	___flmul@a^0,c
  4977   0021D2  0E00               	movlw	0
  4978   0021D4  6E2D               	movwf	(___flmul@a+1)^0,c
  4979   0021D6  0E20               	movlw	32
  4980   0021D8  6E2E               	movwf	(___flmul@a+2)^0,c
  4981   0021DA  0E41               	movlw	65
  4982   0021DC  6E2F               	movwf	(___flmul@a+3)^0,c
  4983   0021DE  C073  F028         	movff	efgtoa@ou,___flmul@b
  4984   0021E2  C074  F029         	movff	efgtoa@ou+1,___flmul@b+1
  4985   0021E6  C075  F02A         	movff	efgtoa@ou+2,___flmul@b+2
  4986   0021EA  C076  F02B         	movff	efgtoa@ou+3,___flmul@b+3
  4987   0021EE  EC0D  F015         	call	___flmul	;wreg free
  4988   0021F2  C028  F045         	movff	?___flmul,___flge@ff2
  4989   0021F6  C029  F046         	movff	?___flmul+1,___flge@ff2+1
  4990   0021FA  C02A  F047         	movff	?___flmul+2,___flge@ff2+2
  4991   0021FE  C02B  F048         	movff	?___flmul+3,___flge@ff2+3
  4992   002202  ECD6  F01F         	call	___flge	;wreg free
  4993   002206  A0D8               	btfss	status,0,c
  4994   002208  EF08  F011         	goto	u4561
  4995   00220C  EF0A  F011         	goto	u4560
  4996   002210                     u4561:
  4997   002210  EF33  F011         	goto	l4986
  4998   002214                     u4560:
  4999   002214                     
  5000                           ;C:\Program Files\Microchip\xc8\v2.41\pic\sources\c99\common\doprnt.c: 703:   e++;
  5001   002214  0100               	movlb	0	; () banked
  5002   002216  4B6F               	infsnz	efgtoa@e& (0+255),f,b
  5003   002218  2B70               	incf	(efgtoa@e+1)& (0+255),f,b
  5004   00221A                     
  5005                           ; BSR set to: 0
  5006                           ;C:\Program Files\Microchip\xc8\v2.41\pic\sources\c99\common\doprnt.c: 704:   ou.f *= 10
      +                          .0;
  5007   00221A  C073  F028         	movff	efgtoa@ou,___flmul@b
  5008   00221E  C074  F029         	movff	efgtoa@ou+1,___flmul@b+1
  5009   002222  C075  F02A         	movff	efgtoa@ou+2,___flmul@b+2
  5010   002226  C076  F02B         	movff	efgtoa@ou+3,___flmul@b+3
  5011   00222A  0E00               	movlw	0
  5012   00222C  6E2C               	movwf	___flmul@a^0,c
  5013   00222E  0E00               	movlw	0
  5014   002230  6E2D               	movwf	(___flmul@a+1)^0,c
  5015   002232  0E20               	movlw	32
  5016   002234  6E2E               	movwf	(___flmul@a+2)^0,c
  5017   002236  0E41               	movlw	65
  5018   002238  6E2F               	movwf	(___flmul@a+3)^0,c
  5019   00223A  EC0D  F015         	call	___flmul	;wreg free
  5020   00223E  C028  F073         	movff	?___flmul,efgtoa@ou
  5021   002242  C029  F074         	movff	?___flmul+1,efgtoa@ou+1
  5022   002246  C02A  F075         	movff	?___flmul+2,efgtoa@ou+2
  5023   00224A  C02B  F076         	movff	?___flmul+3,efgtoa@ou+3
  5024   00224E                     
  5025                           ;C:\Program Files\Microchip\xc8\v2.41\pic\sources\c99\common\doprnt.c: 706:   if (nmode 
      +                          == 'f') {
  5026   00224E  0E66               	movlw	102
  5027   002250  0100               	movlb	0	; () banked
  5028   002252  196A               	xorwf	efgtoa@nmode& (0+255),w,b
  5029   002254  A4D8               	btfss	status,2,c
  5030   002256  EF2F  F011         	goto	u4571
  5031   00225A  EF31  F011         	goto	u4570
  5032   00225E                     u4571:
  5033   00225E  EF33  F011         	goto	l4986
  5034   002262                     u4570:
  5035   002262                     
  5036                           ; BSR set to: 0
  5037                           ;C:\Program Files\Microchip\xc8\v2.41\pic\sources\c99\common\doprnt.c: 708:    m++;
  5038   002262  4B6D               	infsnz	efgtoa@m& (0+255),f,b
  5039   002264  2B6E               	incf	(efgtoa@m+1)& (0+255),f,b
  5040   002266                     l4986:
  5041                           
  5042                           ;C:\Program Files\Microchip\xc8\v2.41\pic\sources\c99\common\doprnt.c: 714:     u = ou;
  5043   002266  C073  F088         	movff	efgtoa@ou,efgtoa@u
  5044   00226A  C074  F089         	movff	efgtoa@ou+1,efgtoa@u+1
  5045   00226E  C075  F08A         	movff	efgtoa@ou+2,efgtoa@u+2
  5046   002272  C076  F08B         	movff	efgtoa@ou+3,efgtoa@u+3
  5047   002276                     
  5048                           ;C:\Program Files\Microchip\xc8\v2.41\pic\sources\c99\common\doprnt.c: 718:  ne = e;
  5049   002276  C06F  F060         	movff	efgtoa@e,efgtoa@ne
  5050   00227A  C070  F061         	movff	efgtoa@e+1,efgtoa@ne+1
  5051   00227E                     
  5052                           ;C:\Program Files\Microchip\xc8\v2.41\pic\sources\c99\common\doprnt.c: 720:     pp = 0;
  5053   00227E  0E00               	movlw	0
  5054   002280  0100               	movlb	0	; () banked
  5055   002282  6F68               	movwf	efgtoa@pp& (0+255),b
  5056   002284                     
  5057                           ; BSR set to: 0
  5058                           ;C:\Program Files\Microchip\xc8\v2.41\pic\sources\c99\common\doprnt.c: 721:     t = 0;
  5059   002284  0E00               	movlw	0
  5060   002286  6F65               	movwf	(efgtoa@t+1)& (0+255),b
  5061   002288  0E00               	movlw	0
  5062   00228A  6F64               	movwf	efgtoa@t& (0+255),b
  5063   00228C                     
  5064                           ; BSR set to: 0
  5065                           ;C:\Program Files\Microchip\xc8\v2.41\pic\sources\c99\common\doprnt.c: 722:     i = 0;
  5066   00228C  0E00               	movlw	0
  5067   00228E  6F78               	movwf	(efgtoa@i+1)& (0+255),b
  5068   002290  0E00               	movlw	0
  5069   002292  6F77               	movwf	efgtoa@i& (0+255),b
  5070                           
  5071                           ;C:\Program Files\Microchip\xc8\v2.41\pic\sources\c99\common\doprnt.c: 723:     while ((
      +                          i < m) && (n < (80 - 5))) {
  5072   002294  EF31  F012         	goto	l5036
  5073   002298                     l4996:
  5074                           
  5075                           ; BSR set to: 0
  5076                           ;C:\Program Files\Microchip\xc8\v2.41\pic\sources\c99\common\doprnt.c: 724:         l = 
      +                          floorf(h/u.f);
  5077   002298  C079  F00F         	movff	efgtoa@h,___fldiv@b
  5078   00229C  C07A  F010         	movff	efgtoa@h+1,___fldiv@b+1
  5079   0022A0  C07B  F011         	movff	efgtoa@h+2,___fldiv@b+2
  5080   0022A4  C07C  F012         	movff	efgtoa@h+3,___fldiv@b+3
  5081   0022A8  C088  F013         	movff	efgtoa@u,___fldiv@a
  5082   0022AC  C089  F014         	movff	efgtoa@u+1,___fldiv@a+1
  5083   0022B0  C08A  F015         	movff	efgtoa@u+2,___fldiv@a+2
  5084   0022B4  C08B  F016         	movff	efgtoa@u+3,___fldiv@a+3
  5085   0022B8  EC34  F017         	call	___fldiv	;wreg free
  5086   0022BC  C00F  F028         	movff	?___fldiv,floorf@x
  5087   0022C0  C010  F029         	movff	?___fldiv+1,floorf@x+1
  5088   0022C4  C011  F02A         	movff	?___fldiv+2,floorf@x+2
  5089   0022C8  C012  F02B         	movff	?___fldiv+3,floorf@x+3
  5090   0022CC  ECAD  F01A         	call	_floorf	;wreg free
  5091   0022D0  C028  F07D         	movff	?_floorf,efgtoa@l
  5092   0022D4  C029  F07E         	movff	?_floorf+1,efgtoa@l+1
  5093   0022D8  C02A  F07F         	movff	?_floorf+2,efgtoa@l+2
  5094   0022DC  C02B  F080         	movff	?_floorf+3,efgtoa@l+3
  5095                           
  5096                           ;C:\Program Files\Microchip\xc8\v2.41\pic\sources\c99\common\doprnt.c: 725:         d = 
      +                          (int)l > 9 ? 9 : (int)l;
  5097   0022E0  C07D  F001         	movff	efgtoa@l,___fltol@f1
  5098   0022E4  C07E  F002         	movff	efgtoa@l+1,___fltol@f1+1
  5099   0022E8  C07F  F003         	movff	efgtoa@l+2,___fltol@f1+2
  5100   0022EC  C080  F004         	movff	efgtoa@l+3,___fltol@f1+3
  5101   0022F0  EC53  F01F         	call	___fltol	;wreg free
  5102   0022F4  BE02               	btfsc	(?___fltol+1)^0,7,c
  5103   0022F6  EF88  F011         	goto	u4580
  5104   0022FA  5002               	movf	(?___fltol+1)^0,w,c
  5105   0022FC  E107               	bnz	u4581
  5106   0022FE  0E0A               	movlw	10
  5107   002300  5C01               	subwf	?___fltol^0,w,c
  5108   002302  B0D8               	btfsc	status,0,c
  5109   002304  EF86  F011         	goto	u4581
  5110   002308  EF88  F011         	goto	u4580
  5111   00230C                     u4581:
  5112   00230C  EF98  F011         	goto	l5000
  5113   002310                     u4580:
  5114   002310  C07D  F001         	movff	efgtoa@l,___fltol@f1
  5115   002314  C07E  F002         	movff	efgtoa@l+1,___fltol@f1+1
  5116   002318  C07F  F003         	movff	efgtoa@l+2,___fltol@f1+2
  5117   00231C  C080  F004         	movff	efgtoa@l+3,___fltol@f1+3
  5118   002320  EC53  F01F         	call	___fltol	;wreg free
  5119   002324  C001  F06B         	movff	?___fltol,efgtoa@d
  5120   002328  C002  F06C         	movff	?___fltol+1,efgtoa@d+1
  5121   00232C  EF9D  F011         	goto	l1664
  5122   002330                     l5000:
  5123   002330  0E00               	movlw	0
  5124   002332  0100               	movlb	0	; () banked
  5125   002334  6F6C               	movwf	(efgtoa@d+1)& (0+255),b
  5126   002336  0E09               	movlw	9
  5127   002338  6F6B               	movwf	efgtoa@d& (0+255),b
  5128   00233A                     l1664:
  5129                           
  5130                           ;C:\Program Files\Microchip\xc8\v2.41\pic\sources\c99\common\doprnt.c: 736:   {;C:\Progr
      +                          am Files\Microchip\xc8\v2.41\pic\sources\c99\common\doprnt.c: 737:             if (!pp &
      +                          & (ne < 0)) {
  5131   00233A  0100               	movlb	0	; () banked
  5132   00233C  5168               	movf	efgtoa@pp& (0+255),w,b
  5133   00233E  A4D8               	btfss	status,2,c
  5134   002340  EFA4  F011         	goto	u4591
  5135   002344  EFA6  F011         	goto	u4590
  5136   002348                     u4591:
  5137   002348  EFCE  F011         	goto	l5020
  5138   00234C                     u4590:
  5139   00234C                     
  5140                           ; BSR set to: 0
  5141   00234C  BF61               	btfsc	(efgtoa@ne+1)& (0+255),7,b
  5142   00234E  EFAD  F011         	goto	u4600
  5143   002352  EFAB  F011         	goto	u4601
  5144   002356                     u4601:
  5145   002356  EFCE  F011         	goto	l5020
  5146   00235A                     u4600:
  5147   00235A                     
  5148                           ; BSR set to: 0
  5149                           ;C:\Program Files\Microchip\xc8\v2.41\pic\sources\c99\common\doprnt.c: 738:             
      +                              dbuf[n++] = '.';
  5150   00235A  0E32               	movlw	low _dbuf
  5151   00235C  2582               	addwf	efgtoa@n& (0+255),w,b
  5152   00235E  6ED9               	movwf	fsr2l,c
  5153   002360  0E01               	movlw	high _dbuf
  5154   002362  2183               	addwfc	(efgtoa@n+1)& (0+255),w,b
  5155   002364  6EDA               	movwf	fsr2h,c
  5156   002366  0E2E               	movlw	46
  5157   002368  6EDF               	movwf	indf2,c
  5158   00236A                     
  5159                           ; BSR set to: 0
  5160   00236A  4B82               	infsnz	efgtoa@n& (0+255),f,b
  5161   00236C  2B83               	incf	(efgtoa@n+1)& (0+255),f,b
  5162   00236E                     
  5163                           ; BSR set to: 0
  5164                           ;C:\Program Files\Microchip\xc8\v2.41\pic\sources\c99\common\doprnt.c: 739:             
      +                              --w;
  5165   00236E  0771               	decf	efgtoa@w& (0+255),f,b
  5166   002370  A0D8               	btfss	status,0,c
  5167   002372  0772               	decf	(efgtoa@w+1)& (0+255),f,b
  5168   002374                     
  5169                           ; BSR set to: 0
  5170                           ;C:\Program Files\Microchip\xc8\v2.41\pic\sources\c99\common\doprnt.c: 740:             
      +                              pp = 1;
  5171   002374  0E01               	movlw	1
  5172   002376  6F68               	movwf	efgtoa@pp& (0+255),b
  5173   002378  EFCE  F011         	goto	l5020
  5174   00237C                     l5012:
  5175                           
  5176                           ; BSR set to: 0
  5177                           ;C:\Program Files\Microchip\xc8\v2.41\pic\sources\c99\common\doprnt.c: 743:             
      +                              dbuf[n++] = '0';
  5178   00237C  0E32               	movlw	low _dbuf
  5179   00237E  2582               	addwf	efgtoa@n& (0+255),w,b
  5180   002380  6ED9               	movwf	fsr2l,c
  5181   002382  0E01               	movlw	high _dbuf
  5182   002384  2183               	addwfc	(efgtoa@n+1)& (0+255),w,b
  5183   002386  6EDA               	movwf	fsr2h,c
  5184   002388  0E30               	movlw	48
  5185   00238A  6EDF               	movwf	indf2,c
  5186   00238C                     
  5187                           ; BSR set to: 0
  5188   00238C  4B82               	infsnz	efgtoa@n& (0+255),f,b
  5189   00238E  2B83               	incf	(efgtoa@n+1)& (0+255),f,b
  5190   002390                     
  5191                           ; BSR set to: 0
  5192                           ;C:\Program Files\Microchip\xc8\v2.41\pic\sources\c99\common\doprnt.c: 744:             
      +                              --w;
  5193   002390  0771               	decf	efgtoa@w& (0+255),f,b
  5194   002392  A0D8               	btfss	status,0,c
  5195   002394  0772               	decf	(efgtoa@w+1)& (0+255),f,b
  5196   002396                     
  5197                           ; BSR set to: 0
  5198                           ;C:\Program Files\Microchip\xc8\v2.41\pic\sources\c99\common\doprnt.c: 745:             
      +                              --t;
  5199   002396  0764               	decf	efgtoa@t& (0+255),f,b
  5200   002398  A0D8               	btfss	status,0,c
  5201   00239A  0765               	decf	(efgtoa@t+1)& (0+255),f,b
  5202   00239C                     l5020:
  5203                           
  5204                           ; BSR set to: 0
  5205                           ;C:\Program Files\Microchip\xc8\v2.41\pic\sources\c99\common\doprnt.c: 742:             
      +                          while (t) {
  5206   00239C  5164               	movf	efgtoa@t& (0+255),w,b
  5207   00239E  1165               	iorwf	(efgtoa@t+1)& (0+255),w,b
  5208   0023A0  A4D8               	btfss	status,2,c
  5209   0023A2  EFD5  F011         	goto	u4611
  5210   0023A6  EFD7  F011         	goto	u4610
  5211   0023AA                     u4611:
  5212   0023AA  EFBE  F011         	goto	l5012
  5213   0023AE                     u4610:
  5214   0023AE                     
  5215                           ; BSR set to: 0
  5216                           ;C:\Program Files\Microchip\xc8\v2.41\pic\sources\c99\common\doprnt.c: 747:             
      +                          dbuf[n++] = (char)((int)'0' + d);
  5217   0023AE  0E32               	movlw	low _dbuf
  5218   0023B0  2582               	addwf	efgtoa@n& (0+255),w,b
  5219   0023B2  6ED9               	movwf	fsr2l,c
  5220   0023B4  0E01               	movlw	high _dbuf
  5221   0023B6  2183               	addwfc	(efgtoa@n+1)& (0+255),w,b
  5222   0023B8  6EDA               	movwf	fsr2h,c
  5223   0023BA  516B               	movf	efgtoa@d& (0+255),w,b
  5224   0023BC  0F30               	addlw	48
  5225   0023BE  6EDF               	movwf	indf2,c
  5226   0023C0                     
  5227                           ; BSR set to: 0
  5228   0023C0  4B82               	infsnz	efgtoa@n& (0+255),f,b
  5229   0023C2  2B83               	incf	(efgtoa@n+1)& (0+255),f,b
  5230   0023C4                     
  5231                           ; BSR set to: 0
  5232                           ;C:\Program Files\Microchip\xc8\v2.41\pic\sources\c99\common\doprnt.c: 748:             
      +                          --w;
  5233   0023C4  0771               	decf	efgtoa@w& (0+255),f,b
  5234   0023C6  A0D8               	btfss	status,0,c
  5235   0023C8  0772               	decf	(efgtoa@w+1)& (0+255),f,b
  5236   0023CA                     
  5237                           ; BSR set to: 0
  5238                           ;C:\Program Files\Microchip\xc8\v2.41\pic\sources\c99\common\doprnt.c: 749:         };C:
      +                          \Program Files\Microchip\xc8\v2.41\pic\sources\c99\common\doprnt.c: 750:         h -= l*
      +                          u.f;
  5239   0023CA  C079  F041         	movff	efgtoa@h,___flsub@b
  5240   0023CE  C07A  F042         	movff	efgtoa@h+1,___flsub@b+1
  5241   0023D2  C07B  F043         	movff	efgtoa@h+2,___flsub@b+2
  5242   0023D6  C07C  F044         	movff	efgtoa@h+3,___flsub@b+3
  5243   0023DA  C07D  F02C         	movff	efgtoa@l,___flmul@a
  5244   0023DE  C07E  F02D         	movff	efgtoa@l+1,___flmul@a+1
  5245   0023E2  C07F  F02E         	movff	efgtoa@l+2,___flmul@a+2
  5246   0023E6  C080  F02F         	movff	efgtoa@l+3,___flmul@a+3
  5247   0023EA  C088  F028         	movff	efgtoa@u,___flmul@b
  5248   0023EE  C089  F029         	movff	efgtoa@u+1,___flmul@b+1
  5249   0023F2  C08A  F02A         	movff	efgtoa@u+2,___flmul@b+2
  5250   0023F6  C08B  F02B         	movff	efgtoa@u+3,___flmul@b+3
  5251   0023FA  EC0D  F015         	call	___flmul	;wreg free
  5252   0023FE  C028  F045         	movff	?___flmul,___flsub@a
  5253   002402  C029  F046         	movff	?___flmul+1,___flsub@a+1
  5254   002406  C02A  F047         	movff	?___flmul+2,___flsub@a+2
  5255   00240A  C02B  F048         	movff	?___flmul+3,___flsub@a+3
  5256   00240E  EC82  F028         	call	___flsub	;wreg free
  5257   002412  C041  F079         	movff	?___flsub,efgtoa@h
  5258   002416  C042  F07A         	movff	?___flsub+1,efgtoa@h+1
  5259   00241A  C043  F07B         	movff	?___flsub+2,efgtoa@h+2
  5260   00241E  C044  F07C         	movff	?___flsub+3,efgtoa@h+3
  5261   002422                     
  5262                           ;C:\Program Files\Microchip\xc8\v2.41\pic\sources\c99\common\doprnt.c: 751:         u.f 
      +                          = u.f/10.0;
  5263   002422  C088  F00F         	movff	efgtoa@u,___fldiv@b
  5264   002426  C089  F010         	movff	efgtoa@u+1,___fldiv@b+1
  5265   00242A  C08A  F011         	movff	efgtoa@u+2,___fldiv@b+2
  5266   00242E  C08B  F012         	movff	efgtoa@u+3,___fldiv@b+3
  5267   002432  0E00               	movlw	0
  5268   002434  6E13               	movwf	___fldiv@a^0,c
  5269   002436  0E00               	movlw	0
  5270   002438  6E14               	movwf	(___fldiv@a+1)^0,c
  5271   00243A  0E20               	movlw	32
  5272   00243C  6E15               	movwf	(___fldiv@a+2)^0,c
  5273   00243E  0E41               	movlw	65
  5274   002440  6E16               	movwf	(___fldiv@a+3)^0,c
  5275   002442  EC34  F017         	call	___fldiv	;wreg free
  5276   002446  C00F  F088         	movff	?___fldiv,efgtoa@u
  5277   00244A  C010  F089         	movff	?___fldiv+1,efgtoa@u+1
  5278   00244E  C011  F08A         	movff	?___fldiv+2,efgtoa@u+2
  5279   002452  C012  F08B         	movff	?___fldiv+3,efgtoa@u+3
  5280   002456                     
  5281                           ;C:\Program Files\Microchip\xc8\v2.41\pic\sources\c99\common\doprnt.c: 752:         --ne
      +                          ;
  5282   002456  0100               	movlb	0	; () banked
  5283   002458  0760               	decf	efgtoa@ne& (0+255),f,b
  5284   00245A  A0D8               	btfss	status,0,c
  5285   00245C  0761               	decf	(efgtoa@ne+1)& (0+255),f,b
  5286   00245E                     
  5287                           ; BSR set to: 0
  5288                           ;C:\Program Files\Microchip\xc8\v2.41\pic\sources\c99\common\doprnt.c: 753:         ++i;
  5289   00245E  4B77               	infsnz	efgtoa@i& (0+255),f,b
  5290   002460  2B78               	incf	(efgtoa@i+1)& (0+255),f,b
  5291   002462                     l5036:
  5292                           
  5293                           ; BSR set to: 0
  5294                           ;C:\Program Files\Microchip\xc8\v2.41\pic\sources\c99\common\doprnt.c: 723:     while ((
      +                          i < m) && (n < (80 - 5))) {
  5295   002462  516D               	movf	efgtoa@m& (0+255),w,b
  5296   002464  5D77               	subwf	efgtoa@i& (0+255),w,b
  5297   002466  5178               	movf	(efgtoa@i+1)& (0+255),w,b
  5298   002468  0A80               	xorlw	128
  5299   00246A  6E54               	movwf	??_efgtoa^0,c
  5300   00246C  516E               	movf	(efgtoa@m+1)& (0+255),w,b
  5301   00246E  0A80               	xorlw	128
  5302   002470  5854               	subwfb	??_efgtoa^0,w,c
  5303   002472  B0D8               	btfsc	status,0,c
  5304   002474  EF3E  F012         	goto	u4621
  5305   002478  EF40  F012         	goto	u4620
  5306   00247C                     u4621:
  5307   00247C  EF4E  F012         	goto	l5040
  5308   002480                     u4620:
  5309   002480                     
  5310                           ; BSR set to: 0
  5311   002480  BF83               	btfsc	(efgtoa@n+1)& (0+255),7,b
  5312   002482  EF4C  F012         	goto	u4631
  5313   002486  5183               	movf	(efgtoa@n+1)& (0+255),w,b
  5314   002488  E109               	bnz	u4630
  5315   00248A  0E4B               	movlw	75
  5316   00248C  5D82               	subwf	efgtoa@n& (0+255),w,b
  5317   00248E  A0D8               	btfss	status,0,c
  5318   002490  EF4C  F012         	goto	u4631
  5319   002494  EF4E  F012         	goto	u4630
  5320   002498                     u4631:
  5321   002498  EF4C  F011         	goto	l4996
  5322   00249C                     u4630:
  5323   00249C                     l5040:
  5324                           
  5325                           ; BSR set to: 0
  5326                           ;C:\Program Files\Microchip\xc8\v2.41\pic\sources\c99\common\doprnt.c: 760:  i = sizeof(
      +                          dbuf) - 1;
  5327   00249C  0E00               	movlw	0
  5328   00249E  6F78               	movwf	(efgtoa@i+1)& (0+255),b
  5329   0024A0  0E4F               	movlw	79
  5330   0024A2  6F77               	movwf	efgtoa@i& (0+255),b
  5331   0024A4                     
  5332                           ; BSR set to: 0
  5333                           ;C:\Program Files\Microchip\xc8\v2.41\pic\sources\c99\common\doprnt.c: 761:     dbuf[i] 
      +                          = '\0';
  5334   0024A4  0E32               	movlw	low _dbuf
  5335   0024A6  2577               	addwf	efgtoa@i& (0+255),w,b
  5336   0024A8  6ED9               	movwf	fsr2l,c
  5337   0024AA  0E01               	movlw	high _dbuf
  5338   0024AC  2178               	addwfc	(efgtoa@i+1)& (0+255),w,b
  5339   0024AE  6EDA               	movwf	fsr2h,c
  5340   0024B0  6ADF               	clrf	indf2,c
  5341   0024B2                     
  5342                           ; BSR set to: 0
  5343                           ;C:\Program Files\Microchip\xc8\v2.41\pic\sources\c99\common\doprnt.c: 792:  memcpy(&dbu
      +                          f[i-n], &dbuf[0], (size_t)n);
  5344   0024B2  0E32               	movlw	low _dbuf
  5345   0024B4  6E54               	movwf	??_efgtoa^0,c
  5346   0024B6  0E01               	movlw	high _dbuf
  5347   0024B8  6E55               	movwf	(??_efgtoa+1)^0,c
  5348   0024BA  5182               	movf	efgtoa@n& (0+255),w,b
  5349   0024BC  5E54               	subwf	??_efgtoa^0,f,c
  5350   0024BE  5183               	movf	(efgtoa@n+1)& (0+255),w,b
  5351   0024C0  5A55               	subwfb	(??_efgtoa+1)^0,f,c
  5352   0024C2  5177               	movf	efgtoa@i& (0+255),w,b
  5353   0024C4  2454               	addwf	??_efgtoa^0,w,c
  5354   0024C6  6E01               	movwf	memcpy@d1^0,c
  5355   0024C8  5178               	movf	(efgtoa@i+1)& (0+255),w,b
  5356   0024CA  2055               	addwfc	(??_efgtoa+1)^0,w,c
  5357   0024CC  6E02               	movwf	(memcpy@d1+1)^0,c
  5358   0024CE  0E32               	movlw	low _dbuf
  5359   0024D0  6E03               	movwf	memcpy@s1^0,c
  5360   0024D2  0E01               	movlw	high _dbuf
  5361   0024D4  6E04               	movwf	(memcpy@s1+1)^0,c
  5362   0024D6  C082  F005         	movff	efgtoa@n,memcpy@n
  5363   0024DA  C083  F006         	movff	efgtoa@n+1,memcpy@n+1
  5364   0024DE  ECB8  F027         	call	_memcpy	;wreg free
  5365   0024E2                     
  5366                           ;C:\Program Files\Microchip\xc8\v2.41\pic\sources\c99\common\doprnt.c: 793:  n = i-n;
  5367   0024E2  0100               	movlb	0	; () banked
  5368   0024E4  5182               	movf	efgtoa@n& (0+255),w,b
  5369   0024E6  5D77               	subwf	efgtoa@i& (0+255),w,b
  5370   0024E8  6F82               	movwf	efgtoa@n& (0+255),b
  5371   0024EA  5183               	movf	(efgtoa@n+1)& (0+255),w,b
  5372   0024EC  5978               	subwfb	(efgtoa@i+1)& (0+255),w,b
  5373   0024EE  6F83               	movwf	(efgtoa@n+1)& (0+255),b
  5374   0024F0                     
  5375                           ; BSR set to: 0
  5376                           ;C:\Program Files\Microchip\xc8\v2.41\pic\sources\c99\common\doprnt.c: 794:  i = sign ==
      +                           0 ? 0 : 1;
  5377   0024F0  5181               	movf	efgtoa@sign& (0+255),w,b
  5378   0024F2  A4D8               	btfss	status,2,c
  5379   0024F4  EF7E  F012         	goto	u4641
  5380   0024F8  EF81  F012         	goto	u4640
  5381   0024FC                     u4641:
  5382   0024FC  0E01               	movlw	1
  5383   0024FE  EF82  F012         	goto	u4650
  5384   002502                     u4640:
  5385   002502  0E00               	movlw	0
  5386   002504                     u4650:
  5387   002504  6F77               	movwf	efgtoa@i& (0+255),b
  5388   002506  6B78               	clrf	(efgtoa@i+1)& (0+255),b
  5389   002508                     
  5390                           ; BSR set to: 0
  5391                           ;C:\Program Files\Microchip\xc8\v2.41\pic\sources\c99\common\doprnt.c: 805:  if (sign) {
  5392   002508  5181               	movf	efgtoa@sign& (0+255),w,b
  5393   00250A  B4D8               	btfsc	status,2,c
  5394   00250C  EF8A  F012         	goto	u4661
  5395   002510  EF8C  F012         	goto	u4660
  5396   002514                     u4661:
  5397   002514  EF98  F012         	goto	l5054
  5398   002518                     u4660:
  5399   002518                     
  5400                           ; BSR set to: 0
  5401                           ;C:\Program Files\Microchip\xc8\v2.41\pic\sources\c99\common\doprnt.c: 806:   dbuf[--n] 
      +                          = sign;
  5402   002518  0782               	decf	efgtoa@n& (0+255),f,b
  5403   00251A  A0D8               	btfss	status,0,c
  5404   00251C  0783               	decf	(efgtoa@n+1)& (0+255),f,b
  5405   00251E  0E32               	movlw	low _dbuf
  5406   002520  2582               	addwf	efgtoa@n& (0+255),w,b
  5407   002522  6ED9               	movwf	fsr2l,c
  5408   002524  0E01               	movlw	high _dbuf
  5409   002526  2183               	addwfc	(efgtoa@n+1)& (0+255),w,b
  5410   002528  6EDA               	movwf	fsr2h,c
  5411   00252A  0060  F207  FFDF   	movff	efgtoa@sign,indf2
  5412   002530                     l5054:
  5413                           
  5414                           ; BSR set to: 0
  5415                           ;C:\Program Files\Microchip\xc8\v2.41\pic\sources\c99\common\doprnt.c: 808:  w -= i;
  5416   002530  5177               	movf	efgtoa@i& (0+255),w,b
  5417   002532  5F71               	subwf	efgtoa@w& (0+255),f,b
  5418   002534  5178               	movf	(efgtoa@i+1)& (0+255),w,b
  5419   002536  5B72               	subwfb	(efgtoa@w+1)& (0+255),f,b
  5420   002538                     
  5421                           ; BSR set to: 0
  5422                           ;C:\Program Files\Microchip\xc8\v2.41\pic\sources\c99\common\doprnt.c: 811:     return (
      +                          void) pad(fp, &dbuf[n], w);
  5423   002538  C04D  F011         	movff	efgtoa@fp,pad@fp
  5424   00253C  C04E  F012         	movff	efgtoa@fp+1,pad@fp+1
  5425   002540  0E32               	movlw	low _dbuf
  5426   002542  2582               	addwf	efgtoa@n& (0+255),w,b
  5427   002544  6E13               	movwf	pad@buf^0,c
  5428   002546  0E01               	movlw	high _dbuf
  5429   002548  2183               	addwfc	(efgtoa@n+1)& (0+255),w,b
  5430   00254A  6E14               	movwf	(pad@buf+1)^0,c
  5431   00254C  C071  F015         	movff	efgtoa@w,pad@p
  5432   002550  C072  F016         	movff	efgtoa@w+1,pad@p+1
  5433   002554  ECC3  F024         	call	_pad	;wreg free
  5434   002558                     l1631:
  5435   002558  0012               	return		;funcret
  5436   00255A                     __end_of_efgtoa:
  5437                           	callstack 0
  5438                           
  5439 ;; *************** function _strcpy *****************
  5440 ;; Defined at:
  5441 ;;		line 3 in file "C:\Program Files\Microchip\xc8\v2.41\pic\sources\c99\common\strcpy.c"
  5442 ;; Parameters:    Size  Location     Type
  5443 ;;  dest            2    0[COMRAM] PTR unsigned char 
  5444 ;;		 -> dbuf(80), 
  5445 ;;  src             2    2[COMRAM] PTR const unsigned char 
  5446 ;;		 -> STR_6(4), STR_3(4), 
  5447 ;; Auto vars:     Size  Location     Type
  5448 ;;  d               2    6[COMRAM] PTR unsigned char 
  5449 ;;		 -> dbuf(80), 
  5450 ;;  s               2    4[COMRAM] PTR const unsigned char 
  5451 ;;		 -> STR_6(4), STR_3(4), 
  5452 ;; Return value:  Size  Location     Type
  5453 ;;                  2    0[COMRAM] PTR unsigned char 
  5454 ;; Registers used:
  5455 ;;		wreg, fsr2l, fsr2h, status,2, status,0, tblptrl, tblptrh, tblptru
  5456 ;; Tracked objects:
  5457 ;;		On entry : 0/0
  5458 ;;		On exit  : 0/0
  5459 ;;		Unchanged: 0/0
  5460 ;; Data sizes:     COMRAM   BANK0   BANK1   BANK2   BANK3   BANK4   BANK5   BANK6   BANK7   BANK8   BANK9  BANK10  BANK1
      +1  BANK12  BANK13  BANK14  BANK15
  5461 ;;      Params:         4       0       0       0       0       0       0       0       0       0       0       0       
      +0       0       0       0       0
  5462 ;;      Locals:         4       0       0       0       0       0       0       0       0       0       0       0       
      +0       0       0       0       0
  5463 ;;      Temps:          0       0       0       0       0       0       0       0       0       0       0       0       
      +0       0       0       0       0
  5464 ;;      Totals:         8       0       0       0       0       0       0       0       0       0       0       0       
      +0       0       0       0       0
  5465 ;;Total ram usage:        8 bytes
  5466 ;; Hardware stack levels used: 1
  5467 ;; Hardware stack levels required when called: 2
  5468 ;; This function calls:
  5469 ;;		Nothing
  5470 ;; This function is called by:
  5471 ;;		_efgtoa
  5472 ;; This function uses a non-reentrant model
  5473 ;;
  5474                           
  5475                           	psect	text6
  5476   005070                     __ptext6:
  5477                           	callstack 0
  5478   005070                     _strcpy:
  5479                           	callstack 23
  5480   005070  C003  F005         	movff	strcpy@src,strcpy@s
  5481   005074  C004  F006         	movff	strcpy@src+1,strcpy@s+1
  5482   005078  C001  F007         	movff	strcpy@dest,strcpy@d
  5483   00507C  C002  F008         	movff	strcpy@dest+1,strcpy@d+1
  5484   005080                     l4742:
  5485   005080  0060  F017  FFF6   	movff	strcpy@s,tblptrl
  5486   005086  0060  F01B  FFF7   	movff	strcpy@s+1,tblptrh
  5487   00508C  4A05               	infsnz	strcpy@s^0,f,c
  5488   00508E  2A06               	incf	(strcpy@s+1)^0,f,c
  5489   005090                     	if	1	;Program memory is < 0x10000, tblptru is always zero
  5490   005090  6AF8               	clrf	tblptru,c
  5491   005092                     	endif
  5492   005092                     	if	0	;tblptru may be non-zero
  5493   005092                     	endif
  5494   005092  0060  F01F  FFD9   	movff	strcpy@d,fsr2l
  5495   005098  0060  F023  FFDA   	movff	strcpy@d+1,fsr2h
  5496   00509E  4A07               	infsnz	strcpy@d^0,f,c
  5497   0050A0  2A08               	incf	(strcpy@d+1)^0,f,c
  5498   0050A2  0008               	tblrd		*
  5499   0050A4  006F FFD7 FFDF     	movff	tablat,indf2
  5500   0050AA  50DF               	movf	indf2,w,c
  5501   0050AC  A4D8               	btfss	status,2,c
  5502   0050AE  EF5B  F028         	goto	u4121
  5503   0050B2  EF5D  F028         	goto	u4120
  5504   0050B6                     u4121:
  5505   0050B6  EF40  F028         	goto	l4742
  5506   0050BA                     u4120:
  5507   0050BA  0012               	return		;funcret
  5508   0050BC                     __end_of_strcpy:
  5509                           	callstack 0
  5510                           
  5511 ;; *************** function _memcpy *****************
  5512 ;; Defined at:
  5513 ;;		line 4 in file "C:\Program Files\Microchip\xc8\v2.41\pic\sources\c99\common\memcpy.c"
  5514 ;; Parameters:    Size  Location     Type
  5515 ;;  d1              2    0[COMRAM] PTR void 
  5516 ;;		 -> dbuf(80), 
  5517 ;;  s1              2    2[COMRAM] PTR const void 
  5518 ;;		 -> dbuf(80), 
  5519 ;;  n               2    4[COMRAM] unsigned int 
  5520 ;; Auto vars:     Size  Location     Type
  5521 ;;  s               2    8[COMRAM] PTR const unsigned char 
  5522 ;;		 -> dbuf(80), 
  5523 ;;  d               2    6[COMRAM] PTR unsigned char 
  5524 ;;		 -> dbuf(80), 
  5525 ;;  tmp             1   10[COMRAM] unsigned char 
  5526 ;; Return value:  Size  Location     Type
  5527 ;;                  2    0[COMRAM] PTR void 
  5528 ;; Registers used:
  5529 ;;		wreg, fsr2l, fsr2h, status,2, status,0
  5530 ;; Tracked objects:
  5531 ;;		On entry : 0/0
  5532 ;;		On exit  : 0/0
  5533 ;;		Unchanged: 0/0
  5534 ;; Data sizes:     COMRAM   BANK0   BANK1   BANK2   BANK3   BANK4   BANK5   BANK6   BANK7   BANK8   BANK9  BANK10  BANK1
      +1  BANK12  BANK13  BANK14  BANK15
  5535 ;;      Params:         6       0       0       0       0       0       0       0       0       0       0       0       
      +0       0       0       0       0
  5536 ;;      Locals:         5       0       0       0       0       0       0       0       0       0       0       0       
      +0       0       0       0       0
  5537 ;;      Temps:          0       0       0       0       0       0       0       0       0       0       0       0       
      +0       0       0       0       0
  5538 ;;      Totals:        11       0       0       0       0       0       0       0       0       0       0       0       
      +0       0       0       0       0
  5539 ;;Total ram usage:       11 bytes
  5540 ;; Hardware stack levels used: 1
  5541 ;; Hardware stack levels required when called: 2
  5542 ;; This function calls:
  5543 ;;		Nothing
  5544 ;; This function is called by:
  5545 ;;		_efgtoa
  5546 ;; This function uses a non-reentrant model
  5547 ;;
  5548                           
  5549                           	psect	text7
  5550   004F70                     __ptext7:
  5551                           	callstack 0
  5552   004F70                     _memcpy:
  5553                           	callstack 23
  5554   004F70  C003  F009         	movff	memcpy@s1,memcpy@s
  5555   004F74  C004  F00A         	movff	memcpy@s1+1,memcpy@s+1
  5556   004F78  C001  F007         	movff	memcpy@d1,memcpy@d
  5557   004F7C  C002  F008         	movff	memcpy@d1+1,memcpy@d+1
  5558   004F80  EFD7  F027         	goto	l4786
  5559   004F84                     l4778:
  5560   004F84  0060  F027  FFD9   	movff	memcpy@s,fsr2l
  5561   004F8A  0060  F02B  FFDA   	movff	memcpy@s+1,fsr2h
  5562   004F90  50DF               	movf	indf2,w,c
  5563   004F92  6E0B               	movwf	memcpy@tmp^0,c
  5564   004F94  4A09               	infsnz	memcpy@s^0,f,c
  5565   004F96  2A0A               	incf	(memcpy@s+1)^0,f,c
  5566   004F98  0060  F01F  FFD9   	movff	memcpy@d,fsr2l
  5567   004F9E  0060  F023  FFDA   	movff	memcpy@d+1,fsr2h
  5568   004FA4  0060  F02F  FFDF   	movff	memcpy@tmp,indf2
  5569   004FAA  4A07               	infsnz	memcpy@d^0,f,c
  5570   004FAC  2A08               	incf	(memcpy@d+1)^0,f,c
  5571   004FAE                     l4786:
  5572   004FAE  0605               	decf	memcpy@n^0,f,c
  5573   004FB0  A0D8               	btfss	status,0,c
  5574   004FB2  0606               	decf	(memcpy@n+1)^0,f,c
  5575   004FB4  2805               	incf	memcpy@n^0,w,c
  5576   004FB6  E106               	bnz	u4241
  5577   004FB8  2806               	incf	(memcpy@n+1)^0,w,c
  5578   004FBA  A4D8               	btfss	status,2,c
  5579   004FBC  EFE2  F027         	goto	u4241
  5580   004FC0  EFE4  F027         	goto	u4240
  5581   004FC4                     u4241:
  5582   004FC4  EFC2  F027         	goto	l4778
  5583   004FC8                     u4240:
  5584   004FC8  0012               	return		;funcret
  5585   004FCA                     __end_of_memcpy:
  5586                           	callstack 0
  5587                           
  5588 ;; *************** function _labs *****************
  5589 ;; Defined at:
  5590 ;;		line 1 in file "C:\Program Files\Microchip\xc8\v2.41\pic\sources\c99\common\labs.c"
  5591 ;; Parameters:    Size  Location     Type
  5592 ;;  a               4    0[COMRAM] long 
  5593 ;; Auto vars:     Size  Location     Type
  5594 ;;		None
  5595 ;; Return value:  Size  Location     Type
  5596 ;;                  4    0[COMRAM] long 
  5597 ;; Registers used:
  5598 ;;		wreg, status,2, status,0
  5599 ;; Tracked objects:
  5600 ;;		On entry : 0/0
  5601 ;;		On exit  : 0/0
  5602 ;;		Unchanged: 0/0
  5603 ;; Data sizes:     COMRAM   BANK0   BANK1   BANK2   BANK3   BANK4   BANK5   BANK6   BANK7   BANK8   BANK9  BANK10  BANK1
      +1  BANK12  BANK13  BANK14  BANK15
  5604 ;;      Params:         4       0       0       0       0       0       0       0       0       0       0       0       
      +0       0       0       0       0
  5605 ;;      Locals:         0       0       0       0       0       0       0       0       0       0       0       0       
      +0       0       0       0       0
  5606 ;;      Temps:          4       0       0       0       0       0       0       0       0       0       0       0       
      +0       0       0       0       0
  5607 ;;      Totals:         8       0       0       0       0       0       0       0       0       0       0       0       
      +0       0       0       0       0
  5608 ;;Total ram usage:        8 bytes
  5609 ;; Hardware stack levels used: 1
  5610 ;; Hardware stack levels required when called: 2
  5611 ;; This function calls:
  5612 ;;		Nothing
  5613 ;; This function is called by:
  5614 ;;		_efgtoa
  5615 ;; This function uses a non-reentrant model
  5616 ;;
  5617                           
  5618                           	psect	text8
  5619   004F0A                     __ptext8:
  5620                           	callstack 0
  5621   004F0A                     _labs:
  5622                           	callstack 23
  5623   004F0A  BE04               	btfsc	(labs@a+3)^0,7,c
  5624   004F0C  EF94  F027         	goto	u4130
  5625   004F10  5004               	movf	(labs@a+3)^0,w,c
  5626   004F12  1003               	iorwf	(labs@a+2)^0,w,c
  5627   004F14  1002               	iorwf	(labs@a+1)^0,w,c
  5628   004F16  E106               	bnz	u4131
  5629   004F18  0401               	decf	labs@a^0,w,c
  5630   004F1A  B0D8               	btfsc	status,0,c
  5631   004F1C  EF92  F027         	goto	u4131
  5632   004F20  EF94  F027         	goto	u4130
  5633   004F24                     u4131:
  5634   004F24  EFAF  F027         	goto	l1736
  5635   004F28                     u4130:
  5636   004F28  C001  F005         	movff	labs@a,??_labs
  5637   004F2C  C002  F006         	movff	labs@a+1,??_labs+1
  5638   004F30  C003  F007         	movff	labs@a+2,??_labs+2
  5639   004F34  C004  F008         	movff	labs@a+3,??_labs+3
  5640   004F38  1E05               	comf	??_labs^0,f,c
  5641   004F3A  1E06               	comf	(??_labs+1)^0,f,c
  5642   004F3C  1E07               	comf	(??_labs+2)^0,f,c
  5643   004F3E  1E08               	comf	(??_labs+3)^0,f,c
  5644   004F40  2A05               	incf	??_labs^0,f,c
  5645   004F42  0E00               	movlw	0
  5646   004F44  2206               	addwfc	(??_labs+1)^0,f,c
  5647   004F46  2207               	addwfc	(??_labs+2)^0,f,c
  5648   004F48  2208               	addwfc	(??_labs+3)^0,f,c
  5649   004F4A  C005  F001         	movff	??_labs,?_labs
  5650   004F4E  C006  F002         	movff	??_labs+1,?_labs+1
  5651   004F52  C007  F003         	movff	??_labs+2,?_labs+2
  5652   004F56  C008  F004         	movff	??_labs+3,?_labs+3
  5653   004F5A  EFB7  F027         	goto	l1739
  5654   004F5E                     l1736:
  5655   004F5E  C001  F001         	movff	labs@a,?_labs
  5656   004F62  C002  F002         	movff	labs@a+1,?_labs+1
  5657   004F66  C003  F003         	movff	labs@a+2,?_labs+2
  5658   004F6A  C004  F004         	movff	labs@a+3,?_labs+3
  5659   004F6E                     l1739:
  5660   004F6E  0012               	return		;funcret
  5661   004F70                     __end_of_labs:
  5662                           	callstack 0
  5663                           
  5664 ;; *************** function _floorf *****************
  5665 ;; Defined at:
  5666 ;;		line 3 in file "C:\Program Files\Microchip\xc8\v2.41\pic\sources\c99\common\floorf.c"
  5667 ;; Parameters:    Size  Location     Type
  5668 ;;  x               4   39[COMRAM] float 
  5669 ;; Auto vars:     Size  Location     Type
  5670 ;;  u               4   55[COMRAM] struct .
  5671 ;;  m               4   49[COMRAM] unsigned long 
  5672 ;;  e               2   53[COMRAM] int 
  5673 ;; Return value:  Size  Location     Type
  5674 ;;                  4   39[COMRAM] float 
  5675 ;; Registers used:
  5676 ;;		wreg, status,2, status,0
  5677 ;; Tracked objects:
  5678 ;;		On entry : 0/0
  5679 ;;		On exit  : 0/0
  5680 ;;		Unchanged: 0/0
  5681 ;; Data sizes:     COMRAM   BANK0   BANK1   BANK2   BANK3   BANK4   BANK5   BANK6   BANK7   BANK8   BANK9  BANK10  BANK1
      +1  BANK12  BANK13  BANK14  BANK15
  5682 ;;      Params:         4       0       0       0       0       0       0       0       0       0       0       0       
      +0       0       0       0       0
  5683 ;;      Locals:        10       0       0       0       0       0       0       0       0       0       0       0       
      +0       0       0       0       0
  5684 ;;      Temps:          6       0       0       0       0       0       0       0       0       0       0       0       
      +0       0       0       0       0
  5685 ;;      Totals:        20       0       0       0       0       0       0       0       0       0       0       0       
      +0       0       0       0       0
  5686 ;;Total ram usage:       20 bytes
  5687 ;; Hardware stack levels used: 1
  5688 ;; Hardware stack levels required when called: 2
  5689 ;; This function calls:
  5690 ;;		Nothing
  5691 ;; This function is called by:
  5692 ;;		_efgtoa
  5693 ;; This function uses a non-reentrant model
  5694 ;;
  5695                           
  5696                           	psect	text9
  5697   00355A                     __ptext9:
  5698                           	callstack 0
  5699   00355A                     _floorf:
  5700                           	callstack 23
  5701   00355A  C100  F038         	movff	floorf@F526,floorf@u
  5702   00355E  C101  F039         	movff	floorf@F526+1,floorf@u+1
  5703   003562  C102  F03A         	movff	floorf@F526+2,floorf@u+2
  5704   003566  C103  F03B         	movff	floorf@F526+3,floorf@u+3
  5705   00356A  C028  F038         	movff	floorf@x,floorf@u
  5706   00356E  C029  F039         	movff	floorf@x+1,floorf@u+1
  5707   003572  C02A  F03A         	movff	floorf@x+2,floorf@u+2
  5708   003576  C02B  F03B         	movff	floorf@x+3,floorf@u+3
  5709   00357A  0E81               	movlw	129
  5710   00357C  6E2C               	movwf	??_floorf^0,c
  5711   00357E  0EFF               	movlw	255
  5712   003580  6E2D               	movwf	(??_floorf+1)^0,c
  5713   003582  C038  F02E         	movff	floorf@u,??_floorf+2
  5714   003586  C039  F02F         	movff	floorf@u+1,??_floorf+3
  5715   00358A  C03A  F030         	movff	floorf@u+2,??_floorf+4
  5716   00358E  C03B  F031         	movff	floorf@u+3,??_floorf+5
  5717   003592  0E18               	movlw	24
  5718   003594  EFD1  F01A         	goto	u4140
  5719   003598                     u4145:
  5720   003598  90D8               	bcf	status,0,c
  5721   00359A  3231               	rrcf	(??_floorf+5)^0,f,c
  5722   00359C  3230               	rrcf	(??_floorf+4)^0,f,c
  5723   00359E  322F               	rrcf	(??_floorf+3)^0,f,c
  5724   0035A0  322E               	rrcf	(??_floorf+2)^0,f,c
  5725   0035A2                     u4140:
  5726   0035A2  2EE8               	decfsz	wreg,f,c
  5727   0035A4  EFCC  F01A         	goto	u4145
  5728   0035A8  502E               	movf	(??_floorf+2)^0,w,c
  5729   0035AA  242C               	addwf	??_floorf^0,w,c
  5730   0035AC  6E36               	movwf	floorf@e^0,c
  5731   0035AE  0E00               	movlw	0
  5732   0035B0  202D               	addwfc	(??_floorf+1)^0,w,c
  5733   0035B2  6E37               	movwf	(floorf@e+1)^0,c
  5734   0035B4  BE37               	btfsc	(floorf@e+1)^0,7,c
  5735   0035B6  EFE6  F01A         	goto	u4151
  5736   0035BA  5037               	movf	(floorf@e+1)^0,w,c
  5737   0035BC  E109               	bnz	u4150
  5738   0035BE  0E17               	movlw	23
  5739   0035C0  5C36               	subwf	floorf@e^0,w,c
  5740   0035C2  A0D8               	btfss	status,0,c
  5741   0035C4  EFE6  F01A         	goto	u4151
  5742   0035C8  EFE8  F01A         	goto	u4150
  5743   0035CC                     u4151:
  5744   0035CC  EFF2  F01A         	goto	l4754
  5745   0035D0                     u4150:
  5746   0035D0                     l4752:
  5747   0035D0  C028  F028         	movff	floorf@x,?_floorf
  5748   0035D4  C029  F029         	movff	floorf@x+1,?_floorf+1
  5749   0035D8  C02A  F02A         	movff	floorf@x+2,?_floorf+2
  5750   0035DC  C02B  F02B         	movff	floorf@x+3,?_floorf+3
  5751   0035E0  EFB5  F01B         	goto	l1725
  5752   0035E4                     l4754:
  5753   0035E4  BE37               	btfsc	(floorf@e+1)^0,7,c
  5754   0035E6  EFF7  F01A         	goto	u4161
  5755   0035EA  EFF9  F01A         	goto	u4160
  5756   0035EE                     u4161:
  5757   0035EE  EF69  F01B         	goto	l4764
  5758   0035F2                     u4160:
  5759   0035F2  C036  F02C         	movff	floorf@e,??_floorf
  5760   0035F6  0EFF               	movlw	255
  5761   0035F8  6E2D               	movwf	(??_floorf+1)^0,c
  5762   0035FA  0EFF               	movlw	255
  5763   0035FC  6E2E               	movwf	(??_floorf+2)^0,c
  5764   0035FE  0E7F               	movlw	127
  5765   003600  6E2F               	movwf	(??_floorf+3)^0,c
  5766   003602  0E00               	movlw	0
  5767   003604  6E30               	movwf	(??_floorf+4)^0,c
  5768   003606                     u4175:
  5769   003606  662C               	tstfsz	??_floorf^0,c
  5770   003608  EF08  F01B         	goto	u4176
  5771   00360C  EF10  F01B         	goto	u4177
  5772   003610                     u4176:
  5773   003610  3430               	rlcf	(??_floorf+4)^0,w,c
  5774   003612  3230               	rrcf	(??_floorf+4)^0,f,c
  5775   003614  322F               	rrcf	(??_floorf+3)^0,f,c
  5776   003616  322E               	rrcf	(??_floorf+2)^0,f,c
  5777   003618  322D               	rrcf	(??_floorf+1)^0,f,c
  5778   00361A  2E2C               	decfsz	??_floorf^0,f,c
  5779   00361C  EF03  F01B         	goto	u4175
  5780   003620                     u4177:
  5781   003620  C02D  F032         	movff	??_floorf+1,floorf@m
  5782   003624  C02E  F033         	movff	??_floorf+2,floorf@m+1
  5783   003628  C02F  F034         	movff	??_floorf+3,floorf@m+2
  5784   00362C  C030  F035         	movff	??_floorf+4,floorf@m+3
  5785   003630  5032               	movf	floorf@m^0,w,c
  5786   003632  1438               	andwf	floorf@u^0,w,c
  5787   003634  6E2C               	movwf	??_floorf^0,c
  5788   003636  5033               	movf	(floorf@m+1)^0,w,c
  5789   003638  1439               	andwf	(floorf@u+1)^0,w,c
  5790   00363A  6E2D               	movwf	(??_floorf+1)^0,c
  5791   00363C  5034               	movf	(floorf@m+2)^0,w,c
  5792   00363E  143A               	andwf	(floorf@u+2)^0,w,c
  5793   003640  6E2E               	movwf	(??_floorf+2)^0,c
  5794   003642  5035               	movf	(floorf@m+3)^0,w,c
  5795   003644  143B               	andwf	(floorf@u+3)^0,w,c
  5796   003646  6E2F               	movwf	(??_floorf+3)^0,c
  5797   003648  502C               	movf	??_floorf^0,w,c
  5798   00364A  102D               	iorwf	(??_floorf+1)^0,w,c
  5799   00364C  102E               	iorwf	(??_floorf+2)^0,w,c
  5800   00364E  102F               	iorwf	(??_floorf+3)^0,w,c
  5801   003650  A4D8               	btfss	status,2,c
  5802   003652  EF2D  F01B         	goto	u4181
  5803   003656  EF2F  F01B         	goto	u4180
  5804   00365A                     u4181:
  5805   00365A  EF31  F01B         	goto	l4760
  5806   00365E                     u4180:
  5807   00365E  EFE8  F01A         	goto	l4752
  5808   003662                     l4760:
  5809   003662  C038  F02C         	movff	floorf@u,??_floorf
  5810   003666  C039  F02D         	movff	floorf@u+1,??_floorf+1
  5811   00366A  C03A  F02E         	movff	floorf@u+2,??_floorf+2
  5812   00366E  C03B  F02F         	movff	floorf@u+3,??_floorf+3
  5813   003672  0E20               	movlw	32
  5814   003674  EF41  F01B         	goto	u4190
  5815   003678                     u4195:
  5816   003678  90D8               	bcf	status,0,c
  5817   00367A  322F               	rrcf	(??_floorf+3)^0,f,c
  5818   00367C  322E               	rrcf	(??_floorf+2)^0,f,c
  5819   00367E  322D               	rrcf	(??_floorf+1)^0,f,c
  5820   003680  322C               	rrcf	??_floorf^0,f,c
  5821   003682                     u4190:
  5822   003682  2EE8               	decfsz	wreg,f,c
  5823   003684  EF3C  F01B         	goto	u4195
  5824   003688  502C               	movf	??_floorf^0,w,c
  5825   00368A  102D               	iorwf	(??_floorf+1)^0,w,c
  5826   00368C  102E               	iorwf	(??_floorf+2)^0,w,c
  5827   00368E  102F               	iorwf	(??_floorf+3)^0,w,c
  5828   003690  B4D8               	btfsc	status,2,c
  5829   003692  EF4D  F01B         	goto	u4201
  5830   003696  EF4F  F01B         	goto	u4200
  5831   00369A                     u4201:
  5832   00369A  EF57  F01B         	goto	l1728
  5833   00369E                     u4200:
  5834   00369E  5032               	movf	floorf@m^0,w,c
  5835   0036A0  2638               	addwf	floorf@u^0,f,c
  5836   0036A2  5033               	movf	(floorf@m+1)^0,w,c
  5837   0036A4  2239               	addwfc	(floorf@u+1)^0,f,c
  5838   0036A6  5034               	movf	(floorf@m+2)^0,w,c
  5839   0036A8  223A               	addwfc	(floorf@u+2)^0,f,c
  5840   0036AA  5035               	movf	(floorf@m+3)^0,w,c
  5841   0036AC  223B               	addwfc	(floorf@u+3)^0,f,c
  5842   0036AE                     l1728:
  5843   0036AE  1C32               	comf	floorf@m^0,w,c
  5844   0036B0  6E2C               	movwf	??_floorf^0,c
  5845   0036B2  1C33               	comf	(floorf@m+1)^0,w,c
  5846   0036B4  6E2D               	movwf	(??_floorf+1)^0,c
  5847   0036B6  1C34               	comf	(floorf@m+2)^0,w,c
  5848   0036B8  6E2E               	movwf	(??_floorf+2)^0,c
  5849   0036BA  1C35               	comf	(floorf@m+3)^0,w,c
  5850   0036BC  6E2F               	movwf	(??_floorf+3)^0,c
  5851   0036BE  502C               	movf	??_floorf^0,w,c
  5852   0036C0  1638               	andwf	floorf@u^0,f,c
  5853   0036C2  502D               	movf	(??_floorf+1)^0,w,c
  5854   0036C4  1639               	andwf	(floorf@u+1)^0,f,c
  5855   0036C6  502E               	movf	(??_floorf+2)^0,w,c
  5856   0036C8  163A               	andwf	(floorf@u+2)^0,f,c
  5857   0036CA  502F               	movf	(??_floorf+3)^0,w,c
  5858   0036CC  163B               	andwf	(floorf@u+3)^0,f,c
  5859   0036CE  EFAD  F01B         	goto	l4772
  5860   0036D2                     l4764:
  5861   0036D2  C038  F02C         	movff	floorf@u,??_floorf
  5862   0036D6  C039  F02D         	movff	floorf@u+1,??_floorf+1
  5863   0036DA  C03A  F02E         	movff	floorf@u+2,??_floorf+2
  5864   0036DE  C03B  F02F         	movff	floorf@u+3,??_floorf+3
  5865   0036E2  0E20               	movlw	32
  5866   0036E4  EF79  F01B         	goto	u4210
  5867   0036E8                     u4215:
  5868   0036E8  90D8               	bcf	status,0,c
  5869   0036EA  322F               	rrcf	(??_floorf+3)^0,f,c
  5870   0036EC  322E               	rrcf	(??_floorf+2)^0,f,c
  5871   0036EE  322D               	rrcf	(??_floorf+1)^0,f,c
  5872   0036F0  322C               	rrcf	??_floorf^0,f,c
  5873   0036F2                     u4210:
  5874   0036F2  2EE8               	decfsz	wreg,f,c
  5875   0036F4  EF74  F01B         	goto	u4215
  5876   0036F8  502C               	movf	??_floorf^0,w,c
  5877   0036FA  102D               	iorwf	(??_floorf+1)^0,w,c
  5878   0036FC  102E               	iorwf	(??_floorf+2)^0,w,c
  5879   0036FE  102F               	iorwf	(??_floorf+3)^0,w,c
  5880   003700  A4D8               	btfss	status,2,c
  5881   003702  EF85  F01B         	goto	u4221
  5882   003706  EF87  F01B         	goto	u4220
  5883   00370A                     u4221:
  5884   00370A  EF91  F01B         	goto	l4768
  5885   00370E                     u4220:
  5886   00370E  0E00               	movlw	0
  5887   003710  6E38               	movwf	floorf@u^0,c
  5888   003712  0E00               	movlw	0
  5889   003714  6E39               	movwf	(floorf@u+1)^0,c
  5890   003716  0E00               	movlw	0
  5891   003718  6E3A               	movwf	(floorf@u+2)^0,c
  5892   00371A  0E00               	movlw	0
  5893   00371C  6E3B               	movwf	(floorf@u+3)^0,c
  5894   00371E  EFAD  F01B         	goto	l4772
  5895   003722                     l4768:
  5896   003722  90D8               	bcf	status,0,c
  5897   003724  3438               	rlcf	floorf@u^0,w,c
  5898   003726  6E2C               	movwf	??_floorf^0,c
  5899   003728  3439               	rlcf	(floorf@u+1)^0,w,c
  5900   00372A  6E2D               	movwf	(??_floorf+1)^0,c
  5901   00372C  343A               	rlcf	(floorf@u+2)^0,w,c
  5902   00372E  6E2E               	movwf	(??_floorf+2)^0,c
  5903   003730  343B               	rlcf	(floorf@u+3)^0,w,c
  5904   003732  6E2F               	movwf	(??_floorf+3)^0,c
  5905   003734  502C               	movf	??_floorf^0,w,c
  5906   003736  102D               	iorwf	(??_floorf+1)^0,w,c
  5907   003738  102E               	iorwf	(??_floorf+2)^0,w,c
  5908   00373A  102F               	iorwf	(??_floorf+3)^0,w,c
  5909   00373C  B4D8               	btfsc	status,2,c
  5910   00373E  EFA3  F01B         	goto	u4231
  5911   003742  EFA5  F01B         	goto	u4230
  5912   003746                     u4231:
  5913   003746  EFAD  F01B         	goto	l4772
  5914   00374A                     u4230:
  5915   00374A  0E00               	movlw	0
  5916   00374C  6E38               	movwf	floorf@u^0,c
  5917   00374E  0E00               	movlw	0
  5918   003750  6E39               	movwf	(floorf@u+1)^0,c
  5919   003752  0E80               	movlw	128
  5920   003754  6E3A               	movwf	(floorf@u+2)^0,c
  5921   003756  0EBF               	movlw	191
  5922   003758  6E3B               	movwf	(floorf@u+3)^0,c
  5923   00375A                     l4772:
  5924   00375A  C038  F028         	movff	floorf@u,?_floorf
  5925   00375E  C039  F029         	movff	floorf@u+1,?_floorf+1
  5926   003762  C03A  F02A         	movff	floorf@u+2,?_floorf+2
  5927   003766  C03B  F02B         	movff	floorf@u+3,?_floorf+3
  5928   00376A                     l1725:
  5929   00376A  0012               	return		;funcret
  5930   00376C                     __end_of_floorf:
  5931                           	callstack 0
  5932                           
  5933 ;; *************** function ___fpclassifyf *****************
  5934 ;; Defined at:
  5935 ;;		line 4 in file "C:\Program Files\Microchip\xc8\v2.41\pic\sources\c99\common\__fpclassifyf.c"
  5936 ;; Parameters:    Size  Location     Type
  5937 ;;  x               4    0[COMRAM] float 
  5938 ;; Auto vars:     Size  Location     Type
  5939 ;;  u               4   10[COMRAM] struct .
  5940 ;;  e               2    8[COMRAM] int 
  5941 ;; Return value:  Size  Location     Type
  5942 ;;                  2    0[COMRAM] int 
  5943 ;; Registers used:
  5944 ;;		wreg, status,2, status,0
  5945 ;; Tracked objects:
  5946 ;;		On entry : 0/0
  5947 ;;		On exit  : 0/0
  5948 ;;		Unchanged: 0/0
  5949 ;; Data sizes:     COMRAM   BANK0   BANK1   BANK2   BANK3   BANK4   BANK5   BANK6   BANK7   BANK8   BANK9  BANK10  BANK1
      +1  BANK12  BANK13  BANK14  BANK15
  5950 ;;      Params:         4       0       0       0       0       0       0       0       0       0       0       0       
      +0       0       0       0       0
  5951 ;;      Locals:         6       0       0       0       0       0       0       0       0       0       0       0       
      +0       0       0       0       0
  5952 ;;      Temps:          4       0       0       0       0       0       0       0       0       0       0       0       
      +0       0       0       0       0
  5953 ;;      Totals:        14       0       0       0       0       0       0       0       0       0       0       0       
      +0       0       0       0       0
  5954 ;;Total ram usage:       14 bytes
  5955 ;; Hardware stack levels used: 1
  5956 ;; Hardware stack levels required when called: 2
  5957 ;; This function calls:
  5958 ;;		Nothing
  5959 ;; This function is called by:
  5960 ;;		_efgtoa
  5961 ;; This function uses a non-reentrant model
  5962 ;;
  5963                           
  5964                           	psect	text10
  5965   0040B0                     __ptext10:
  5966                           	callstack 0
  5967   0040B0                     ___fpclassifyf:
  5968                           	callstack 23
  5969   0040B0  C104  F00B         	movff	___fpclassifyf@F465,___fpclassifyf@u
  5970   0040B4  C105  F00C         	movff	___fpclassifyf@F465+1,___fpclassifyf@u+1
  5971   0040B8  C106  F00D         	movff	___fpclassifyf@F465+2,___fpclassifyf@u+2
  5972   0040BC  C107  F00E         	movff	___fpclassifyf@F465+3,___fpclassifyf@u+3
  5973   0040C0  C001  F00B         	movff	___fpclassifyf@x,___fpclassifyf@u
  5974   0040C4  C002  F00C         	movff	___fpclassifyf@x+1,___fpclassifyf@u+1
  5975   0040C8  C003  F00D         	movff	___fpclassifyf@x+2,___fpclassifyf@u+2
  5976   0040CC  C004  F00E         	movff	___fpclassifyf@x+3,___fpclassifyf@u+3
  5977   0040D0  C00B  F005         	movff	___fpclassifyf@u,??___fpclassifyf
  5978   0040D4  C00C  F006         	movff	___fpclassifyf@u+1,??___fpclassifyf+1
  5979   0040D8  C00D  F007         	movff	___fpclassifyf@u+2,??___fpclassifyf+2
  5980   0040DC  C00E  F008         	movff	___fpclassifyf@u+3,??___fpclassifyf+3
  5981   0040E0  0E18               	movlw	24
  5982   0040E2  EF78  F020         	goto	u4050
  5983   0040E6                     u4055:
  5984   0040E6  90D8               	bcf	status,0,c
  5985   0040E8  3208               	rrcf	(??___fpclassifyf+3)^0,f,c
  5986   0040EA  3207               	rrcf	(??___fpclassifyf+2)^0,f,c
  5987   0040EC  3206               	rrcf	(??___fpclassifyf+1)^0,f,c
  5988   0040EE  3205               	rrcf	??___fpclassifyf^0,f,c
  5989   0040F0                     u4050:
  5990   0040F0  2EE8               	decfsz	wreg,f,c
  5991   0040F2  EF73  F020         	goto	u4055
  5992   0040F6  5005               	movf	??___fpclassifyf^0,w,c
  5993   0040F8  6E09               	movwf	___fpclassifyf@e^0,c
  5994   0040FA  6A0A               	clrf	(___fpclassifyf@e+1)^0,c
  5995   0040FC  5009               	movf	___fpclassifyf@e^0,w,c
  5996   0040FE  100A               	iorwf	(___fpclassifyf@e+1)^0,w,c
  5997   004100  A4D8               	btfss	status,2,c
  5998   004102  EF85  F020         	goto	u4061
  5999   004106  EF87  F020         	goto	u4060
  6000   00410A                     u4061:
  6001   00410A  EFA7  F020         	goto	l4730
  6002   00410E                     u4060:
  6003   00410E  90D8               	bcf	status,0,c
  6004   004110  340B               	rlcf	___fpclassifyf@u^0,w,c
  6005   004112  6E05               	movwf	??___fpclassifyf^0,c
  6006   004114  340C               	rlcf	(___fpclassifyf@u+1)^0,w,c
  6007   004116  6E06               	movwf	(??___fpclassifyf+1)^0,c
  6008   004118  340D               	rlcf	(___fpclassifyf@u+2)^0,w,c
  6009   00411A  6E07               	movwf	(??___fpclassifyf+2)^0,c
  6010   00411C  340E               	rlcf	(___fpclassifyf@u+3)^0,w,c
  6011   00411E  6E08               	movwf	(??___fpclassifyf+3)^0,c
  6012   004120  5005               	movf	??___fpclassifyf^0,w,c
  6013   004122  1006               	iorwf	(??___fpclassifyf+1)^0,w,c
  6014   004124  1007               	iorwf	(??___fpclassifyf+2)^0,w,c
  6015   004126  1008               	iorwf	(??___fpclassifyf+3)^0,w,c
  6016   004128  A4D8               	btfss	status,2,c
  6017   00412A  EF99  F020         	goto	u4071
  6018   00412E  EF9B  F020         	goto	u4070
  6019   004132                     u4071:
  6020   004132  EFA1  F020         	goto	l4726
  6021   004136                     u4070:
  6022   004136  0E00               	movlw	0
  6023   004138  6E02               	movwf	(?___fpclassifyf+1)^0,c
  6024   00413A  0E02               	movlw	2
  6025   00413C  6E01               	movwf	?___fpclassifyf^0,c
  6026   00413E  EFD6  F020         	goto	l1711
  6027   004142                     l4726:
  6028   004142  0E00               	movlw	0
  6029   004144  6E02               	movwf	(?___fpclassifyf+1)^0,c
  6030   004146  0E03               	movlw	3
  6031   004148  6E01               	movwf	?___fpclassifyf^0,c
  6032   00414A  EFD6  F020         	goto	l1711
  6033   00414E                     l4730:
  6034   00414E  2809               	incf	___fpclassifyf@e^0,w,c
  6035   004150  100A               	iorwf	(___fpclassifyf@e+1)^0,w,c
  6036   004152  A4D8               	btfss	status,2,c
  6037   004154  EFAE  F020         	goto	u4081
  6038   004158  EFB0  F020         	goto	u4080
  6039   00415C                     u4081:
  6040   00415C  EFD2  F020         	goto	l4736
  6041   004160                     u4080:
  6042   004160  C00B  F005         	movff	___fpclassifyf@u,??___fpclassifyf
  6043   004164  C00C  F006         	movff	___fpclassifyf@u+1,??___fpclassifyf+1
  6044   004168  C00D  F007         	movff	___fpclassifyf@u+2,??___fpclassifyf+2
  6045   00416C  C00E  F008         	movff	___fpclassifyf@u+3,??___fpclassifyf+3
  6046   004170  0E09               	movlw	9
  6047   004172                     u4095:
  6048   004172  90D8               	bcf	status,0,c
  6049   004174  3605               	rlcf	??___fpclassifyf^0,f,c
  6050   004176  3606               	rlcf	(??___fpclassifyf+1)^0,f,c
  6051   004178  3607               	rlcf	(??___fpclassifyf+2)^0,f,c
  6052   00417A  3608               	rlcf	(??___fpclassifyf+3)^0,f,c
  6053   00417C  2EE8               	decfsz	wreg,f,c
  6054   00417E  EFB9  F020         	goto	u4095
  6055   004182  5005               	movf	??___fpclassifyf^0,w,c
  6056   004184  1006               	iorwf	(??___fpclassifyf+1)^0,w,c
  6057   004186  1007               	iorwf	(??___fpclassifyf+2)^0,w,c
  6058   004188  1008               	iorwf	(??___fpclassifyf+3)^0,w,c
  6059   00418A  B4D8               	btfsc	status,2,c
  6060   00418C  EFCA  F020         	goto	u4101
  6061   004190  EFCD  F020         	goto	u4100
  6062   004194                     u4101:
  6063   004194  0E01               	movlw	1
  6064   004196  EFCE  F020         	goto	u4110
  6065   00419A                     u4100:
  6066   00419A  0E00               	movlw	0
  6067   00419C                     u4110:
  6068   00419C  6E01               	movwf	?___fpclassifyf^0,c
  6069   00419E  6A02               	clrf	(?___fpclassifyf+1)^0,c
  6070   0041A0  EFD6  F020         	goto	l1711
  6071   0041A4                     l4736:
  6072   0041A4  0E00               	movlw	0
  6073   0041A6  6E02               	movwf	(?___fpclassifyf+1)^0,c
  6074   0041A8  0E04               	movlw	4
  6075   0041AA  6E01               	movwf	?___fpclassifyf^0,c
  6076   0041AC                     l1711:
  6077   0041AC  0012               	return		;funcret
  6078   0041AE                     __end_of___fpclassifyf:
  6079                           	callstack 0
  6080                           
  6081 ;; *************** function ___flsub *****************
  6082 ;; Defined at:
  6083 ;;		line 245 in file "C:\Program Files\Microchip\xc8\v2.41\pic\sources\c99\common\sprcadd.c"
  6084 ;; Parameters:    Size  Location     Type
  6085 ;;  b               4   64[COMRAM] int 
  6086 ;;  a               4   68[COMRAM] int 
  6087 ;; Auto vars:     Size  Location     Type
  6088 ;;		None
  6089 ;; Return value:  Size  Location     Type
  6090 ;;                  4   64[COMRAM] int 
  6091 ;; Registers used:
  6092 ;;		wreg, status,2, status,0, cstack
  6093 ;; Tracked objects:
  6094 ;;		On entry : 0/0
  6095 ;;		On exit  : 0/0
  6096 ;;		Unchanged: 0/0
  6097 ;; Data sizes:     COMRAM   BANK0   BANK1   BANK2   BANK3   BANK4   BANK5   BANK6   BANK7   BANK8   BANK9  BANK10  BANK1
      +1  BANK12  BANK13  BANK14  BANK15
  6098 ;;      Params:         8       0       0       0       0       0       0       0       0       0       0       0       
      +0       0       0       0       0
  6099 ;;      Locals:         0       0       0       0       0       0       0       0       0       0       0       0       
      +0       0       0       0       0
  6100 ;;      Temps:          0       0       0       0       0       0       0       0       0       0       0       0       
      +0       0       0       0       0
  6101 ;;      Totals:         8       0       0       0       0       0       0       0       0       0       0       0       
      +0       0       0       0       0
  6102 ;;Total ram usage:        8 bytes
  6103 ;; Hardware stack levels used: 1
  6104 ;; Hardware stack levels required when called: 3
  6105 ;; This function calls:
  6106 ;;		___fladd
  6107 ;; This function is called by:
  6108 ;;		_efgtoa
  6109 ;; This function uses a non-reentrant model
  6110 ;;
  6111                           
  6112                           	psect	text11
  6113   005104                     __ptext11:
  6114                           	callstack 0
  6115   005104                     ___flsub:
  6116                           	callstack 22
  6117   005104  0E00               	movlw	0
  6118   005106  1A45               	xorwf	___flsub@a^0,f,c
  6119   005108  0E00               	movlw	0
  6120   00510A  1A46               	xorwf	(___flsub@a+1)^0,f,c
  6121   00510C  0E00               	movlw	0
  6122   00510E  1A47               	xorwf	(___flsub@a+2)^0,f,c
  6123   005110  0E80               	movlw	128
  6124   005112  1A48               	xorwf	(___flsub@a+3)^0,f,c
  6125   005114  C041  F001         	movff	___flsub@b,___fladd@b
  6126   005118  C042  F002         	movff	___flsub@b+1,___fladd@b+1
  6127   00511C  C043  F003         	movff	___flsub@b+2,___fladd@b+2
  6128   005120  C044  F004         	movff	___flsub@b+3,___fladd@b+3
  6129   005124  C045  F005         	movff	___flsub@a,___fladd@a
  6130   005128  C046  F006         	movff	___flsub@a+1,___fladd@a+1
  6131   00512C  C047  F007         	movff	___flsub@a+2,___fladd@a+2
  6132   005130  C048  F008         	movff	___flsub@a+3,___fladd@a+3
  6133   005134  ECAD  F012         	call	___fladd	;wreg free
  6134   005138  C001  F041         	movff	?___fladd,?___flsub
  6135   00513C  C002  F042         	movff	?___fladd+1,?___flsub+1
  6136   005140  C003  F043         	movff	?___fladd+2,?___flsub+2
  6137   005144  C004  F044         	movff	?___fladd+3,?___flsub+3
  6138   005148  0012               	return		;funcret
  6139   00514A                     __end_of___flsub:
  6140                           	callstack 0
  6141                           
  6142 ;; *************** function ___fladd *****************
  6143 ;; Defined at:
  6144 ;;		line 10 in file "C:\Program Files\Microchip\xc8\v2.41\pic\sources\c99\common\sprcadd.c"
  6145 ;; Parameters:    Size  Location     Type
  6146 ;;  b               4    0[COMRAM] int 
  6147 ;;  a               4    4[COMRAM] int 
  6148 ;; Auto vars:     Size  Location     Type
  6149 ;;  grs             1   15[COMRAM] unsigned char 
  6150 ;;  bexp            1   14[COMRAM] unsigned char 
  6151 ;;  aexp            1   13[COMRAM] unsigned char 
  6152 ;;  signs           1   12[COMRAM] unsigned char 
  6153 ;; Return value:  Size  Location     Type
  6154 ;;                  4    0[COMRAM] unsigned char 
  6155 ;; Registers used:
  6156 ;;		wreg, status,2, status,0
  6157 ;; Tracked objects:
  6158 ;;		On entry : 0/0
  6159 ;;		On exit  : 0/0
  6160 ;;		Unchanged: 0/0
  6161 ;; Data sizes:     COMRAM   BANK0   BANK1   BANK2   BANK3   BANK4   BANK5   BANK6   BANK7   BANK8   BANK9  BANK10  BANK1
      +1  BANK12  BANK13  BANK14  BANK15
  6162 ;;      Params:         8       0       0       0       0       0       0       0       0       0       0       0       
      +0       0       0       0       0
  6163 ;;      Locals:         4       0       0       0       0       0       0       0       0       0       0       0       
      +0       0       0       0       0
  6164 ;;      Temps:          4       0       0       0       0       0       0       0       0       0       0       0       
      +0       0       0       0       0
  6165 ;;      Totals:        16       0       0       0       0       0       0       0       0       0       0       0       
      +0       0       0       0       0
  6166 ;;Total ram usage:       16 bytes
  6167 ;; Hardware stack levels used: 1
  6168 ;; Hardware stack levels required when called: 2
  6169 ;; This function calls:
  6170 ;;		Nothing
  6171 ;; This function is called by:
  6172 ;;		___flsub
  6173 ;;		_efgtoa
  6174 ;; This function uses a non-reentrant model
  6175 ;;
  6176                           
  6177                           	psect	text12
  6178   00255A                     __ptext12:
  6179                           	callstack 0
  6180   00255A                     ___fladd:
  6181                           	callstack 22
  6182   00255A  5004               	movf	(___fladd@b+3)^0,w,c
  6183   00255C  0B80               	andlw	128
  6184   00255E  6E0D               	movwf	___fladd@signs^0,c
  6185   002560  5004               	movf	(___fladd@b+3)^0,w,c
  6186   002562  2404               	addwf	(___fladd@b+3)^0,w,c
  6187   002564  6E0F               	movwf	___fladd@bexp^0,c
  6188   002566  AE03               	btfss	(___fladd@b+2)^0,7,c
  6189   002568  EFB8  F012         	goto	u2921
  6190   00256C  EFBA  F012         	goto	u2920
  6191   002570                     u2921:
  6192   002570  EFBB  F012         	goto	l4052
  6193   002574                     u2920:
  6194   002574  800F               	bsf	___fladd@bexp^0,0,c
  6195   002576                     l4052:
  6196   002576  500F               	movf	___fladd@bexp^0,w,c
  6197   002578  B4D8               	btfsc	status,2,c
  6198   00257A  EFC1  F012         	goto	u2931
  6199   00257E  EFC3  F012         	goto	u2930
  6200   002582                     u2931:
  6201   002582  EFD8  F012         	goto	l4062
  6202   002586                     u2930:
  6203   002586  280F               	incf	___fladd@bexp^0,w,c
  6204   002588  A4D8               	btfss	status,2,c
  6205   00258A  EFC9  F012         	goto	u2941
  6206   00258E  EFCB  F012         	goto	u2940
  6207   002592                     u2941:
  6208   002592  EFD3  F012         	goto	l4058
  6209   002596                     u2940:
  6210   002596  0E00               	movlw	0
  6211   002598  6E01               	movwf	___fladd@b^0,c
  6212   00259A  0E00               	movlw	0
  6213   00259C  6E02               	movwf	(___fladd@b+1)^0,c
  6214   00259E  0E00               	movlw	0
  6215   0025A0  6E03               	movwf	(___fladd@b+2)^0,c
  6216   0025A2  0E00               	movlw	0
  6217   0025A4  6E04               	movwf	(___fladd@b+3)^0,c
  6218   0025A6                     l4058:
  6219   0025A6  8E03               	bsf	(___fladd@b+2)^0,7,c
  6220   0025A8  0E00               	movlw	0
  6221   0025AA  6E04               	movwf	(___fladd@b+3)^0,c
  6222   0025AC  EFE0  F012         	goto	l4064
  6223   0025B0                     l4062:
  6224   0025B0  0E00               	movlw	0
  6225   0025B2  6E01               	movwf	___fladd@b^0,c
  6226   0025B4  0E00               	movlw	0
  6227   0025B6  6E02               	movwf	(___fladd@b+1)^0,c
  6228   0025B8  0E00               	movlw	0
  6229   0025BA  6E03               	movwf	(___fladd@b+2)^0,c
  6230   0025BC  0E00               	movlw	0
  6231   0025BE  6E04               	movwf	(___fladd@b+3)^0,c
  6232   0025C0                     l4064:
  6233   0025C0  5008               	movf	(___fladd@a+3)^0,w,c
  6234   0025C2  0B80               	andlw	128
  6235   0025C4  6E0E               	movwf	___fladd@aexp^0,c
  6236   0025C6  500D               	movf	___fladd@signs^0,w,c
  6237   0025C8  180E               	xorwf	___fladd@aexp^0,w,c
  6238   0025CA  B4D8               	btfsc	status,2,c
  6239   0025CC  EFEA  F012         	goto	u2951
  6240   0025D0  EFEC  F012         	goto	u2950
  6241   0025D4                     u2951:
  6242   0025D4  EFED  F012         	goto	l4070
  6243   0025D8                     u2950:
  6244   0025D8  8C0D               	bsf	___fladd@signs^0,6,c
  6245   0025DA                     l4070:
  6246   0025DA  5008               	movf	(___fladd@a+3)^0,w,c
  6247   0025DC  2408               	addwf	(___fladd@a+3)^0,w,c
  6248   0025DE  6E0E               	movwf	___fladd@aexp^0,c
  6249   0025E0  AE07               	btfss	(___fladd@a+2)^0,7,c
  6250   0025E2  EFF5  F012         	goto	u2961
  6251   0025E6  EFF7  F012         	goto	u2960
  6252   0025EA                     u2961:
  6253   0025EA  EFF8  F012         	goto	l4076
  6254   0025EE                     u2960:
  6255   0025EE  800E               	bsf	___fladd@aexp^0,0,c
  6256   0025F0                     l4076:
  6257   0025F0  500E               	movf	___fladd@aexp^0,w,c
  6258   0025F2  B4D8               	btfsc	status,2,c
  6259   0025F4  EFFE  F012         	goto	u2971
  6260   0025F8  EF00  F013         	goto	u2970
  6261   0025FC                     u2971:
  6262   0025FC  EF15  F013         	goto	l4086
  6263   002600                     u2970:
  6264   002600  280E               	incf	___fladd@aexp^0,w,c
  6265   002602  A4D8               	btfss	status,2,c
  6266   002604  EF06  F013         	goto	u2981
  6267   002608  EF08  F013         	goto	u2980
  6268   00260C                     u2981:
  6269   00260C  EF10  F013         	goto	l4082
  6270   002610                     u2980:
  6271   002610  0E00               	movlw	0
  6272   002612  6E05               	movwf	___fladd@a^0,c
  6273   002614  0E00               	movlw	0
  6274   002616  6E06               	movwf	(___fladd@a+1)^0,c
  6275   002618  0E00               	movlw	0
  6276   00261A  6E07               	movwf	(___fladd@a+2)^0,c
  6277   00261C  0E00               	movlw	0
  6278   00261E  6E08               	movwf	(___fladd@a+3)^0,c
  6279   002620                     l4082:
  6280   002620  8E07               	bsf	(___fladd@a+2)^0,7,c
  6281   002622  0E00               	movlw	0
  6282   002624  6E08               	movwf	(___fladd@a+3)^0,c
  6283   002626  EF1D  F013         	goto	l4088
  6284   00262A                     l4086:
  6285   00262A  0E00               	movlw	0
  6286   00262C  6E05               	movwf	___fladd@a^0,c
  6287   00262E  0E00               	movlw	0
  6288   002630  6E06               	movwf	(___fladd@a+1)^0,c
  6289   002632  0E00               	movlw	0
  6290   002634  6E07               	movwf	(___fladd@a+2)^0,c
  6291   002636  0E00               	movlw	0
  6292   002638  6E08               	movwf	(___fladd@a+3)^0,c
  6293   00263A                     l4088:
  6294   00263A  500F               	movf	___fladd@bexp^0,w,c
  6295   00263C  5C0E               	subwf	___fladd@aexp^0,w,c
  6296   00263E  B0D8               	btfsc	status,0,c
  6297   002640  EF24  F013         	goto	u2991
  6298   002644  EF26  F013         	goto	u2990
  6299   002648                     u2991:
  6300   002648  EF4D  F013         	goto	l4124
  6301   00264C                     u2990:
  6302   00264C  AC0D               	btfss	___fladd@signs^0,6,c
  6303   00264E  EF2B  F013         	goto	u3001
  6304   002652  EF2D  F013         	goto	u3000
  6305   002656                     u3001:
  6306   002656  EF2F  F013         	goto	l4094
  6307   00265A                     u3000:
  6308   00265A  0E80               	movlw	128
  6309   00265C  1A0D               	xorwf	___fladd@signs^0,f,c
  6310   00265E                     l4094:
  6311   00265E  C00F  F010         	movff	___fladd@bexp,___fladd@grs
  6312   002662  C00E  F00F         	movff	___fladd@aexp,___fladd@bexp
  6313   002666  C010  F00E         	movff	___fladd@grs,___fladd@aexp
  6314   00266A  C001  F010         	movff	___fladd@b,___fladd@grs
  6315   00266E  C005  F001         	movff	___fladd@a,___fladd@b
  6316   002672  C010  F005         	movff	___fladd@grs,___fladd@a
  6317   002676  C002  F010         	movff	___fladd@b+1,___fladd@grs
  6318   00267A  C006  F002         	movff	___fladd@a+1,___fladd@b+1
  6319   00267E  C010  F006         	movff	___fladd@grs,___fladd@a+1
  6320   002682  C003  F010         	movff	___fladd@b+2,___fladd@grs
  6321   002686  C007  F003         	movff	___fladd@a+2,___fladd@b+2
  6322   00268A  C010  F007         	movff	___fladd@grs,___fladd@a+2
  6323   00268E  C004  F010         	movff	___fladd@b+3,___fladd@grs
  6324   002692  C008  F004         	movff	___fladd@a+3,___fladd@b+3
  6325   002696  C010  F008         	movff	___fladd@grs,___fladd@a+3
  6326   00269A                     l4124:
  6327   00269A  0E00               	movlw	0
  6328   00269C  6E10               	movwf	___fladd@grs^0,c
  6329   00269E  500F               	movf	___fladd@bexp^0,w,c
  6330   0026A0  C00E  F009         	movff	___fladd@aexp,??___fladd
  6331   0026A4  6A0A               	clrf	(??___fladd+1)^0,c
  6332   0026A6  5E09               	subwf	??___fladd^0,f,c
  6333   0026A8  0E00               	movlw	0
  6334   0026AA  5A0A               	subwfb	(??___fladd+1)^0,f,c
  6335   0026AC  BE0A               	btfsc	(??___fladd+1)^0,7,c
  6336   0026AE  EF62  F013         	goto	u3011
  6337   0026B2  500A               	movf	(??___fladd+1)^0,w,c
  6338   0026B4  E109               	bnz	u3010
  6339   0026B6  0E1A               	movlw	26
  6340   0026B8  5C09               	subwf	??___fladd^0,w,c
  6341   0026BA  A0D8               	btfss	status,0,c
  6342   0026BC  EF62  F013         	goto	u3011
  6343   0026C0  EF64  F013         	goto	u3010
  6344   0026C4                     u3011:
  6345   0026C4  EF9B  F013         	goto	l1416
  6346   0026C8                     u3010:
  6347   0026C8  5001               	movf	___fladd@b^0,w,c
  6348   0026CA  1002               	iorwf	(___fladd@b+1)^0,w,c
  6349   0026CC  1003               	iorwf	(___fladd@b+2)^0,w,c
  6350   0026CE  1004               	iorwf	(___fladd@b+3)^0,w,c
  6351   0026D0  A4D8               	btfss	status,2,c
  6352   0026D2  EF6D  F013         	goto	u3021
  6353   0026D6  EF70  F013         	goto	u3020
  6354   0026DA                     u3021:
  6355   0026DA  0E01               	movlw	1
  6356   0026DC  EF71  F013         	goto	u3030
  6357   0026E0                     u3020:
  6358   0026E0  0E00               	movlw	0
  6359   0026E2                     u3030:
  6360   0026E2  6E10               	movwf	___fladd@grs^0,c
  6361   0026E4  0E00               	movlw	0
  6362   0026E6  6E01               	movwf	___fladd@b^0,c
  6363   0026E8  0E00               	movlw	0
  6364   0026EA  6E02               	movwf	(___fladd@b+1)^0,c
  6365   0026EC  0E00               	movlw	0
  6366   0026EE  6E03               	movwf	(___fladd@b+2)^0,c
  6367   0026F0  0E00               	movlw	0
  6368   0026F2  6E04               	movwf	(___fladd@b+3)^0,c
  6369   0026F4  C00E  F00F         	movff	___fladd@aexp,___fladd@bexp
  6370   0026F8  EFA4  F013         	goto	l1415
  6371   0026FC                     l1417:
  6372   0026FC  A010               	btfss	___fladd@grs^0,0,c
  6373   0026FE  EF83  F013         	goto	u3041
  6374   002702  EF85  F013         	goto	u3040
  6375   002706                     u3041:
  6376   002706  EF8B  F013         	goto	l4136
  6377   00270A                     u3040:
  6378   00270A  90D8               	bcf	status,0,c
  6379   00270C  3010               	rrcf	___fladd@grs^0,w,c
  6380   00270E  0901               	iorlw	1
  6381   002710  6E10               	movwf	___fladd@grs^0,c
  6382   002712  EF8D  F013         	goto	l4138
  6383   002716                     l4136:
  6384   002716  90D8               	bcf	status,0,c
  6385   002718  3210               	rrcf	___fladd@grs^0,f,c
  6386   00271A                     l4138:
  6387   00271A  A001               	btfss	___fladd@b^0,0,c
  6388   00271C  EF92  F013         	goto	u3051
  6389   002720  EF94  F013         	goto	u3050
  6390   002724                     u3051:
  6391   002724  EF95  F013         	goto	l4142
  6392   002728                     u3050:
  6393   002728  8E10               	bsf	___fladd@grs^0,7,c
  6394   00272A                     l4142:
  6395   00272A  3404               	rlcf	(___fladd@b+3)^0,w,c
  6396   00272C  3204               	rrcf	(___fladd@b+3)^0,f,c
  6397   00272E  3203               	rrcf	(___fladd@b+2)^0,f,c
  6398   002730  3202               	rrcf	(___fladd@b+1)^0,f,c
  6399   002732  3201               	rrcf	___fladd@b^0,f,c
  6400   002734  2A0F               	incf	___fladd@bexp^0,f,c
  6401   002736                     l1416:
  6402   002736  500E               	movf	___fladd@aexp^0,w,c
  6403   002738  5C0F               	subwf	___fladd@bexp^0,w,c
  6404   00273A  A0D8               	btfss	status,0,c
  6405   00273C  EFA2  F013         	goto	u3061
  6406   002740  EFA4  F013         	goto	u3060
  6407   002744                     u3061:
  6408   002744  EF7E  F013         	goto	l1417
  6409   002748                     u3060:
  6410   002748                     l1415:
  6411   002748  BC0D               	btfsc	___fladd@signs^0,6,c
  6412   00274A  EFA9  F013         	goto	u3071
  6413   00274E  EFAB  F013         	goto	u3070
  6414   002752                     u3071:
  6415   002752  EFEB  F013         	goto	l4170
  6416   002756                     u3070:
  6417   002756  500F               	movf	___fladd@bexp^0,w,c
  6418   002758  A4D8               	btfss	status,2,c
  6419   00275A  EFB1  F013         	goto	u3081
  6420   00275E  EFB3  F013         	goto	u3080
  6421   002762                     u3081:
  6422   002762  EFBD  F013         	goto	l4152
  6423   002766                     u3080:
  6424   002766  0E00               	movlw	0
  6425   002768  6E01               	movwf	?___fladd^0,c
  6426   00276A  0E00               	movlw	0
  6427   00276C  6E02               	movwf	(?___fladd+1)^0,c
  6428   00276E  0E00               	movlw	0
  6429   002770  6E03               	movwf	(?___fladd+2)^0,c
  6430   002772  0E00               	movlw	0
  6431   002774  6E04               	movwf	(?___fladd+3)^0,c
  6432   002776  EF0C  F015         	goto	l1424
  6433   00277A                     l4152:
  6434   00277A  5005               	movf	___fladd@a^0,w,c
  6435   00277C  2601               	addwf	___fladd@b^0,f,c
  6436   00277E  5006               	movf	(___fladd@a+1)^0,w,c
  6437   002780  2202               	addwfc	(___fladd@b+1)^0,f,c
  6438   002782  5007               	movf	(___fladd@a+2)^0,w,c
  6439   002784  2203               	addwfc	(___fladd@b+2)^0,f,c
  6440   002786  5008               	movf	(___fladd@a+3)^0,w,c
  6441   002788  2204               	addwfc	(___fladd@b+3)^0,f,c
  6442   00278A  A004               	btfss	(___fladd@b+3)^0,0,c
  6443   00278C  EFCA  F013         	goto	u3091
  6444   002790  EFCC  F013         	goto	u3090
  6445   002794                     u3091:
  6446   002794  EF78  F014         	goto	l4206
  6447   002798                     u3090:
  6448   002798  A010               	btfss	___fladd@grs^0,0,c
  6449   00279A  EFD1  F013         	goto	u3101
  6450   00279E  EFD3  F013         	goto	u3100
  6451   0027A2                     u3101:
  6452   0027A2  EFD9  F013         	goto	l4160
  6453   0027A6                     u3100:
  6454   0027A6  90D8               	bcf	status,0,c
  6455   0027A8  3010               	rrcf	___fladd@grs^0,w,c
  6456   0027AA  0901               	iorlw	1
  6457   0027AC  6E10               	movwf	___fladd@grs^0,c
  6458   0027AE  EFDB  F013         	goto	l4162
  6459   0027B2                     l4160:
  6460   0027B2  90D8               	bcf	status,0,c
  6461   0027B4  3210               	rrcf	___fladd@grs^0,f,c
  6462   0027B6                     l4162:
  6463   0027B6  A001               	btfss	___fladd@b^0,0,c
  6464   0027B8  EFE0  F013         	goto	u3111
  6465   0027BC  EFE2  F013         	goto	u3110
  6466   0027C0                     u3111:
  6467   0027C0  EFE3  F013         	goto	l4166
  6468   0027C4                     u3110:
  6469   0027C4  8E10               	bsf	___fladd@grs^0,7,c
  6470   0027C6                     l4166:
  6471   0027C6  3404               	rlcf	(___fladd@b+3)^0,w,c
  6472   0027C8  3204               	rrcf	(___fladd@b+3)^0,f,c
  6473   0027CA  3203               	rrcf	(___fladd@b+2)^0,f,c
  6474   0027CC  3202               	rrcf	(___fladd@b+1)^0,f,c
  6475   0027CE  3201               	rrcf	___fladd@b^0,f,c
  6476   0027D0  2A0F               	incf	___fladd@bexp^0,f,c
  6477   0027D2  EF78  F014         	goto	l4206
  6478   0027D6                     l4170:
  6479   0027D6  5005               	movf	___fladd@a^0,w,c
  6480   0027D8  5C01               	subwf	___fladd@b^0,w,c
  6481   0027DA  5006               	movf	(___fladd@a+1)^0,w,c
  6482   0027DC  5802               	subwfb	(___fladd@b+1)^0,w,c
  6483   0027DE  5007               	movf	(___fladd@a+2)^0,w,c
  6484   0027E0  5803               	subwfb	(___fladd@b+2)^0,w,c
  6485   0027E2  5004               	movf	(___fladd@b+3)^0,w,c
  6486   0027E4  0A80               	xorlw	128
  6487   0027E6  6E09               	movwf	??___fladd^0,c
  6488   0027E8  5008               	movf	(___fladd@a+3)^0,w,c
  6489   0027EA  0A80               	xorlw	128
  6490   0027EC  5809               	subwfb	??___fladd^0,w,c
  6491   0027EE  B0D8               	btfsc	status,0,c
  6492   0027F0  EFFC  F013         	goto	u3121
  6493   0027F4  EFFE  F013         	goto	u3120
  6494   0027F8                     u3121:
  6495   0027F8  EF29  F014         	goto	l4180
  6496   0027FC                     u3120:
  6497   0027FC  5001               	movf	___fladd@b^0,w,c
  6498   0027FE  5C05               	subwf	___fladd@a^0,w,c
  6499   002800  6E09               	movwf	??___fladd^0,c
  6500   002802  5002               	movf	(___fladd@b+1)^0,w,c
  6501   002804  5806               	subwfb	(___fladd@a+1)^0,w,c
  6502   002806  6E0A               	movwf	(??___fladd+1)^0,c
  6503   002808  5003               	movf	(___fladd@b+2)^0,w,c
  6504   00280A  5807               	subwfb	(___fladd@a+2)^0,w,c
  6505   00280C  6E0B               	movwf	(??___fladd+2)^0,c
  6506   00280E  5004               	movf	(___fladd@b+3)^0,w,c
  6507   002810  5808               	subwfb	(___fladd@a+3)^0,w,c
  6508   002812  6E0C               	movwf	(??___fladd+3)^0,c
  6509   002814  0EFF               	movlw	255
  6510   002816  2409               	addwf	??___fladd^0,w,c
  6511   002818  6E01               	movwf	___fladd@b^0,c
  6512   00281A  0EFF               	movlw	255
  6513   00281C  200A               	addwfc	(??___fladd+1)^0,w,c
  6514   00281E  6E02               	movwf	(___fladd@b+1)^0,c
  6515   002820  0EFF               	movlw	255
  6516   002822  200B               	addwfc	(??___fladd+2)^0,w,c
  6517   002824  6E03               	movwf	(___fladd@b+2)^0,c
  6518   002826  0EFF               	movlw	255
  6519   002828  200C               	addwfc	(??___fladd+3)^0,w,c
  6520   00282A  6E04               	movwf	(___fladd@b+3)^0,c
  6521   00282C  0E80               	movlw	128
  6522   00282E  1A0D               	xorwf	___fladd@signs^0,f,c
  6523   002830  6C10               	negf	___fladd@grs^0,c
  6524   002832  5010               	movf	___fladd@grs^0,w,c
  6525   002834  A4D8               	btfss	status,2,c
  6526   002836  EF1F  F014         	goto	u3131
  6527   00283A  EF21  F014         	goto	u3130
  6528   00283E                     u3131:
  6529   00283E  EF31  F014         	goto	l1432
  6530   002842                     u3130:
  6531   002842  0E01               	movlw	1
  6532   002844  2601               	addwf	___fladd@b^0,f,c
  6533   002846  0E00               	movlw	0
  6534   002848  2202               	addwfc	(___fladd@b+1)^0,f,c
  6535   00284A  2203               	addwfc	(___fladd@b+2)^0,f,c
  6536   00284C  2204               	addwfc	(___fladd@b+3)^0,f,c
  6537   00284E  EF31  F014         	goto	l1432
  6538   002852                     l4180:
  6539   002852  5005               	movf	___fladd@a^0,w,c
  6540   002854  5E01               	subwf	___fladd@b^0,f,c
  6541   002856  5006               	movf	(___fladd@a+1)^0,w,c
  6542   002858  5A02               	subwfb	(___fladd@b+1)^0,f,c
  6543   00285A  5007               	movf	(___fladd@a+2)^0,w,c
  6544   00285C  5A03               	subwfb	(___fladd@b+2)^0,f,c
  6545   00285E  5008               	movf	(___fladd@a+3)^0,w,c
  6546   002860  5A04               	subwfb	(___fladd@b+3)^0,f,c
  6547   002862                     l1432:
  6548   002862  5001               	movf	___fladd@b^0,w,c
  6549   002864  1002               	iorwf	(___fladd@b+1)^0,w,c
  6550   002866  1003               	iorwf	(___fladd@b+2)^0,w,c
  6551   002868  1004               	iorwf	(___fladd@b+3)^0,w,c
  6552   00286A  A4D8               	btfss	status,2,c
  6553   00286C  EF3A  F014         	goto	u3141
  6554   002870  EF3C  F014         	goto	u3140
  6555   002874                     u3141:
  6556   002874  EF71  F014         	goto	l4204
  6557   002878                     u3140:
  6558   002878  5010               	movf	___fladd@grs^0,w,c
  6559   00287A  A4D8               	btfss	status,2,c
  6560   00287C  EF42  F014         	goto	u3151
  6561   002880  EF44  F014         	goto	u3150
  6562   002884                     u3151:
  6563   002884  EF71  F014         	goto	l4204
  6564   002888                     u3150:
  6565   002888  0E00               	movlw	0
  6566   00288A  6E01               	movwf	?___fladd^0,c
  6567   00288C  0E00               	movlw	0
  6568   00288E  6E02               	movwf	(?___fladd+1)^0,c
  6569   002890  0E00               	movlw	0
  6570   002892  6E03               	movwf	(?___fladd+2)^0,c
  6571   002894  0E00               	movlw	0
  6572   002896  6E04               	movwf	(?___fladd+3)^0,c
  6573   002898  EF0C  F015         	goto	l1424
  6574   00289C                     l4188:
  6575   00289C  90D8               	bcf	status,0,c
  6576   00289E  3601               	rlcf	___fladd@b^0,f,c
  6577   0028A0  3602               	rlcf	(___fladd@b+1)^0,f,c
  6578   0028A2  3603               	rlcf	(___fladd@b+2)^0,f,c
  6579   0028A4  3604               	rlcf	(___fladd@b+3)^0,f,c
  6580   0028A6  AE10               	btfss	___fladd@grs^0,7,c
  6581   0028A8  EF58  F014         	goto	u3161
  6582   0028AC  EF5A  F014         	goto	u3160
  6583   0028B0                     u3161:
  6584   0028B0  EF5B  F014         	goto	l4194
  6585   0028B4                     u3160:
  6586   0028B4  8001               	bsf	___fladd@b^0,0,c
  6587   0028B6                     l4194:
  6588   0028B6  A010               	btfss	___fladd@grs^0,0,c
  6589   0028B8  EF60  F014         	goto	u3171
  6590   0028BC  EF62  F014         	goto	u3170
  6591   0028C0                     u3171:
  6592   0028C0  EF66  F014         	goto	l4198
  6593   0028C4                     u3170:
  6594   0028C4  80D8               	bsf	status,0,c
  6595   0028C6  3610               	rlcf	___fladd@grs^0,f,c
  6596   0028C8  EF68  F014         	goto	l4200
  6597   0028CC                     l4198:
  6598   0028CC  90D8               	bcf	status,0,c
  6599   0028CE  3610               	rlcf	___fladd@grs^0,f,c
  6600   0028D0                     l4200:
  6601   0028D0  500F               	movf	___fladd@bexp^0,w,c
  6602   0028D2  B4D8               	btfsc	status,2,c
  6603   0028D4  EF6E  F014         	goto	u3181
  6604   0028D8  EF70  F014         	goto	u3180
  6605   0028DC                     u3181:
  6606   0028DC  EF71  F014         	goto	l4204
  6607   0028E0                     u3180:
  6608   0028E0  060F               	decf	___fladd@bexp^0,f,c
  6609   0028E2                     l4204:
  6610   0028E2  AE03               	btfss	(___fladd@b+2)^0,7,c
  6611   0028E4  EF76  F014         	goto	u3191
  6612   0028E8  EF78  F014         	goto	u3190
  6613   0028EC                     u3191:
  6614   0028EC  EF4E  F014         	goto	l4188
  6615   0028F0                     u3190:
  6616   0028F0                     l4206:
  6617   0028F0  0E00               	movlw	0
  6618   0028F2  6E0E               	movwf	___fladd@aexp^0,c
  6619   0028F4  AE10               	btfss	___fladd@grs^0,7,c
  6620   0028F6  EF7F  F014         	goto	u3201
  6621   0028FA  EF81  F014         	goto	u3200
  6622   0028FE                     u3201:
  6623   0028FE  EF99  F014         	goto	l1441
  6624   002902                     u3200:
  6625   002902  C010  F009         	movff	___fladd@grs,??___fladd
  6626   002906  0E7F               	movlw	127
  6627   002908  1609               	andwf	??___fladd^0,f,c
  6628   00290A  B4D8               	btfsc	status,2,c
  6629   00290C  EF8A  F014         	goto	u3211
  6630   002910  EF8C  F014         	goto	u3210
  6631   002914                     u3211:
  6632   002914  EF90  F014         	goto	l1442
  6633   002918                     u3210:
  6634   002918                     l4212:
  6635   002918  0E01               	movlw	1
  6636   00291A  6E0E               	movwf	___fladd@aexp^0,c
  6637   00291C  EF99  F014         	goto	l1441
  6638   002920                     l1442:
  6639   002920  A001               	btfss	___fladd@b^0,0,c
  6640   002922  EF95  F014         	goto	u3221
  6641   002926  EF97  F014         	goto	u3220
  6642   00292A                     u3221:
  6643   00292A  EF99  F014         	goto	l1441
  6644   00292E                     u3220:
  6645   00292E  EF8C  F014         	goto	l4212
  6646   002932                     l1441:
  6647   002932  500E               	movf	___fladd@aexp^0,w,c
  6648   002934  B4D8               	btfsc	status,2,c
  6649   002936  EF9F  F014         	goto	u3231
  6650   00293A  EFA1  F014         	goto	u3230
  6651   00293E                     u3231:
  6652   00293E  EFCC  F014         	goto	l4224
  6653   002942                     u3230:
  6654   002942  0E01               	movlw	1
  6655   002944  2601               	addwf	___fladd@b^0,f,c
  6656   002946  0E00               	movlw	0
  6657   002948  2202               	addwfc	(___fladd@b+1)^0,f,c
  6658   00294A  2203               	addwfc	(___fladd@b+2)^0,f,c
  6659   00294C  2204               	addwfc	(___fladd@b+3)^0,f,c
  6660   00294E  A004               	btfss	(___fladd@b+3)^0,0,c
  6661   002950  EFAC  F014         	goto	u3241
  6662   002954  EFAE  F014         	goto	u3240
  6663   002958                     u3241:
  6664   002958  EFCC  F014         	goto	l4224
  6665   00295C                     u3240:
  6666   00295C  C001  F009         	movff	___fladd@b,??___fladd
  6667   002960  C002  F00A         	movff	___fladd@b+1,??___fladd+1
  6668   002964  C003  F00B         	movff	___fladd@b+2,??___fladd+2
  6669   002968  C004  F00C         	movff	___fladd@b+3,??___fladd+3
  6670   00296C  340C               	rlcf	(??___fladd+3)^0,w,c
  6671   00296E  320C               	rrcf	(??___fladd+3)^0,f,c
  6672   002970  320B               	rrcf	(??___fladd+2)^0,f,c
  6673   002972  320A               	rrcf	(??___fladd+1)^0,f,c
  6674   002974  3209               	rrcf	??___fladd^0,f,c
  6675   002976  C009  F001         	movff	??___fladd,___fladd@b
  6676   00297A  C00A  F002         	movff	??___fladd+1,___fladd@b+1
  6677   00297E  C00B  F003         	movff	??___fladd+2,___fladd@b+2
  6678   002982  C00C  F004         	movff	??___fladd+3,___fladd@b+3
  6679   002986  280F               	incf	___fladd@bexp^0,w,c
  6680   002988  B4D8               	btfsc	status,2,c
  6681   00298A  EFC9  F014         	goto	u3251
  6682   00298E  EFCB  F014         	goto	u3250
  6683   002992                     u3251:
  6684   002992  EFCC  F014         	goto	l4224
  6685   002996                     u3250:
  6686   002996  2A0F               	incf	___fladd@bexp^0,f,c
  6687   002998                     l4224:
  6688   002998  280F               	incf	___fladd@bexp^0,w,c
  6689   00299A  B4D8               	btfsc	status,2,c
  6690   00299C  EFD2  F014         	goto	u3261
  6691   0029A0  EFD4  F014         	goto	u3260
  6692   0029A4                     u3261:
  6693   0029A4  EFDC  F014         	goto	l4228
  6694   0029A8                     u3260:
  6695   0029A8  500F               	movf	___fladd@bexp^0,w,c
  6696   0029AA  A4D8               	btfss	status,2,c
  6697   0029AC  EFDA  F014         	goto	u3271
  6698   0029B0  EFDC  F014         	goto	u3270
  6699   0029B4                     u3271:
  6700   0029B4  EFEE  F014         	goto	l4232
  6701   0029B8                     u3270:
  6702   0029B8                     l4228:
  6703   0029B8  0E00               	movlw	0
  6704   0029BA  6E01               	movwf	___fladd@b^0,c
  6705   0029BC  0E00               	movlw	0
  6706   0029BE  6E02               	movwf	(___fladd@b+1)^0,c
  6707   0029C0  0E00               	movlw	0
  6708   0029C2  6E03               	movwf	(___fladd@b+2)^0,c
  6709   0029C4  0E00               	movlw	0
  6710   0029C6  6E04               	movwf	(___fladd@b+3)^0,c
  6711   0029C8  500F               	movf	___fladd@bexp^0,w,c
  6712   0029CA  A4D8               	btfss	status,2,c
  6713   0029CC  EFEA  F014         	goto	u3281
  6714   0029D0  EFEC  F014         	goto	u3280
  6715   0029D4                     u3281:
  6716   0029D4  EFEE  F014         	goto	l4232
  6717   0029D8                     u3280:
  6718   0029D8  0E00               	movlw	0
  6719   0029DA  6E0D               	movwf	___fladd@signs^0,c
  6720   0029DC                     l4232:
  6721   0029DC  A00F               	btfss	___fladd@bexp^0,0,c
  6722   0029DE  EFF3  F014         	goto	u3291
  6723   0029E2  EFF5  F014         	goto	u3290
  6724   0029E6                     u3291:
  6725   0029E6  EFF8  F014         	goto	l4236
  6726   0029EA                     u3290:
  6727   0029EA  8E03               	bsf	(___fladd@b+2)^0,7,c
  6728   0029EC  EFF9  F014         	goto	l4238
  6729   0029F0                     l4236:
  6730   0029F0  9E03               	bcf	(___fladd@b+2)^0,7,c
  6731   0029F2                     l4238:
  6732   0029F2  90D8               	bcf	status,0,c
  6733   0029F4  300F               	rrcf	___fladd@bexp^0,w,c
  6734   0029F6  6E04               	movwf	(___fladd@b+3)^0,c
  6735   0029F8  AE0D               	btfss	___fladd@signs^0,7,c
  6736   0029FA  EF01  F015         	goto	u3301
  6737   0029FE  EF03  F015         	goto	u3300
  6738   002A02                     u3301:
  6739   002A02  EF04  F015         	goto	l4244
  6740   002A06                     u3300:
  6741   002A06  8E04               	bsf	(___fladd@b+3)^0,7,c
  6742   002A08                     l4244:
  6743   002A08  C001  F001         	movff	___fladd@b,?___fladd
  6744   002A0C  C002  F002         	movff	___fladd@b+1,?___fladd+1
  6745   002A10  C003  F003         	movff	___fladd@b+2,?___fladd+2
  6746   002A14  C004  F004         	movff	___fladd@b+3,?___fladd+3
  6747   002A18                     l1424:
  6748   002A18  0012               	return		;funcret
  6749   002A1A                     __end_of___fladd:
  6750                           	callstack 0
  6751                           
  6752 ;; *************** function ___flneg *****************
  6753 ;; Defined at:
  6754 ;;		line 15 in file "C:\Program Files\Microchip\xc8\v2.41\pic\sources\c99\common\flneg.c"
  6755 ;; Parameters:    Size  Location     Type
  6756 ;;  f1              4    0[COMRAM] unsigned char 
  6757 ;; Auto vars:     Size  Location     Type
  6758 ;;		None
  6759 ;; Return value:  Size  Location     Type
  6760 ;;                  4    0[COMRAM] unsigned char 
  6761 ;; Registers used:
  6762 ;;		wreg, status,2, status,0
  6763 ;; Tracked objects:
  6764 ;;		On entry : 0/0
  6765 ;;		On exit  : 0/0
  6766 ;;		Unchanged: 0/0
  6767 ;; Data sizes:     COMRAM   BANK0   BANK1   BANK2   BANK3   BANK4   BANK5   BANK6   BANK7   BANK8   BANK9  BANK10  BANK1
      +1  BANK12  BANK13  BANK14  BANK15
  6768 ;;      Params:         4       0       0       0       0       0       0       0       0       0       0       0       
      +0       0       0       0       0
  6769 ;;      Locals:         0       0       0       0       0       0       0       0       0       0       0       0       
      +0       0       0       0       0
  6770 ;;      Temps:          0       0       0       0       0       0       0       0       0       0       0       0       
      +0       0       0       0       0
  6771 ;;      Totals:         4       0       0       0       0       0       0       0       0       0       0       0       
      +0       0       0       0       0
  6772 ;;Total ram usage:        4 bytes
  6773 ;; Hardware stack levels used: 1
  6774 ;; Hardware stack levels required when called: 2
  6775 ;; This function calls:
  6776 ;;		Nothing
  6777 ;; This function is called by:
  6778 ;;		_efgtoa
  6779 ;; This function uses a non-reentrant model
  6780 ;;
  6781                           
  6782                           	psect	text13
  6783   0051CE                     __ptext13:
  6784                           	callstack 0
  6785   0051CE                     ___flneg:
  6786                           	callstack 23
  6787   0051CE  5001               	movf	___flneg@f1^0,w,c
  6788   0051D0  1002               	iorwf	(___flneg@f1+1)^0,w,c
  6789   0051D2  1003               	iorwf	(___flneg@f1+2)^0,w,c
  6790   0051D4  1004               	iorwf	(___flneg@f1+3)^0,w,c
  6791   0051D6  B4D8               	btfsc	status,2,c
  6792   0051D8  EFF0  F028         	goto	u3941
  6793   0051DC  EFF2  F028         	goto	u3940
  6794   0051E0                     u3941:
  6795   0051E0  EFFA  F028         	goto	l4652
  6796   0051E4                     u3940:
  6797   0051E4  0E00               	movlw	0
  6798   0051E6  1A01               	xorwf	___flneg@f1^0,f,c
  6799   0051E8  0E00               	movlw	0
  6800   0051EA  1A02               	xorwf	(___flneg@f1+1)^0,f,c
  6801   0051EC  0E00               	movlw	0
  6802   0051EE  1A03               	xorwf	(___flneg@f1+2)^0,f,c
  6803   0051F0  0E80               	movlw	128
  6804   0051F2  1A04               	xorwf	(___flneg@f1+3)^0,f,c
  6805   0051F4                     l4652:
  6806   0051F4  C001  F001         	movff	___flneg@f1,?___flneg
  6807   0051F8  C002  F002         	movff	___flneg@f1+1,?___flneg+1
  6808   0051FC  C003  F003         	movff	___flneg@f1+2,?___flneg+2
  6809   005200  C004  F004         	movff	___flneg@f1+3,?___flneg+3
  6810   005204  0012               	return		;funcret
  6811   005206                     __end_of___flneg:
  6812                           	callstack 0
  6813                           
  6814 ;; *************** function ___flge *****************
  6815 ;; Defined at:
  6816 ;;		line 4 in file "C:\Program Files\Microchip\xc8\v2.41\pic\sources\c99\common\flge.c"
  6817 ;; Parameters:    Size  Location     Type
  6818 ;;  ff1             4   64[COMRAM] unsigned char 
  6819 ;;  ff2             4   68[COMRAM] unsigned char 
  6820 ;; Auto vars:     Size  Location     Type
  6821 ;;		None
  6822 ;; Return value:  Size  Location     Type
  6823 ;;		None               void
  6824 ;; Registers used:
  6825 ;;		wreg, status,2, status,0
  6826 ;; Tracked objects:
  6827 ;;		On entry : 0/0
  6828 ;;		On exit  : 0/0
  6829 ;;		Unchanged: 0/0
  6830 ;; Data sizes:     COMRAM   BANK0   BANK1   BANK2   BANK3   BANK4   BANK5   BANK6   BANK7   BANK8   BANK9  BANK10  BANK1
      +1  BANK12  BANK13  BANK14  BANK15
  6831 ;;      Params:         8       0       0       0       0       0       0       0       0       0       0       0       
      +0       0       0       0       0
  6832 ;;      Locals:         0       0       0       0       0       0       0       0       0       0       0       0       
      +0       0       0       0       0
  6833 ;;      Temps:          4       0       0       0       0       0       0       0       0       0       0       0       
      +0       0       0       0       0
  6834 ;;      Totals:        12       0       0       0       0       0       0       0       0       0       0       0       
      +0       0       0       0       0
  6835 ;;Total ram usage:       12 bytes
  6836 ;; Hardware stack levels used: 1
  6837 ;; Hardware stack levels required when called: 2
  6838 ;; This function calls:
  6839 ;;		Nothing
  6840 ;; This function is called by:
  6841 ;;		_efgtoa
  6842 ;; This function uses a non-reentrant model
  6843 ;;
  6844                           
  6845                           	psect	text14
  6846   003FAC                     __ptext14:
  6847                           	callstack 0
  6848   003FAC                     ___flge:
  6849                           	callstack 23
  6850   003FAC  0E00               	movlw	0
  6851   003FAE  1441               	andwf	___flge@ff1^0,w,c
  6852   003FB0  6E49               	movwf	??___flge^0,c
  6853   003FB2  0E00               	movlw	0
  6854   003FB4  1442               	andwf	(___flge@ff1+1)^0,w,c
  6855   003FB6  6E4A               	movwf	(??___flge+1)^0,c
  6856   003FB8  0E80               	movlw	128
  6857   003FBA  1443               	andwf	(___flge@ff1+2)^0,w,c
  6858   003FBC  6E4B               	movwf	(??___flge+2)^0,c
  6859   003FBE  0E7F               	movlw	127
  6860   003FC0  1444               	andwf	(___flge@ff1+3)^0,w,c
  6861   003FC2  6E4C               	movwf	(??___flge+3)^0,c
  6862   003FC4  5049               	movf	??___flge^0,w,c
  6863   003FC6  104A               	iorwf	(??___flge+1)^0,w,c
  6864   003FC8  104B               	iorwf	(??___flge+2)^0,w,c
  6865   003FCA  104C               	iorwf	(??___flge+3)^0,w,c
  6866   003FCC  A4D8               	btfss	status,2,c
  6867   003FCE  EFEB  F01F         	goto	u3891
  6868   003FD2  EFED  F01F         	goto	u3890
  6869   003FD6                     u3891:
  6870   003FD6  EFF5  F01F         	goto	l4630
  6871   003FDA                     u3890:
  6872   003FDA  0E00               	movlw	0
  6873   003FDC  6E41               	movwf	___flge@ff1^0,c
  6874   003FDE  0E00               	movlw	0
  6875   003FE0  6E42               	movwf	(___flge@ff1+1)^0,c
  6876   003FE2  0E00               	movlw	0
  6877   003FE4  6E43               	movwf	(___flge@ff1+2)^0,c
  6878   003FE6  0E00               	movlw	0
  6879   003FE8  6E44               	movwf	(___flge@ff1+3)^0,c
  6880   003FEA                     l4630:
  6881   003FEA  0E00               	movlw	0
  6882   003FEC  1445               	andwf	___flge@ff2^0,w,c
  6883   003FEE  6E49               	movwf	??___flge^0,c
  6884   003FF0  0E00               	movlw	0
  6885   003FF2  1446               	andwf	(___flge@ff2+1)^0,w,c
  6886   003FF4  6E4A               	movwf	(??___flge+1)^0,c
  6887   003FF6  0E80               	movlw	128
  6888   003FF8  1447               	andwf	(___flge@ff2+2)^0,w,c
  6889   003FFA  6E4B               	movwf	(??___flge+2)^0,c
  6890   003FFC  0E7F               	movlw	127
  6891   003FFE  1448               	andwf	(___flge@ff2+3)^0,w,c
  6892   004000  6E4C               	movwf	(??___flge+3)^0,c
  6893   004002  5049               	movf	??___flge^0,w,c
  6894   004004  104A               	iorwf	(??___flge+1)^0,w,c
  6895   004006  104B               	iorwf	(??___flge+2)^0,w,c
  6896   004008  104C               	iorwf	(??___flge+3)^0,w,c
  6897   00400A  A4D8               	btfss	status,2,c
  6898   00400C  EF0A  F020         	goto	u3901
  6899   004010  EF0C  F020         	goto	u3900
  6900   004014                     u3901:
  6901   004014  EF14  F020         	goto	l4634
  6902   004018                     u3900:
  6903   004018  0E00               	movlw	0
  6904   00401A  6E45               	movwf	___flge@ff2^0,c
  6905   00401C  0E00               	movlw	0
  6906   00401E  6E46               	movwf	(___flge@ff2+1)^0,c
  6907   004020  0E00               	movlw	0
  6908   004022  6E47               	movwf	(___flge@ff2+2)^0,c
  6909   004024  0E00               	movlw	0
  6910   004026  6E48               	movwf	(___flge@ff2+3)^0,c
  6911   004028                     l4634:
  6912   004028  AE44               	btfss	(___flge@ff1+3)^0,7,c
  6913   00402A  EF19  F020         	goto	u3911
  6914   00402E  EF1B  F020         	goto	u3910
  6915   004032                     u3911:
  6916   004032  EF24  F020         	goto	l4638
  6917   004036                     u3910:
  6918   004036  6C41               	negf	___flge@ff1^0,c
  6919   004038  1E42               	comf	(___flge@ff1+1)^0,f,c
  6920   00403A  B0D8               	btfsc	status,0,c
  6921   00403C  2A42               	incf	(___flge@ff1+1)^0,f,c
  6922   00403E  1E43               	comf	(___flge@ff1+2)^0,f,c
  6923   004040  B0D8               	btfsc	status,0,c
  6924   004042  2A43               	incf	(___flge@ff1+2)^0,f,c
  6925   004044  0E80               	movlw	128
  6926   004046  5644               	subfwb	(___flge@ff1+3)^0,f,c
  6927   004048                     l4638:
  6928   004048  AE48               	btfss	(___flge@ff2+3)^0,7,c
  6929   00404A  EF29  F020         	goto	u3921
  6930   00404E  EF2B  F020         	goto	u3920
  6931   004052                     u3921:
  6932   004052  EF34  F020         	goto	l1152
  6933   004056                     u3920:
  6934   004056  6C45               	negf	___flge@ff2^0,c
  6935   004058  1E46               	comf	(___flge@ff2+1)^0,f,c
  6936   00405A  B0D8               	btfsc	status,0,c
  6937   00405C  2A46               	incf	(___flge@ff2+1)^0,f,c
  6938   00405E  1E47               	comf	(___flge@ff2+2)^0,f,c
  6939   004060  B0D8               	btfsc	status,0,c
  6940   004062  2A47               	incf	(___flge@ff2+2)^0,f,c
  6941   004064  0E80               	movlw	128
  6942   004066  5648               	subfwb	(___flge@ff2+3)^0,f,c
  6943   004068                     l1152:
  6944   004068  0E00               	movlw	0
  6945   00406A  1A41               	xorwf	___flge@ff1^0,f,c
  6946   00406C  0E00               	movlw	0
  6947   00406E  1A42               	xorwf	(___flge@ff1+1)^0,f,c
  6948   004070  0E00               	movlw	0
  6949   004072  1A43               	xorwf	(___flge@ff1+2)^0,f,c
  6950   004074  0E80               	movlw	128
  6951   004076  1A44               	xorwf	(___flge@ff1+3)^0,f,c
  6952   004078  0E00               	movlw	0
  6953   00407A  1A45               	xorwf	___flge@ff2^0,f,c
  6954   00407C  0E00               	movlw	0
  6955   00407E  1A46               	xorwf	(___flge@ff2+1)^0,f,c
  6956   004080  0E00               	movlw	0
  6957   004082  1A47               	xorwf	(___flge@ff2+2)^0,f,c
  6958   004084  0E80               	movlw	128
  6959   004086  1A48               	xorwf	(___flge@ff2+3)^0,f,c
  6960   004088  5045               	movf	___flge@ff2^0,w,c
  6961   00408A  5C41               	subwf	___flge@ff1^0,w,c
  6962   00408C  5046               	movf	(___flge@ff2+1)^0,w,c
  6963   00408E  5842               	subwfb	(___flge@ff1+1)^0,w,c
  6964   004090  5047               	movf	(___flge@ff2+2)^0,w,c
  6965   004092  5843               	subwfb	(___flge@ff1+2)^0,w,c
  6966   004094  5048               	movf	(___flge@ff2+3)^0,w,c
  6967   004096  5844               	subwfb	(___flge@ff1+3)^0,w,c
  6968   004098  B0D8               	btfsc	status,0,c
  6969   00409A  EF51  F020         	goto	u3931
  6970   00409E  EF53  F020         	goto	u3930
  6971   0040A2                     u3931:
  6972   0040A2  EF56  F020         	goto	l4644
  6973   0040A6                     u3930:
  6974   0040A6  90D8               	bcf	status,0,c
  6975   0040A8  EF57  F020         	goto	l1157
  6976   0040AC                     l4644:
  6977   0040AC  80D8               	bsf	status,0,c
  6978   0040AE                     l1157:
  6979   0040AE  0012               	return		;funcret
  6980   0040B0                     __end_of___flge:
  6981                           	callstack 0
  6982                           
  6983 ;; *************** function ___fleq *****************
  6984 ;; Defined at:
  6985 ;;		line 4 in file "C:\Program Files\Microchip\xc8\v2.41\pic\sources\c99\common\fleq.c"
  6986 ;; Parameters:    Size  Location     Type
  6987 ;;  ff1             4    0[COMRAM] unsigned char 
  6988 ;;  ff2             4    4[COMRAM] unsigned char 
  6989 ;; Auto vars:     Size  Location     Type
  6990 ;;		None
  6991 ;; Return value:  Size  Location     Type
  6992 ;;		None               void
  6993 ;; Registers used:
  6994 ;;		wreg, status,2, status,0
  6995 ;; Tracked objects:
  6996 ;;		On entry : 0/0
  6997 ;;		On exit  : 0/0
  6998 ;;		Unchanged: 0/0
  6999 ;; Data sizes:     COMRAM   BANK0   BANK1   BANK2   BANK3   BANK4   BANK5   BANK6   BANK7   BANK8   BANK9  BANK10  BANK1
      +1  BANK12  BANK13  BANK14  BANK15
  7000 ;;      Params:         8       0       0       0       0       0       0       0       0       0       0       0       
      +0       0       0       0       0
  7001 ;;      Locals:         0       0       0       0       0       0       0       0       0       0       0       0       
      +0       0       0       0       0
  7002 ;;      Temps:          4       0       0       0       0       0       0       0       0       0       0       0       
      +0       0       0       0       0
  7003 ;;      Totals:        12       0       0       0       0       0       0       0       0       0       0       0       
      +0       0       0       0       0
  7004 ;;Total ram usage:       12 bytes
  7005 ;; Hardware stack levels used: 1
  7006 ;; Hardware stack levels required when called: 2
  7007 ;; This function calls:
  7008 ;;		Nothing
  7009 ;; This function is called by:
  7010 ;;		_efgtoa
  7011 ;; This function uses a non-reentrant model
  7012 ;;
  7013                           
  7014                           	psect	text15
  7015   0045D4                     __ptext15:
  7016                           	callstack 0
  7017   0045D4                     ___fleq:
  7018                           	callstack 23
  7019   0045D4  0E00               	movlw	0
  7020   0045D6  1401               	andwf	___fleq@ff1^0,w,c
  7021   0045D8  6E09               	movwf	??___fleq^0,c
  7022   0045DA  0E00               	movlw	0
  7023   0045DC  1402               	andwf	(___fleq@ff1+1)^0,w,c
  7024   0045DE  6E0A               	movwf	(??___fleq+1)^0,c
  7025   0045E0  0E80               	movlw	128
  7026   0045E2  1403               	andwf	(___fleq@ff1+2)^0,w,c
  7027   0045E4  6E0B               	movwf	(??___fleq+2)^0,c
  7028   0045E6  0E7F               	movlw	127
  7029   0045E8  1404               	andwf	(___fleq@ff1+3)^0,w,c
  7030   0045EA  6E0C               	movwf	(??___fleq+3)^0,c
  7031   0045EC  5009               	movf	??___fleq^0,w,c
  7032   0045EE  100A               	iorwf	(??___fleq+1)^0,w,c
  7033   0045F0  100B               	iorwf	(??___fleq+2)^0,w,c
  7034   0045F2  100C               	iorwf	(??___fleq+3)^0,w,c
  7035   0045F4  A4D8               	btfss	status,2,c
  7036   0045F6  EFFF  F022         	goto	u3861
  7037   0045FA  EF01  F023         	goto	u3860
  7038   0045FE                     u3861:
  7039   0045FE  EF09  F023         	goto	l4614
  7040   004602                     u3860:
  7041   004602  0E00               	movlw	0
  7042   004604  6E01               	movwf	___fleq@ff1^0,c
  7043   004606  0E00               	movlw	0
  7044   004608  6E02               	movwf	(___fleq@ff1+1)^0,c
  7045   00460A  0E00               	movlw	0
  7046   00460C  6E03               	movwf	(___fleq@ff1+2)^0,c
  7047   00460E  0E00               	movlw	0
  7048   004610  6E04               	movwf	(___fleq@ff1+3)^0,c
  7049   004612                     l4614:
  7050   004612  0E00               	movlw	0
  7051   004614  1405               	andwf	___fleq@ff2^0,w,c
  7052   004616  6E09               	movwf	??___fleq^0,c
  7053   004618  0E00               	movlw	0
  7054   00461A  1406               	andwf	(___fleq@ff2+1)^0,w,c
  7055   00461C  6E0A               	movwf	(??___fleq+1)^0,c
  7056   00461E  0E80               	movlw	128
  7057   004620  1407               	andwf	(___fleq@ff2+2)^0,w,c
  7058   004622  6E0B               	movwf	(??___fleq+2)^0,c
  7059   004624  0E7F               	movlw	127
  7060   004626  1408               	andwf	(___fleq@ff2+3)^0,w,c
  7061   004628  6E0C               	movwf	(??___fleq+3)^0,c
  7062   00462A  5009               	movf	??___fleq^0,w,c
  7063   00462C  100A               	iorwf	(??___fleq+1)^0,w,c
  7064   00462E  100B               	iorwf	(??___fleq+2)^0,w,c
  7065   004630  100C               	iorwf	(??___fleq+3)^0,w,c
  7066   004632  A4D8               	btfss	status,2,c
  7067   004634  EF1E  F023         	goto	u3871
  7068   004638  EF20  F023         	goto	u3870
  7069   00463C                     u3871:
  7070   00463C  EF28  F023         	goto	l4618
  7071   004640                     u3870:
  7072   004640  0E00               	movlw	0
  7073   004642  6E05               	movwf	___fleq@ff2^0,c
  7074   004644  0E00               	movlw	0
  7075   004646  6E06               	movwf	(___fleq@ff2+1)^0,c
  7076   004648  0E00               	movlw	0
  7077   00464A  6E07               	movwf	(___fleq@ff2+2)^0,c
  7078   00464C  0E00               	movlw	0
  7079   00464E  6E08               	movwf	(___fleq@ff2+3)^0,c
  7080   004650                     l4618:
  7081   004650  5005               	movf	___fleq@ff2^0,w,c
  7082   004652  1801               	xorwf	___fleq@ff1^0,w,c
  7083   004654  E10F               	bnz	u3880
  7084   004656  5006               	movf	(___fleq@ff2+1)^0,w,c
  7085   004658  1802               	xorwf	(___fleq@ff1+1)^0,w,c
  7086   00465A  E10C               	bnz	u3880
  7087   00465C  5007               	movf	(___fleq@ff2+2)^0,w,c
  7088   00465E  1803               	xorwf	(___fleq@ff1+2)^0,w,c
  7089   004660  E109               	bnz	u3880
  7090   004662  5008               	movf	(___fleq@ff2+3)^0,w,c
  7091   004664  1804               	xorwf	(___fleq@ff1+3)^0,w,c
  7092   004666  B4D8               	btfsc	status,2,c
  7093   004668  EF38  F023         	goto	u3881
  7094   00466C  EF3A  F023         	goto	u3880
  7095   004670                     u3881:
  7096   004670  EF3D  F023         	goto	l4622
  7097   004674                     u3880:
  7098   004674  90D8               	bcf	status,0,c
  7099   004676  EF3E  F023         	goto	l1146
  7100   00467A                     l4622:
  7101   00467A  80D8               	bsf	status,0,c
  7102   00467C                     l1146:
  7103   00467C  0012               	return		;funcret
  7104   00467E                     __end_of___fleq:
  7105                           	callstack 0
  7106                           
  7107 ;; *************** function _dtoa *****************
  7108 ;; Defined at:
  7109 ;;		line 470 in file "C:\Program Files\Microchip\xc8\v2.41\pic\sources\c99\common\doprnt.c"
  7110 ;; Parameters:    Size  Location     Type
  7111 ;;  fp              2   27[COMRAM] PTR struct _IO_FILE
  7112 ;;		 -> sprintf@f(12), 
  7113 ;;  d               2   29[COMRAM] int 
  7114 ;; Auto vars:     Size  Location     Type
  7115 ;;  i               2   37[COMRAM] int 
  7116 ;;  w               2   35[COMRAM] int 
  7117 ;;  p               2   33[COMRAM] int 
  7118 ;;  s               1   39[COMRAM] unsigned char 
  7119 ;; Return value:  Size  Location     Type
  7120 ;;                  1    wreg      void 
  7121 ;; Registers used:
  7122 ;;		wreg, fsr1l, fsr1h, fsr2l, fsr2h, status,2, status,0, cstack
  7123 ;; Tracked objects:
  7124 ;;		On entry : 0/0
  7125 ;;		On exit  : 0/0
  7126 ;;		Unchanged: 0/0
  7127 ;; Data sizes:     COMRAM   BANK0   BANK1   BANK2   BANK3   BANK4   BANK5   BANK6   BANK7   BANK8   BANK9  BANK10  BANK1
      +1  BANK12  BANK13  BANK14  BANK15
  7128 ;;      Params:         4       0       0       0       0       0       0       0       0       0       0       0       
      +0       0       0       0       0
  7129 ;;      Locals:         9       0       0       0       0       0       0       0       0       0       0       0       
      +0       0       0       0       0
  7130 ;;      Temps:          0       0       0       0       0       0       0       0       0       0       0       0       
      +0       0       0       0       0
  7131 ;;      Totals:        13       0       0       0       0       0       0       0       0       0       0       0       
      +0       0       0       0       0
  7132 ;;Total ram usage:       13 bytes
  7133 ;; Hardware stack levels used: 1
  7134 ;; Hardware stack levels required when called: 6
  7135 ;; This function calls:
  7136 ;;		___awdiv
  7137 ;;		___awmod
  7138 ;;		_abs
  7139 ;;		_pad
  7140 ;; This function is called by:
  7141 ;;		_vfpfcnvrt
  7142 ;; This function uses a non-reentrant model
  7143 ;;
  7144                           
  7145                           	psect	text16
  7146   003920                     __ptext16:
  7147                           	callstack 0
  7148   003920                     _dtoa:
  7149                           	callstack 20
  7150   003920                     
  7151                           ;C:\Program Files\Microchip\xc8\v2.41\pic\sources\c99\common\doprnt.c: 470: static void 
      +                          dtoa(FILE *fp, vfpf_sint_t d);C:\Program Files\Microchip\xc8\v2.41\pic\sources\c99\commo
      +                          n\doprnt.c: 471: {;C:\Program Files\Microchip\xc8\v2.41\pic\sources\c99\common\doprnt.c:
      +                           472:  char s;;C:\Program Files\Microchip\xc8\v2.41\pic\sources\c99\common\doprnt.c: 473
      +                          :     int i, p, w;;C:\Program Files\Microchip\xc8\v2.41\pic\sources\c99\common\doprnt.c:
      +                           476:     s = d < 0 ? 1 : 0;
  7152   003920  BE1F               	btfsc	(dtoa@d+1)^0,7,c
  7153   003922  EF95  F01C         	goto	u4251
  7154   003926  EF98  F01C         	goto	u4250
  7155   00392A                     u4251:
  7156   00392A  0E01               	movlw	1
  7157   00392C  EF99  F01C         	goto	u4260
  7158   003930                     u4250:
  7159   003930  0E00               	movlw	0
  7160   003932                     u4260:
  7161   003932  6E28               	movwf	dtoa@s^0,c
  7162   003934                     
  7163                           ;C:\Program Files\Microchip\xc8\v2.41\pic\sources\c99\common\doprnt.c: 477:     if (s) {
  7164   003934  5028               	movf	dtoa@s^0,w,c
  7165   003936  B4D8               	btfsc	status,2,c
  7166   003938  EFA0  F01C         	goto	u4271
  7167   00393C  EFA2  F01C         	goto	u4270
  7168   003940                     u4271:
  7169   003940  EFA6  F01C         	goto	l4794
  7170   003944                     u4270:
  7171   003944                     
  7172                           ;C:\Program Files\Microchip\xc8\v2.41\pic\sources\c99\common\doprnt.c: 478:         d = 
      +                          -d;
  7173   003944  6C1E               	negf	dtoa@d^0,c
  7174   003946  1E1F               	comf	(dtoa@d+1)^0,f,c
  7175   003948  B0D8               	btfsc	status,0,c
  7176   00394A  2A1F               	incf	(dtoa@d+1)^0,f,c
  7177   00394C                     l4794:
  7178                           
  7179                           ;C:\Program Files\Microchip\xc8\v2.41\pic\sources\c99\common\doprnt.c: 487:     p = (0 <
      +                          = prec) ? prec : 1;
  7180   00394C  0100               	movlb	0	; () banked
  7181   00394E  BFE2               	btfsc	(_prec+1)& (0+255),7,b
  7182   003950  EFAE  F01C         	goto	u4280
  7183   003954  EFAC  F01C         	goto	u4281
  7184   003958                     u4281:
  7185   003958  EFB4  F01C         	goto	l1606
  7186   00395C                     u4280:
  7187   00395C                     
  7188                           ; BSR set to: 0
  7189   00395C  0E00               	movlw	0
  7190   00395E  6E23               	movwf	(dtoa@p+1)^0,c
  7191   003960  0E01               	movlw	1
  7192   003962  6E22               	movwf	dtoa@p^0,c
  7193   003964  EFB8  F01C         	goto	l1608
  7194   003968                     l1606:
  7195                           
  7196                           ; BSR set to: 0
  7197   003968  C0E1  F022         	movff	_prec,dtoa@p
  7198   00396C  C0E2  F023         	movff	_prec+1,dtoa@p+1
  7199   003970                     l1608:
  7200                           
  7201                           ; BSR set to: 0
  7202                           ;C:\Program Files\Microchip\xc8\v2.41\pic\sources\c99\common\doprnt.c: 488:     w = widt
      +                          h;
  7203   003970  C0DF  F024         	movff	_width,dtoa@w
  7204   003974  C0E0  F025         	movff	_width+1,dtoa@w+1
  7205   003978                     
  7206                           ; BSR set to: 0
  7207                           ;C:\Program Files\Microchip\xc8\v2.41\pic\sources\c99\common\doprnt.c: 489:     if (s
  7208   003978  5028               	movf	dtoa@s^0,w,c
  7209   00397A  B4D8               	btfsc	status,2,c
  7210   00397C  EFC2  F01C         	goto	u4291
  7211   003980  EFC4  F01C         	goto	u4290
  7212   003984                     u4291:
  7213   003984  EFDB  F01C         	goto	l1609
  7214   003988                     u4290:
  7215   003988                     
  7216                           ; BSR set to: 0
  7217                           ;C:\Program Files\Microchip\xc8\v2.41\pic\sources\c99\common\doprnt.c: 493:     ) {;C:\P
      +                          rogram Files\Microchip\xc8\v2.41\pic\sources\c99\common\doprnt.c: 494:         --w;
  7218   003988  0624               	decf	dtoa@w^0,f,c
  7219   00398A  A0D8               	btfss	status,0,c
  7220   00398C  0625               	decf	(dtoa@w+1)^0,f,c
  7221   00398E                     
  7222                           ; BSR set to: 0
  7223                           ;C:\Program Files\Microchip\xc8\v2.41\pic\sources\c99\common\doprnt.c: 495:   s = s ? '-
      +                          ' : '+';
  7224   00398E  5028               	movf	dtoa@s^0,w,c
  7225   003990  A4D8               	btfss	status,2,c
  7226   003992  EFCD  F01C         	goto	u4301
  7227   003996  EFCF  F01C         	goto	u4300
  7228   00399A                     u4301:
  7229   00399A  EFD5  F01C         	goto	l4806
  7230   00399E                     u4300:
  7231   00399E                     
  7232                           ; BSR set to: 0
  7233   00399E  0E00               	movlw	0
  7234   0039A0  6E21               	movwf	(_dtoa$2261+1)^0,c
  7235   0039A2  0E2B               	movlw	43
  7236   0039A4  6E20               	movwf	_dtoa$2261^0,c
  7237   0039A6  EFD9  F01C         	goto	l4808
  7238   0039AA                     l4806:
  7239                           
  7240                           ; BSR set to: 0
  7241   0039AA  0E00               	movlw	0
  7242   0039AC  6E21               	movwf	(_dtoa$2261+1)^0,c
  7243   0039AE  0E2D               	movlw	45
  7244   0039B0  6E20               	movwf	_dtoa$2261^0,c
  7245   0039B2                     l4808:
  7246                           
  7247                           ; BSR set to: 0
  7248   0039B2  C020  F028         	movff	_dtoa$2261,dtoa@s
  7249   0039B6                     l1609:
  7250                           
  7251                           ; BSR set to: 0
  7252                           ;C:\Program Files\Microchip\xc8\v2.41\pic\sources\c99\common\doprnt.c: 505:     i = size
      +                          of(dbuf) - 1;
  7253   0039B6  0E00               	movlw	0
  7254   0039B8  6E27               	movwf	(dtoa@i+1)^0,c
  7255   0039BA  0E4F               	movlw	79
  7256   0039BC  6E26               	movwf	dtoa@i^0,c
  7257   0039BE                     
  7258                           ; BSR set to: 0
  7259                           ;C:\Program Files\Microchip\xc8\v2.41\pic\sources\c99\common\doprnt.c: 506:     dbuf[i] 
      +                          = '\0';
  7260   0039BE  0E00               	movlw	0
  7261   0039C0  0101               	movlb	1	; () banked
  7262   0039C2  6F81               	movwf	(_dbuf+79)& (0+255),b
  7263                           
  7264                           ;C:\Program Files\Microchip\xc8\v2.41\pic\sources\c99\common\doprnt.c: 507:     while (!
      +                          (i < 1) && (d || (0 < p)
  7265   0039C4  EF14  F01D         	goto	l4822
  7266   0039C8                     l4812:
  7267                           
  7268                           ;C:\Program Files\Microchip\xc8\v2.41\pic\sources\c99\common\doprnt.c: 511:     )) {;C:\
      +                          Program Files\Microchip\xc8\v2.41\pic\sources\c99\common\doprnt.c: 512:         --i;
  7269   0039C8  0626               	decf	dtoa@i^0,f,c
  7270   0039CA  A0D8               	btfss	status,0,c
  7271   0039CC  0627               	decf	(dtoa@i+1)^0,f,c
  7272   0039CE                     
  7273                           ;C:\Program Files\Microchip\xc8\v2.41\pic\sources\c99\common\doprnt.c: 513:         dbuf
      +                          [i] = (char)((int)'0' + abs(d % 10));
  7274   0039CE  0E32               	movlw	low _dbuf
  7275   0039D0  2426               	addwf	dtoa@i^0,w,c
  7276   0039D2  6ED9               	movwf	fsr2l,c
  7277   0039D4  0E01               	movlw	high _dbuf
  7278   0039D6  2027               	addwfc	(dtoa@i+1)^0,w,c
  7279   0039D8  6EDA               	movwf	fsr2h,c
  7280   0039DA  C01E  F001         	movff	dtoa@d,___awmod@dividend
  7281   0039DE  C01F  F002         	movff	dtoa@d+1,___awmod@dividend+1
  7282   0039E2  0E00               	movlw	0
  7283   0039E4  6E04               	movwf	(___awmod@divisor+1)^0,c
  7284   0039E6  0E0A               	movlw	10
  7285   0039E8  6E03               	movwf	___awmod@divisor^0,c
  7286   0039EA  EC92  F022         	call	___awmod	;wreg free
  7287   0039EE  C001  F007         	movff	?___awmod,abs@a
  7288   0039F2  C002  F008         	movff	?___awmod+1,abs@a+1
  7289   0039F6  ECC7  F028         	call	_abs	;wreg free
  7290   0039FA  5007               	movf	?_abs^0,w,c
  7291   0039FC  0F30               	addlw	48
  7292   0039FE  6EDF               	movwf	indf2,c
  7293   003A00                     
  7294                           ;C:\Program Files\Microchip\xc8\v2.41\pic\sources\c99\common\doprnt.c: 514:         --p;
  7295   003A00  0622               	decf	dtoa@p^0,f,c
  7296   003A02  A0D8               	btfss	status,0,c
  7297   003A04  0623               	decf	(dtoa@p+1)^0,f,c
  7298   003A06                     
  7299                           ;C:\Program Files\Microchip\xc8\v2.41\pic\sources\c99\common\doprnt.c: 515:         --w;
  7300   003A06  0624               	decf	dtoa@w^0,f,c
  7301   003A08  A0D8               	btfss	status,0,c
  7302   003A0A  0625               	decf	(dtoa@w+1)^0,f,c
  7303   003A0C                     
  7304                           ;C:\Program Files\Microchip\xc8\v2.41\pic\sources\c99\common\doprnt.c: 516:         d = 
      +                          d / 10;
  7305   003A0C  C01E  F001         	movff	dtoa@d,___awdiv@dividend
  7306   003A10  C01F  F002         	movff	dtoa@d+1,___awdiv@dividend+1
  7307   003A14  0E00               	movlw	0
  7308   003A16  6E04               	movwf	(___awdiv@divisor+1)^0,c
  7309   003A18  0E0A               	movlw	10
  7310   003A1A  6E03               	movwf	___awdiv@divisor^0,c
  7311   003A1C  EC30  F022         	call	___awdiv	;wreg free
  7312   003A20  C001  F01E         	movff	?___awdiv,dtoa@d
  7313   003A24  C002  F01F         	movff	?___awdiv+1,dtoa@d+1
  7314   003A28                     l4822:
  7315                           
  7316                           ;C:\Program Files\Microchip\xc8\v2.41\pic\sources\c99\common\doprnt.c: 507:     while (!
      +                          (i < 1) && (d || (0 < p)
  7317   003A28  BE27               	btfsc	(dtoa@i+1)^0,7,c
  7318   003A2A  EF1F  F01D         	goto	u4311
  7319   003A2E  5027               	movf	(dtoa@i+1)^0,w,c
  7320   003A30  E108               	bnz	u4310
  7321   003A32  0426               	decf	dtoa@i^0,w,c
  7322   003A34  A0D8               	btfss	status,0,c
  7323   003A36  EF1F  F01D         	goto	u4311
  7324   003A3A  EF21  F01D         	goto	u4310
  7325   003A3E                     u4311:
  7326   003A3E  EF37  F01D         	goto	l4828
  7327   003A42                     u4310:
  7328   003A42  501E               	movf	dtoa@d^0,w,c
  7329   003A44  101F               	iorwf	(dtoa@d+1)^0,w,c
  7330   003A46  A4D8               	btfss	status,2,c
  7331   003A48  EF28  F01D         	goto	u4321
  7332   003A4C  EF2A  F01D         	goto	u4320
  7333   003A50                     u4321:
  7334   003A50  EFE4  F01C         	goto	l4812
  7335   003A54                     u4320:
  7336   003A54  BE23               	btfsc	(dtoa@p+1)^0,7,c
  7337   003A56  EF37  F01D         	goto	u4330
  7338   003A5A  5023               	movf	(dtoa@p+1)^0,w,c
  7339   003A5C  E106               	bnz	u4331
  7340   003A5E  0422               	decf	dtoa@p^0,w,c
  7341   003A60  B0D8               	btfsc	status,0,c
  7342   003A62  EF35  F01D         	goto	u4331
  7343   003A66  EF37  F01D         	goto	u4330
  7344   003A6A                     u4331:
  7345   003A6A  EFE4  F01C         	goto	l4812
  7346   003A6E                     u4330:
  7347   003A6E                     l4828:
  7348                           
  7349                           ;C:\Program Files\Microchip\xc8\v2.41\pic\sources\c99\common\doprnt.c: 520:     if (s !=
      +                           0) {
  7350   003A6E  5028               	movf	dtoa@s^0,w,c
  7351   003A70  B4D8               	btfsc	status,2,c
  7352   003A72  EF3D  F01D         	goto	u4341
  7353   003A76  EF3F  F01D         	goto	u4340
  7354   003A7A                     u4341:
  7355   003A7A  EF4B  F01D         	goto	l4834
  7356   003A7E                     u4340:
  7357   003A7E                     
  7358                           ;C:\Program Files\Microchip\xc8\v2.41\pic\sources\c99\common\doprnt.c: 521:         --i;
  7359   003A7E  0626               	decf	dtoa@i^0,f,c
  7360   003A80  A0D8               	btfss	status,0,c
  7361   003A82  0627               	decf	(dtoa@i+1)^0,f,c
  7362   003A84                     
  7363                           ;C:\Program Files\Microchip\xc8\v2.41\pic\sources\c99\common\doprnt.c: 522:         dbuf
      +                          [i] = s;
  7364   003A84  0E32               	movlw	low _dbuf
  7365   003A86  2426               	addwf	dtoa@i^0,w,c
  7366   003A88  6ED9               	movwf	fsr2l,c
  7367   003A8A  0E01               	movlw	high _dbuf
  7368   003A8C  2027               	addwfc	(dtoa@i+1)^0,w,c
  7369   003A8E  6EDA               	movwf	fsr2h,c
  7370   003A90  0060  F0A3  FFDF   	movff	dtoa@s,indf2
  7371   003A96                     l4834:
  7372                           
  7373                           ;C:\Program Files\Microchip\xc8\v2.41\pic\sources\c99\common\doprnt.c: 526:     return (
      +                          void) pad(fp, &dbuf[i], w);
  7374   003A96  C01C  F011         	movff	dtoa@fp,pad@fp
  7375   003A9A  C01D  F012         	movff	dtoa@fp+1,pad@fp+1
  7376   003A9E  0E32               	movlw	low _dbuf
  7377   003AA0  2426               	addwf	dtoa@i^0,w,c
  7378   003AA2  6E13               	movwf	pad@buf^0,c
  7379   003AA4  0E01               	movlw	high _dbuf
  7380   003AA6  2027               	addwfc	(dtoa@i+1)^0,w,c
  7381   003AA8  6E14               	movwf	(pad@buf+1)^0,c
  7382   003AAA  C024  F015         	movff	dtoa@w,pad@p
  7383   003AAE  C025  F016         	movff	dtoa@w+1,pad@p+1
  7384   003AB2  ECC3  F024         	call	_pad	;wreg free
  7385   003AB6  0012               	return		;funcret
  7386   003AB8                     __end_of_dtoa:
  7387                           	callstack 0
  7388                           
  7389 ;; *************** function _pad *****************
  7390 ;; Defined at:
  7391 ;;		line 152 in file "C:\Program Files\Microchip\xc8\v2.41\pic\sources\c99\common\doprnt.c"
  7392 ;; Parameters:    Size  Location     Type
  7393 ;;  fp              2   16[COMRAM] PTR struct _IO_FILE
  7394 ;;		 -> sprintf@f(12), 
  7395 ;;  buf             2   18[COMRAM] PTR unsigned char 
  7396 ;;		 -> dbuf(80), 
  7397 ;;  p               2   20[COMRAM] int 
  7398 ;; Auto vars:     Size  Location     Type
  7399 ;;  w               2   25[COMRAM] int 
  7400 ;;  i               2   23[COMRAM] int 
  7401 ;; Return value:  Size  Location     Type
  7402 ;;                  1    wreg      void 
  7403 ;; Registers used:
  7404 ;;		wreg, fsr1l, fsr1h, fsr2l, fsr2h, status,2, status,0, cstack
  7405 ;; Tracked objects:
  7406 ;;		On entry : 0/0
  7407 ;;		On exit  : 0/0
  7408 ;;		Unchanged: 0/0
  7409 ;; Data sizes:     COMRAM   BANK0   BANK1   BANK2   BANK3   BANK4   BANK5   BANK6   BANK7   BANK8   BANK9  BANK10  BANK1
      +1  BANK12  BANK13  BANK14  BANK15
  7410 ;;      Params:         6       0       0       0       0       0       0       0       0       0       0       0       
      +0       0       0       0       0
  7411 ;;      Locals:         4       0       0       0       0       0       0       0       0       0       0       0       
      +0       0       0       0       0
  7412 ;;      Temps:          1       0       0       0       0       0       0       0       0       0       0       0       
      +0       0       0       0       0
  7413 ;;      Totals:        11       0       0       0       0       0       0       0       0       0       0       0       
      +0       0       0       0       0
  7414 ;;Total ram usage:       11 bytes
  7415 ;; Hardware stack levels used: 1
  7416 ;; Hardware stack levels required when called: 5
  7417 ;; This function calls:
  7418 ;;		_fputc
  7419 ;;		_fputs
  7420 ;; This function is called by:
  7421 ;;		_dtoa
  7422 ;;		_efgtoa
  7423 ;; This function uses a non-reentrant model
  7424 ;;
  7425                           
  7426                           	psect	text17
  7427   004986                     __ptext17:
  7428                           	callstack 0
  7429   004986                     _pad:
  7430                           	callstack 20
  7431   004986                     
  7432                           ;C:\Program Files\Microchip\xc8\v2.41\pic\sources\c99\common\doprnt.c: 152: static void 
      +                          pad(FILE *fp, char *buf, int p);C:\Program Files\Microchip\xc8\v2.41\pic\sources\c99\com
      +                          mon\doprnt.c: 153: {;C:\Program Files\Microchip\xc8\v2.41\pic\sources\c99\common\doprnt.
      +                          c: 154:     int i, w;;C:\Program Files\Microchip\xc8\v2.41\pic\sources\c99\common\doprnt
      +                          .c: 164:     w = (p < 0) ? 0 : p;
  7433   004986  BE16               	btfsc	(pad@p+1)^0,7,c
  7434   004988  EFC8  F024         	goto	u4021
  7435   00498C  EFCA  F024         	goto	u4020
  7436   004990                     u4021:
  7437   004990  EFD0  F024         	goto	l4704
  7438   004994                     u4020:
  7439   004994  C015  F01A         	movff	pad@p,pad@w
  7440   004998  C016  F01B         	movff	pad@p+1,pad@w+1
  7441   00499C  EFD4  F024         	goto	l1597
  7442   0049A0                     l4704:
  7443   0049A0  0E00               	movlw	0
  7444   0049A2  6E1B               	movwf	(pad@w+1)^0,c
  7445   0049A4  0E00               	movlw	0
  7446   0049A6  6E1A               	movwf	pad@w^0,c
  7447   0049A8                     l1597:
  7448                           
  7449                           ;C:\Program Files\Microchip\xc8\v2.41\pic\sources\c99\common\doprnt.c: 165:     i = 0;
  7450   0049A8  0E00               	movlw	0
  7451   0049AA  6E19               	movwf	(pad@i+1)^0,c
  7452   0049AC  0E00               	movlw	0
  7453   0049AE  6E18               	movwf	pad@i^0,c
  7454                           
  7455                           ;C:\Program Files\Microchip\xc8\v2.41\pic\sources\c99\common\doprnt.c: 166:     while (i
      +                           < w) {
  7456   0049B0  EFE6  F024         	goto	l4710
  7457   0049B4                     l4706:
  7458                           
  7459                           ;C:\Program Files\Microchip\xc8\v2.41\pic\sources\c99\common\doprnt.c: 167:         fput
      +                          c(' ', fp);
  7460   0049B4  0E00               	movlw	0
  7461   0049B6  6E02               	movwf	(fputc@c+1)^0,c
  7462   0049B8  0E20               	movlw	32
  7463   0049BA  6E01               	movwf	fputc@c^0,c
  7464   0049BC  C011  F003         	movff	pad@fp,fputc@fp
  7465   0049C0  C012  F004         	movff	pad@fp+1,fputc@fp+1
  7466   0049C4  ECC4  F021         	call	_fputc	;wreg free
  7467   0049C8                     
  7468                           ;C:\Program Files\Microchip\xc8\v2.41\pic\sources\c99\common\doprnt.c: 168:         ++i;
  7469   0049C8  4A18               	infsnz	pad@i^0,f,c
  7470   0049CA  2A19               	incf	(pad@i+1)^0,f,c
  7471   0049CC                     l4710:
  7472                           
  7473                           ;C:\Program Files\Microchip\xc8\v2.41\pic\sources\c99\common\doprnt.c: 166:     while (i
      +                           < w) {
  7474   0049CC  501A               	movf	pad@w^0,w,c
  7475   0049CE  5C18               	subwf	pad@i^0,w,c
  7476   0049D0  5019               	movf	(pad@i+1)^0,w,c
  7477   0049D2  0A80               	xorlw	128
  7478   0049D4  6E17               	movwf	??_pad^0,c
  7479   0049D6  501B               	movf	(pad@w+1)^0,w,c
  7480   0049D8  0A80               	xorlw	128
  7481   0049DA  5817               	subwfb	??_pad^0,w,c
  7482   0049DC  A0D8               	btfss	status,0,c
  7483   0049DE  EFF3  F024         	goto	u4031
  7484   0049E2  EFF5  F024         	goto	u4030
  7485   0049E6                     u4031:
  7486   0049E6  EFDA  F024         	goto	l4706
  7487   0049EA                     u4030:
  7488   0049EA                     
  7489                           ;C:\Program Files\Microchip\xc8\v2.41\pic\sources\c99\common\doprnt.c: 175:         fput
      +                          s((const char *)buf, fp);
  7490   0049EA  C013  F00A         	movff	pad@buf,fputs@s
  7491   0049EE  C014  F00B         	movff	pad@buf+1,fputs@s+1
  7492   0049F2  C011  F00C         	movff	pad@fp,fputs@fp
  7493   0049F6  C012  F00D         	movff	pad@fp+1,fputs@fp+1
  7494   0049FA  ECA5  F028         	call	_fputs	;wreg free
  7495   0049FE  0012               	return		;funcret
  7496   004A00                     __end_of_pad:
  7497                           	callstack 0
  7498                           
  7499 ;; *************** function _fputs *****************
  7500 ;; Defined at:
  7501 ;;		line 8 in file "C:\Program Files\Microchip\xc8\v2.41\pic\sources\c99\common\nf_fputs.c"
  7502 ;; Parameters:    Size  Location     Type
  7503 ;;  s               2    9[COMRAM] PTR const unsigned char 
  7504 ;;		 -> dbuf(80), 
  7505 ;;  fp              2   11[COMRAM] PTR struct _IO_FILE
  7506 ;;		 -> sprintf@f(12), 
  7507 ;; Auto vars:     Size  Location     Type
  7508 ;;  i               2   14[COMRAM] int 
  7509 ;;  c               1   13[COMRAM] unsigned char 
  7510 ;; Return value:  Size  Location     Type
  7511 ;;                  2    9[COMRAM] int 
  7512 ;; Registers used:
  7513 ;;		wreg, fsr1l, fsr1h, fsr2l, fsr2h, status,2, status,0, cstack
  7514 ;; Tracked objects:
  7515 ;;		On entry : 0/0
  7516 ;;		On exit  : 0/0
  7517 ;;		Unchanged: 0/0
  7518 ;; Data sizes:     COMRAM   BANK0   BANK1   BANK2   BANK3   BANK4   BANK5   BANK6   BANK7   BANK8   BANK9  BANK10  BANK1
      +1  BANK12  BANK13  BANK14  BANK15
  7519 ;;      Params:         4       0       0       0       0       0       0       0       0       0       0       0       
      +0       0       0       0       0
  7520 ;;      Locals:         3       0       0       0       0       0       0       0       0       0       0       0       
      +0       0       0       0       0
  7521 ;;      Temps:          0       0       0       0       0       0       0       0       0       0       0       0       
      +0       0       0       0       0
  7522 ;;      Totals:         7       0       0       0       0       0       0       0       0       0       0       0       
      +0       0       0       0       0
  7523 ;;Total ram usage:        7 bytes
  7524 ;; Hardware stack levels used: 1
  7525 ;; Hardware stack levels required when called: 4
  7526 ;; This function calls:
  7527 ;;		_fputc
  7528 ;; This function is called by:
  7529 ;;		_pad
  7530 ;; This function uses a non-reentrant model
  7531 ;;
  7532                           
  7533                           	psect	text18
  7534   00514A                     __ptext18:
  7535                           	callstack 0
  7536   00514A                     _fputs:
  7537                           	callstack 20
  7538   00514A  0E00               	movlw	0
  7539   00514C  6E10               	movwf	(fputs@i+1)^0,c
  7540   00514E  0E00               	movlw	0
  7541   005150  6E0F               	movwf	fputs@i^0,c
  7542   005152  EFB6  F028         	goto	l4254
  7543   005156                     l4250:
  7544   005156  C00E  F001         	movff	fputs@c,fputc@c
  7545   00515A  6A02               	clrf	(fputc@c+1)^0,c
  7546   00515C  C00C  F003         	movff	fputs@fp,fputc@fp
  7547   005160  C00D  F004         	movff	fputs@fp+1,fputc@fp+1
  7548   005164  ECC4  F021         	call	_fputc	;wreg free
  7549   005168  4A0F               	infsnz	fputs@i^0,f,c
  7550   00516A  2A10               	incf	(fputs@i+1)^0,f,c
  7551   00516C                     l4254:
  7552   00516C  500F               	movf	fputs@i^0,w,c
  7553   00516E  240A               	addwf	fputs@s^0,w,c
  7554   005170  6ED9               	movwf	fsr2l,c
  7555   005172  5010               	movf	(fputs@i+1)^0,w,c
  7556   005174  200B               	addwfc	(fputs@s+1)^0,w,c
  7557   005176  6EDA               	movwf	fsr2h,c
  7558   005178  50DF               	movf	indf2,w,c
  7559   00517A  6E0E               	movwf	fputs@c^0,c
  7560   00517C  500E               	movf	fputs@c^0,w,c
  7561   00517E  A4D8               	btfss	status,2,c
  7562   005180  EFC4  F028         	goto	u3311
  7563   005184  EFC6  F028         	goto	u3310
  7564   005188                     u3311:
  7565   005188  EFAB  F028         	goto	l4250
  7566   00518C                     u3310:
  7567   00518C  0012               	return		;funcret
  7568   00518E                     __end_of_fputs:
  7569                           	callstack 0
  7570                           
  7571 ;; *************** function _fputc *****************
  7572 ;; Defined at:
  7573 ;;		line 8 in file "C:\Program Files\Microchip\xc8\v2.41\pic\sources\c99\common\nf_fputc.c"
  7574 ;; Parameters:    Size  Location     Type
  7575 ;;  c               2    0[COMRAM] int 
  7576 ;;  fp              2    2[COMRAM] PTR struct _IO_FILE
  7577 ;;		 -> sprintf@f(12), 
  7578 ;; Auto vars:     Size  Location     Type
  7579 ;;		None
  7580 ;; Return value:  Size  Location     Type
  7581 ;;                  2    0[COMRAM] int 
  7582 ;; Registers used:
  7583 ;;		wreg, fsr1l, fsr1h, fsr2l, fsr2h, status,2, status,0, cstack
  7584 ;; Tracked objects:
  7585 ;;		On entry : 0/0
  7586 ;;		On exit  : 0/0
  7587 ;;		Unchanged: 0/0
  7588 ;; Data sizes:     COMRAM   BANK0   BANK1   BANK2   BANK3   BANK4   BANK5   BANK6   BANK7   BANK8   BANK9  BANK10  BANK1
      +1  BANK12  BANK13  BANK14  BANK15
  7589 ;;      Params:         4       0       0       0       0       0       0       0       0       0       0       0       
      +0       0       0       0       0
  7590 ;;      Locals:         0       0       0       0       0       0       0       0       0       0       0       0       
      +0       0       0       0       0
  7591 ;;      Temps:          5       0       0       0       0       0       0       0       0       0       0       0       
      +0       0       0       0       0
  7592 ;;      Totals:         9       0       0       0       0       0       0       0       0       0       0       0       
      +0       0       0       0       0
  7593 ;;Total ram usage:        9 bytes
  7594 ;; Hardware stack levels used: 1
  7595 ;; Hardware stack levels required when called: 3
  7596 ;; This function calls:
  7597 ;;		_putch
  7598 ;; This function is called by:
  7599 ;;		_pad
  7600 ;;		_vfpfcnvrt
  7601 ;;		_fputs
  7602 ;; This function uses a non-reentrant model
  7603 ;;
  7604                           
  7605                           	psect	text19
  7606   004388                     __ptext19:
  7607                           	callstack 0
  7608   004388                     _fputc:
  7609                           	callstack 23
  7610   004388  5003               	movf	fputc@fp^0,w,c
  7611   00438A  1004               	iorwf	(fputc@fp+1)^0,w,c
  7612   00438C  B4D8               	btfsc	status,2,c
  7613   00438E  EFCB  F021         	goto	u2881
  7614   004392  EFCD  F021         	goto	u2880
  7615   004396                     u2881:
  7616   004396  EFD6  F021         	goto	l4036
  7617   00439A                     u2880:
  7618   00439A  5003               	movf	fputc@fp^0,w,c
  7619   00439C  1004               	iorwf	(fputc@fp+1)^0,w,c
  7620   00439E  A4D8               	btfss	status,2,c
  7621   0043A0  EFD4  F021         	goto	u2891
  7622   0043A4  EFD6  F021         	goto	u2890
  7623   0043A8                     u2891:
  7624   0043A8  EFDB  F021         	goto	l4038
  7625   0043AC                     u2890:
  7626   0043AC                     l4036:
  7627   0043AC  5001               	movf	fputc@c^0,w,c
  7628   0043AE  EC6D  F02A         	call	_putch
  7629   0043B2  EF2F  F022         	goto	l1757
  7630   0043B6                     l4038:
  7631   0043B6  EE20 F00A          	lfsr	2,10
  7632   0043BA  5003               	movf	fputc@fp^0,w,c
  7633   0043BC  26D9               	addwf	fsr2l,f,c
  7634   0043BE  5004               	movf	(fputc@fp+1)^0,w,c
  7635   0043C0  22DA               	addwfc	fsr2h,f,c
  7636   0043C2  50DE               	movf	postinc2,w,c
  7637   0043C4  10DE               	iorwf	postinc2,w,c
  7638   0043C6  B4D8               	btfsc	status,2,c
  7639   0043C8  EFE8  F021         	goto	u2901
  7640   0043CC  EFEA  F021         	goto	u2900
  7641   0043D0                     u2901:
  7642   0043D0  EF05  F022         	goto	l4042
  7643   0043D4                     u2900:
  7644   0043D4  EE20 F00A          	lfsr	2,10
  7645   0043D8  5003               	movf	fputc@fp^0,w,c
  7646   0043DA  26D9               	addwf	fsr2l,f,c
  7647   0043DC  5004               	movf	(fputc@fp+1)^0,w,c
  7648   0043DE  22DA               	addwfc	fsr2h,f,c
  7649   0043E0  EE10 F003          	lfsr	1,3
  7650   0043E4  5003               	movf	fputc@fp^0,w,c
  7651   0043E6  26E1               	addwf	fsr1l,f,c
  7652   0043E8  5004               	movf	(fputc@fp+1)^0,w,c
  7653   0043EA  22E2               	addwfc	fsr1h,f,c
  7654   0043EC  50DE               	movf	postinc2,w,c
  7655   0043EE  5CE6               	subwf	postinc1,w,c
  7656   0043F0  50E6               	movf	postinc1,w,c
  7657   0043F2  0A80               	xorlw	128
  7658   0043F4  6E09               	movwf	(??_fputc+4)^0,c
  7659   0043F6  50DE               	movf	postinc2,w,c
  7660   0043F8  0A80               	xorlw	128
  7661   0043FA  5809               	subwfb	(??_fputc+4)^0,w,c
  7662   0043FC  B0D8               	btfsc	status,0,c
  7663   0043FE  EF03  F022         	goto	u2911
  7664   004402  EF05  F022         	goto	u2910
  7665   004406                     u2911:
  7666   004406  EF2F  F022         	goto	l1757
  7667   00440A                     u2910:
  7668   00440A                     l4042:
  7669   00440A  EE20 F003          	lfsr	2,3
  7670   00440E  5003               	movf	fputc@fp^0,w,c
  7671   004410  26D9               	addwf	fsr2l,f,c
  7672   004412  5004               	movf	(fputc@fp+1)^0,w,c
  7673   004414  22DA               	addwfc	fsr2h,f,c
  7674   004416  006F FF78  F005    	movff	postinc2,??_fputc
  7675   00441C  006F FF74  F006    	movff	postdec2,??_fputc+1
  7676   004422  0060  F00F  FFD9   	movff	fputc@fp,fsr2l
  7677   004428  0060  F013  FFDA   	movff	fputc@fp+1,fsr2h
  7678   00442E  006F FF78  F007    	movff	postinc2,??_fputc+2
  7679   004434  006F FF74  F008    	movff	postdec2,??_fputc+3
  7680   00443A  5005               	movf	??_fputc^0,w,c
  7681   00443C  2407               	addwf	(??_fputc+2)^0,w,c
  7682   00443E  6ED9               	movwf	fsr2l,c
  7683   004440  5006               	movf	(??_fputc+1)^0,w,c
  7684   004442  2008               	addwfc	(??_fputc+3)^0,w,c
  7685   004444  6EDA               	movwf	fsr2h,c
  7686   004446  0060  F007  FFDF   	movff	fputc@c,indf2
  7687   00444C  EE20 F003          	lfsr	2,3
  7688   004450  5003               	movf	fputc@fp^0,w,c
  7689   004452  26D9               	addwf	fsr2l,f,c
  7690   004454  5004               	movf	(fputc@fp+1)^0,w,c
  7691   004456  22DA               	addwfc	fsr2h,f,c
  7692   004458  2ADE               	incf	postinc2,f,c
  7693   00445A  0E00               	movlw	0
  7694   00445C  22DD               	addwfc	postdec2,f,c
  7695   00445E                     l1757:
  7696   00445E  0012               	return		;funcret
  7697   004460                     __end_of_fputc:
  7698                           	callstack 0
  7699                           
  7700 ;; *************** function _putch *****************
  7701 ;; Defined at:
  7702 ;;		line 7 in file "C:\Program Files\Microchip\xc8\v2.41\pic\sources\c99\common\putch.c"
  7703 ;; Parameters:    Size  Location     Type
  7704 ;;  c               1    wreg     unsigned char 
  7705 ;; Auto vars:     Size  Location     Type
  7706 ;;  c               1    0[COMRAM] unsigned char 
  7707 ;; Return value:  Size  Location     Type
  7708 ;;                  1    wreg      void 
  7709 ;; Registers used:
  7710 ;;		wreg
  7711 ;; Tracked objects:
  7712 ;;		On entry : 0/0
  7713 ;;		On exit  : 0/0
  7714 ;;		Unchanged: 0/0
  7715 ;; Data sizes:     COMRAM   BANK0   BANK1   BANK2   BANK3   BANK4   BANK5   BANK6   BANK7   BANK8   BANK9  BANK10  BANK1
      +1  BANK12  BANK13  BANK14  BANK15
  7716 ;;      Params:         0       0       0       0       0       0       0       0       0       0       0       0       
      +0       0       0       0       0
  7717 ;;      Locals:         0       0       0       0       0       0       0       0       0       0       0       0       
      +0       0       0       0       0
  7718 ;;      Temps:          0       0       0       0       0       0       0       0       0       0       0       0       
      +0       0       0       0       0
  7719 ;;      Totals:         0       0       0       0       0       0       0       0       0       0       0       0       
      +0       0       0       0       0
  7720 ;;Total ram usage:        0 bytes
  7721 ;; Hardware stack levels used: 1
  7722 ;; Hardware stack levels required when called: 2
  7723 ;; This function calls:
  7724 ;;		Nothing
  7725 ;; This function is called by:
  7726 ;;		_fputc
  7727 ;; This function uses a non-reentrant model
  7728 ;;
  7729                           
  7730                           	psect	text20
  7731   0054DA                     __ptext20:
  7732                           	callstack 0
  7733   0054DA                     _putch:
  7734                           	callstack 23
  7735   0054DA  0012               	return		;funcret
  7736   0054DC                     __end_of_putch:
  7737                           	callstack 0
  7738                           
  7739 ;; *************** function _abs *****************
  7740 ;; Defined at:
  7741 ;;		line 1 in file "C:\Program Files\Microchip\xc8\v2.41\pic\sources\c99\common\abs.c"
  7742 ;; Parameters:    Size  Location     Type
  7743 ;;  a               2    6[COMRAM] int 
  7744 ;; Auto vars:     Size  Location     Type
  7745 ;;		None
  7746 ;; Return value:  Size  Location     Type
  7747 ;;                  2    6[COMRAM] int 
  7748 ;; Registers used:
  7749 ;;		wreg, status,2, status,0
  7750 ;; Tracked objects:
  7751 ;;		On entry : 0/0
  7752 ;;		On exit  : 0/0
  7753 ;;		Unchanged: 0/0
  7754 ;; Data sizes:     COMRAM   BANK0   BANK1   BANK2   BANK3   BANK4   BANK5   BANK6   BANK7   BANK8   BANK9  BANK10  BANK1
      +1  BANK12  BANK13  BANK14  BANK15
  7755 ;;      Params:         2       0       0       0       0       0       0       0       0       0       0       0       
      +0       0       0       0       0
  7756 ;;      Locals:         0       0       0       0       0       0       0       0       0       0       0       0       
      +0       0       0       0       0
  7757 ;;      Temps:          2       0       0       0       0       0       0       0       0       0       0       0       
      +0       0       0       0       0
  7758 ;;      Totals:         4       0       0       0       0       0       0       0       0       0       0       0       
      +0       0       0       0       0
  7759 ;;Total ram usage:        4 bytes
  7760 ;; Hardware stack levels used: 1
  7761 ;; Hardware stack levels required when called: 2
  7762 ;; This function calls:
  7763 ;;		Nothing
  7764 ;; This function is called by:
  7765 ;;		_dtoa
  7766 ;; This function uses a non-reentrant model
  7767 ;;
  7768                           
  7769                           	psect	text21
  7770   00518E                     __ptext21:
  7771                           	callstack 0
  7772   00518E                     _abs:
  7773                           	callstack 23
  7774   00518E  BE08               	btfsc	(abs@a+1)^0,7,c
  7775   005190  EFD4  F028         	goto	u4040
  7776   005194  5008               	movf	(abs@a+1)^0,w,c
  7777   005196  E106               	bnz	u4041
  7778   005198  0407               	decf	abs@a^0,w,c
  7779   00519A  B0D8               	btfsc	status,0,c
  7780   00519C  EFD2  F028         	goto	u4041
  7781   0051A0  EFD4  F028         	goto	u4040
  7782   0051A4                     u4041:
  7783   0051A4  EFE2  F028         	goto	l1716
  7784   0051A8                     u4040:
  7785   0051A8  C007  F009         	movff	abs@a,??_abs
  7786   0051AC  C008  F00A         	movff	abs@a+1,??_abs+1
  7787   0051B0  1E09               	comf	??_abs^0,f,c
  7788   0051B2  1E0A               	comf	(??_abs+1)^0,f,c
  7789   0051B4  4A09               	infsnz	??_abs^0,f,c
  7790   0051B6  2A0A               	incf	(??_abs+1)^0,f,c
  7791   0051B8  C009  F007         	movff	??_abs,?_abs
  7792   0051BC  C00A  F008         	movff	??_abs+1,?_abs+1
  7793   0051C0  EFE6  F028         	goto	l1719
  7794   0051C4                     l1716:
  7795   0051C4  C007  F007         	movff	abs@a,?_abs
  7796   0051C8  C008  F008         	movff	abs@a+1,?_abs+1
  7797   0051CC                     l1719:
  7798   0051CC  0012               	return		;funcret
  7799   0051CE                     __end_of_abs:
  7800                           	callstack 0
  7801                           
  7802 ;; *************** function ___awmod *****************
  7803 ;; Defined at:
  7804 ;;		line 7 in file "C:\Program Files\Microchip\xc8\v2.41\pic\sources\c99\common\awmod.c"
  7805 ;; Parameters:    Size  Location     Type
  7806 ;;  dividend        2    0[COMRAM] int 
  7807 ;;  divisor         2    2[COMRAM] int 
  7808 ;; Auto vars:     Size  Location     Type
  7809 ;;  sign            1    5[COMRAM] unsigned char 
  7810 ;;  counter         1    4[COMRAM] unsigned char 
  7811 ;; Return value:  Size  Location     Type
  7812 ;;                  2    0[COMRAM] int 
  7813 ;; Registers used:
  7814 ;;		wreg, status,2, status,0
  7815 ;; Tracked objects:
  7816 ;;		On entry : 0/0
  7817 ;;		On exit  : 0/0
  7818 ;;		Unchanged: 0/0
  7819 ;; Data sizes:     COMRAM   BANK0   BANK1   BANK2   BANK3   BANK4   BANK5   BANK6   BANK7   BANK8   BANK9  BANK10  BANK1
      +1  BANK12  BANK13  BANK14  BANK15
  7820 ;;      Params:         4       0       0       0       0       0       0       0       0       0       0       0       
      +0       0       0       0       0
  7821 ;;      Locals:         2       0       0       0       0       0       0       0       0       0       0       0       
      +0       0       0       0       0
  7822 ;;      Temps:          0       0       0       0       0       0       0       0       0       0       0       0       
      +0       0       0       0       0
  7823 ;;      Totals:         6       0       0       0       0       0       0       0       0       0       0       0       
      +0       0       0       0       0
  7824 ;;Total ram usage:        6 bytes
  7825 ;; Hardware stack levels used: 1
  7826 ;; Hardware stack levels required when called: 2
  7827 ;; This function calls:
  7828 ;;		Nothing
  7829 ;; This function is called by:
  7830 ;;		_dtoa
  7831 ;; This function uses a non-reentrant model
  7832 ;;
  7833                           
  7834                           	psect	text22
  7835   004524                     __ptext22:
  7836                           	callstack 0
  7837   004524                     ___awmod:
  7838                           	callstack 23
  7839   004524  0E00               	movlw	0
  7840   004526  6E06               	movwf	___awmod@sign^0,c
  7841   004528  BE02               	btfsc	(___awmod@dividend+1)^0,7,c
  7842   00452A  EF9B  F022         	goto	u3800
  7843   00452E  EF99  F022         	goto	u3801
  7844   004532                     u3801:
  7845   004532  EFA1  F022         	goto	l4582
  7846   004536                     u3800:
  7847   004536  6C01               	negf	___awmod@dividend^0,c
  7848   004538  1E02               	comf	(___awmod@dividend+1)^0,f,c
  7849   00453A  B0D8               	btfsc	status,0,c
  7850   00453C  2A02               	incf	(___awmod@dividend+1)^0,f,c
  7851   00453E  0E01               	movlw	1
  7852   004540  6E06               	movwf	___awmod@sign^0,c
  7853   004542                     l4582:
  7854   004542  BE04               	btfsc	(___awmod@divisor+1)^0,7,c
  7855   004544  EFA8  F022         	goto	u3810
  7856   004548  EFA6  F022         	goto	u3811
  7857   00454C                     u3811:
  7858   00454C  EFAC  F022         	goto	l4586
  7859   004550                     u3810:
  7860   004550  6C03               	negf	___awmod@divisor^0,c
  7861   004552  1E04               	comf	(___awmod@divisor+1)^0,f,c
  7862   004554  B0D8               	btfsc	status,0,c
  7863   004556  2A04               	incf	(___awmod@divisor+1)^0,f,c
  7864   004558                     l4586:
  7865   004558  5003               	movf	___awmod@divisor^0,w,c
  7866   00455A  1004               	iorwf	(___awmod@divisor+1)^0,w,c
  7867   00455C  B4D8               	btfsc	status,2,c
  7868   00455E  EFB3  F022         	goto	u3821
  7869   004562  EFB5  F022         	goto	u3820
  7870   004566                     u3821:
  7871   004566  EFD9  F022         	goto	l4602
  7872   00456A                     u3820:
  7873   00456A  0E01               	movlw	1
  7874   00456C  6E05               	movwf	___awmod@counter^0,c
  7875   00456E  EFBD  F022         	goto	l4592
  7876   004572                     l4590:
  7877   004572  90D8               	bcf	status,0,c
  7878   004574  3603               	rlcf	___awmod@divisor^0,f,c
  7879   004576  3604               	rlcf	(___awmod@divisor+1)^0,f,c
  7880   004578  2A05               	incf	___awmod@counter^0,f,c
  7881   00457A                     l4592:
  7882   00457A  AE04               	btfss	(___awmod@divisor+1)^0,7,c
  7883   00457C  EFC2  F022         	goto	u3831
  7884   004580  EFC4  F022         	goto	u3830
  7885   004584                     u3831:
  7886   004584  EFB9  F022         	goto	l4590
  7887   004588                     u3830:
  7888   004588                     l4594:
  7889   004588  5003               	movf	___awmod@divisor^0,w,c
  7890   00458A  5C01               	subwf	___awmod@dividend^0,w,c
  7891   00458C  5004               	movf	(___awmod@divisor+1)^0,w,c
  7892   00458E  5802               	subwfb	(___awmod@dividend+1)^0,w,c
  7893   004590  A0D8               	btfss	status,0,c
  7894   004592  EFCD  F022         	goto	u3841
  7895   004596  EFCF  F022         	goto	u3840
  7896   00459A                     u3841:
  7897   00459A  EFD3  F022         	goto	l4598
  7898   00459E                     u3840:
  7899   00459E  5003               	movf	___awmod@divisor^0,w,c
  7900   0045A0  5E01               	subwf	___awmod@dividend^0,f,c
  7901   0045A2  5004               	movf	(___awmod@divisor+1)^0,w,c
  7902   0045A4  5A02               	subwfb	(___awmod@dividend+1)^0,f,c
  7903   0045A6                     l4598:
  7904   0045A6  90D8               	bcf	status,0,c
  7905   0045A8  3204               	rrcf	(___awmod@divisor+1)^0,f,c
  7906   0045AA  3203               	rrcf	___awmod@divisor^0,f,c
  7907   0045AC  2E05               	decfsz	___awmod@counter^0,f,c
  7908   0045AE  EFC4  F022         	goto	l4594
  7909   0045B2                     l4602:
  7910   0045B2  5006               	movf	___awmod@sign^0,w,c
  7911   0045B4  B4D8               	btfsc	status,2,c
  7912   0045B6  EFDF  F022         	goto	u3851
  7913   0045BA  EFE1  F022         	goto	u3850
  7914   0045BE                     u3851:
  7915   0045BE  EFE5  F022         	goto	l4606
  7916   0045C2                     u3850:
  7917   0045C2  6C01               	negf	___awmod@dividend^0,c
  7918   0045C4  1E02               	comf	(___awmod@dividend+1)^0,f,c
  7919   0045C6  B0D8               	btfsc	status,0,c
  7920   0045C8  2A02               	incf	(___awmod@dividend+1)^0,f,c
  7921   0045CA                     l4606:
  7922   0045CA  C001  F001         	movff	___awmod@dividend,?___awmod
  7923   0045CE  C002  F002         	movff	___awmod@dividend+1,?___awmod+1
  7924   0045D2  0012               	return		;funcret
  7925   0045D4                     __end_of___awmod:
  7926                           	callstack 0
  7927                           
  7928 ;; *************** function ___awdiv *****************
  7929 ;; Defined at:
  7930 ;;		line 7 in file "C:\Program Files\Microchip\xc8\v2.41\pic\sources\c99\common\awdiv.c"
  7931 ;; Parameters:    Size  Location     Type
  7932 ;;  dividend        2    0[COMRAM] int 
  7933 ;;  divisor         2    2[COMRAM] int 
  7934 ;; Auto vars:     Size  Location     Type
  7935 ;;  quotient        2    6[COMRAM] int 
  7936 ;;  sign            1    5[COMRAM] unsigned char 
  7937 ;;  counter         1    4[COMRAM] unsigned char 
  7938 ;; Return value:  Size  Location     Type
  7939 ;;                  2    0[COMRAM] int 
  7940 ;; Registers used:
  7941 ;;		wreg, status,2, status,0
  7942 ;; Tracked objects:
  7943 ;;		On entry : 0/0
  7944 ;;		On exit  : 0/0
  7945 ;;		Unchanged: 0/0
  7946 ;; Data sizes:     COMRAM   BANK0   BANK1   BANK2   BANK3   BANK4   BANK5   BANK6   BANK7   BANK8   BANK9  BANK10  BANK1
      +1  BANK12  BANK13  BANK14  BANK15
  7947 ;;      Params:         4       0       0       0       0       0       0       0       0       0       0       0       
      +0       0       0       0       0
  7948 ;;      Locals:         4       0       0       0       0       0       0       0       0       0       0       0       
      +0       0       0       0       0
  7949 ;;      Temps:          0       0       0       0       0       0       0       0       0       0       0       0       
      +0       0       0       0       0
  7950 ;;      Totals:         8       0       0       0       0       0       0       0       0       0       0       0       
      +0       0       0       0       0
  7951 ;;Total ram usage:        8 bytes
  7952 ;; Hardware stack levels used: 1
  7953 ;; Hardware stack levels required when called: 2
  7954 ;; This function calls:
  7955 ;;		Nothing
  7956 ;; This function is called by:
  7957 ;;		_main
  7958 ;;		_dtoa
  7959 ;; This function uses a non-reentrant model
  7960 ;;
  7961                           
  7962                           	psect	text23
  7963   004460                     __ptext23:
  7964                           	callstack 0
  7965   004460                     ___awdiv:
  7966                           	callstack 23
  7967   004460  0E00               	movlw	0
  7968   004462  6E06               	movwf	___awdiv@sign^0,c
  7969   004464  BE04               	btfsc	(___awdiv@divisor+1)^0,7,c
  7970   004466  EF39  F022         	goto	u3740
  7971   00446A  EF37  F022         	goto	u3741
  7972   00446E                     u3741:
  7973   00446E  EF3F  F022         	goto	l4538
  7974   004472                     u3740:
  7975   004472  6C03               	negf	___awdiv@divisor^0,c
  7976   004474  1E04               	comf	(___awdiv@divisor+1)^0,f,c
  7977   004476  B0D8               	btfsc	status,0,c
  7978   004478  2A04               	incf	(___awdiv@divisor+1)^0,f,c
  7979   00447A  0E01               	movlw	1
  7980   00447C  6E06               	movwf	___awdiv@sign^0,c
  7981   00447E                     l4538:
  7982   00447E  BE02               	btfsc	(___awdiv@dividend+1)^0,7,c
  7983   004480  EF46  F022         	goto	u3750
  7984   004484  EF44  F022         	goto	u3751
  7985   004488                     u3751:
  7986   004488  EF4C  F022         	goto	l4544
  7987   00448C                     u3750:
  7988   00448C  6C01               	negf	___awdiv@dividend^0,c
  7989   00448E  1E02               	comf	(___awdiv@dividend+1)^0,f,c
  7990   004490  B0D8               	btfsc	status,0,c
  7991   004492  2A02               	incf	(___awdiv@dividend+1)^0,f,c
  7992   004494  0E01               	movlw	1
  7993   004496  1A06               	xorwf	___awdiv@sign^0,f,c
  7994   004498                     l4544:
  7995   004498  0E00               	movlw	0
  7996   00449A  6E08               	movwf	(___awdiv@quotient+1)^0,c
  7997   00449C  0E00               	movlw	0
  7998   00449E  6E07               	movwf	___awdiv@quotient^0,c
  7999   0044A0  5003               	movf	___awdiv@divisor^0,w,c
  8000   0044A2  1004               	iorwf	(___awdiv@divisor+1)^0,w,c
  8001   0044A4  B4D8               	btfsc	status,2,c
  8002   0044A6  EF57  F022         	goto	u3761
  8003   0044AA  EF59  F022         	goto	u3760
  8004   0044AE                     u3761:
  8005   0044AE  EF81  F022         	goto	l4566
  8006   0044B2                     u3760:
  8007   0044B2  0E01               	movlw	1
  8008   0044B4  6E05               	movwf	___awdiv@counter^0,c
  8009   0044B6  EF61  F022         	goto	l4552
  8010   0044BA                     l4550:
  8011   0044BA  90D8               	bcf	status,0,c
  8012   0044BC  3603               	rlcf	___awdiv@divisor^0,f,c
  8013   0044BE  3604               	rlcf	(___awdiv@divisor+1)^0,f,c
  8014   0044C0  2A05               	incf	___awdiv@counter^0,f,c
  8015   0044C2                     l4552:
  8016   0044C2  AE04               	btfss	(___awdiv@divisor+1)^0,7,c
  8017   0044C4  EF66  F022         	goto	u3771
  8018   0044C8  EF68  F022         	goto	u3770
  8019   0044CC                     u3771:
  8020   0044CC  EF5D  F022         	goto	l4550
  8021   0044D0                     u3770:
  8022   0044D0                     l4554:
  8023   0044D0  90D8               	bcf	status,0,c
  8024   0044D2  3607               	rlcf	___awdiv@quotient^0,f,c
  8025   0044D4  3608               	rlcf	(___awdiv@quotient+1)^0,f,c
  8026   0044D6  5003               	movf	___awdiv@divisor^0,w,c
  8027   0044D8  5C01               	subwf	___awdiv@dividend^0,w,c
  8028   0044DA  5004               	movf	(___awdiv@divisor+1)^0,w,c
  8029   0044DC  5802               	subwfb	(___awdiv@dividend+1)^0,w,c
  8030   0044DE  A0D8               	btfss	status,0,c
  8031   0044E0  EF74  F022         	goto	u3781
  8032   0044E4  EF76  F022         	goto	u3780
  8033   0044E8                     u3781:
  8034   0044E8  EF7B  F022         	goto	l4562
  8035   0044EC                     u3780:
  8036   0044EC  5003               	movf	___awdiv@divisor^0,w,c
  8037   0044EE  5E01               	subwf	___awdiv@dividend^0,f,c
  8038   0044F0  5004               	movf	(___awdiv@divisor+1)^0,w,c
  8039   0044F2  5A02               	subwfb	(___awdiv@dividend+1)^0,f,c
  8040   0044F4  8007               	bsf	___awdiv@quotient^0,0,c
  8041   0044F6                     l4562:
  8042   0044F6  90D8               	bcf	status,0,c
  8043   0044F8  3204               	rrcf	(___awdiv@divisor+1)^0,f,c
  8044   0044FA  3203               	rrcf	___awdiv@divisor^0,f,c
  8045   0044FC  2E05               	decfsz	___awdiv@counter^0,f,c
  8046   0044FE  EF68  F022         	goto	l4554
  8047   004502                     l4566:
  8048   004502  5006               	movf	___awdiv@sign^0,w,c
  8049   004504  B4D8               	btfsc	status,2,c
  8050   004506  EF87  F022         	goto	u3791
  8051   00450A  EF89  F022         	goto	u3790
  8052   00450E                     u3791:
  8053   00450E  EF8D  F022         	goto	l4570
  8054   004512                     u3790:
  8055   004512  6C07               	negf	___awdiv@quotient^0,c
  8056   004514  1E08               	comf	(___awdiv@quotient+1)^0,f,c
  8057   004516  B0D8               	btfsc	status,0,c
  8058   004518  2A08               	incf	(___awdiv@quotient+1)^0,f,c
  8059   00451A                     l4570:
  8060   00451A  C007  F001         	movff	___awdiv@quotient,?___awdiv
  8061   00451E  C008  F002         	movff	___awdiv@quotient+1,?___awdiv+1
  8062   004522  0012               	return		;funcret
  8063   004524                     __end_of___awdiv:
  8064                           	callstack 0
  8065                           
  8066 ;; *************** function _recibir_numero *****************
  8067 ;; Defined at:
  8068 ;;		line 433 in file "main.c"
  8069 ;; Parameters:    Size  Location     Type
  8070 ;;		None
  8071 ;; Auto vars:     Size  Location     Type
  8072 ;;  numero          2    2[COMRAM] int 
  8073 ;;  rxData          1    4[COMRAM] volatile unsigned char 
  8074 ;; Return value:  Size  Location     Type
  8075 ;;                  2    0[COMRAM] int 
  8076 ;; Registers used:
  8077 ;;		wreg, status,2, pcl, pclath, pclatu, tosl, cstack
  8078 ;; Tracked objects:
  8079 ;;		On entry : 0/0
  8080 ;;		On exit  : 0/0
  8081 ;;		Unchanged: 0/0
  8082 ;; Data sizes:     COMRAM   BANK0   BANK1   BANK2   BANK3   BANK4   BANK5   BANK6   BANK7   BANK8   BANK9  BANK10  BANK1
      +1  BANK12  BANK13  BANK14  BANK15
  8083 ;;      Params:         2       0       0       0       0       0       0       0       0       0       0       0       
      +0       0       0       0       0
  8084 ;;      Locals:         3       0       0       0       0       0       0       0       0       0       0       0       
      +0       0       0       0       0
  8085 ;;      Temps:          0       0       0       0       0       0       0       0       0       0       0       0       
      +0       0       0       0       0
  8086 ;;      Totals:         5       0       0       0       0       0       0       0       0       0       0       0       
      +0       0       0       0       0
  8087 ;;Total ram usage:        5 bytes
  8088 ;; Hardware stack levels used: 1
  8089 ;; Hardware stack levels required when called: 4
  8090 ;; This function calls:
  8091 ;;		_UART1_Read
  8092 ;;		_UART1_is_rx_ready
  8093 ;; This function is called by:
  8094 ;;		_main
  8095 ;; This function uses a non-reentrant model
  8096 ;;
  8097                           
  8098                           	psect	text24
  8099   005328                     __ptext24:
  8100                           	callstack 0
  8101   005328                     _recibir_numero:
  8102                           	callstack 26
  8103   005328                     
  8104                           ;main.c: 434:     int numero;;main.c: 435:     volatile uint8_t rxData;;main.c: 436:    
      +                           if (UART1_is_rx_ready())
  8105   005328  EC1E  F02A         	call	_UART1_is_rx_ready	;wreg free
  8106   00532C  0900               	iorlw	0
  8107   00532E  B4D8               	btfsc	status,2,c
  8108   005330  EF9C  F029         	goto	u5111
  8109   005334  EF9E  F029         	goto	u5110
  8110   005338                     u5111:
  8111   005338  EFA4  F029         	goto	l5524
  8112   00533C                     u5110:
  8113   00533C                     
  8114                           ;main.c: 437:     {;main.c: 438:         rxData = UART1_Read();
  8115   00533C  ECE3  F023         	call	_UART1_Read	;wreg free
  8116   005340  6E05               	movwf	recibir_numero@rxData^0,c	;volatile
  8117   005342                     
  8118                           ;main.c: 439:         numero = (int) rxData;
  8119   005342  C005  F003         	movff	recibir_numero@rxData,recibir_numero@numero	;volatile
  8120   005346  6A04               	clrf	(recibir_numero@numero+1)^0,c
  8121   005348                     l5524:
  8122                           
  8123                           ;main.c: 441:     return numero;
  8124   005348  C003  F001         	movff	recibir_numero@numero,?_recibir_numero
  8125   00534C  C004  F002         	movff	recibir_numero@numero+1,?_recibir_numero+1
  8126   005350  0012               	return		;funcret
  8127   005352                     __end_of_recibir_numero:
  8128                           	callstack 0
  8129                           
  8130 ;; *************** function _recibir_caracter *****************
  8131 ;; Defined at:
  8132 ;;		line 462 in file "main.c"
  8133 ;; Parameters:    Size  Location     Type
  8134 ;;		None
  8135 ;; Auto vars:     Size  Location     Type
  8136 ;;  caracter        1    0[COMRAM] unsigned char 
  8137 ;;  rxData_buf      1    1[COMRAM] volatile unsigned char 
  8138 ;; Return value:  Size  Location     Type
  8139 ;;                  1    wreg      unsigned char 
  8140 ;; Registers used:
  8141 ;;		wreg, status,2, pcl, pclath, pclatu, tosl, cstack
  8142 ;; Tracked objects:
  8143 ;;		On entry : 0/0
  8144 ;;		On exit  : 0/0
  8145 ;;		Unchanged: 0/0
  8146 ;; Data sizes:     COMRAM   BANK0   BANK1   BANK2   BANK3   BANK4   BANK5   BANK6   BANK7   BANK8   BANK9  BANK10  BANK1
      +1  BANK12  BANK13  BANK14  BANK15
  8147 ;;      Params:         0       0       0       0       0       0       0       0       0       0       0       0       
      +0       0       0       0       0
  8148 ;;      Locals:         2       0       0       0       0       0       0       0       0       0       0       0       
      +0       0       0       0       0
  8149 ;;      Temps:          0       0       0       0       0       0       0       0       0       0       0       0       
      +0       0       0       0       0
  8150 ;;      Totals:         2       0       0       0       0       0       0       0       0       0       0       0       
      +0       0       0       0       0
  8151 ;;Total ram usage:        2 bytes
  8152 ;; Hardware stack levels used: 1
  8153 ;; Hardware stack levels required when called: 4
  8154 ;; This function calls:
  8155 ;;		_UART1_Read
  8156 ;;		_UART1_is_rx_ready
  8157 ;; This function is called by:
  8158 ;;		_main
  8159 ;; This function uses a non-reentrant model
  8160 ;;
  8161                           
  8162                           	psect	text25
  8163   0053CA                     __ptext25:
  8164                           	callstack 0
  8165   0053CA                     _recibir_caracter:
  8166                           	callstack 26
  8167   0053CA                     
  8168                           ;main.c: 463:     volatile uint8_t rxData_buf;;main.c: 464:     char caracter;;main.c: 4
      +                          65:     if (UART1_is_rx_ready())
  8169   0053CA  EC1E  F02A         	call	_UART1_is_rx_ready	;wreg free
  8170   0053CE  0900               	iorlw	0
  8171   0053D0  B4D8               	btfsc	status,2,c
  8172   0053D2  EFED  F029         	goto	u5021
  8173   0053D6  EFEF  F029         	goto	u5020
  8174   0053DA                     u5021:
  8175   0053DA  EFF4  F029         	goto	l5454
  8176   0053DE                     u5020:
  8177   0053DE                     
  8178                           ;main.c: 466:     {;main.c: 467:         rxData_buf = UART1_Read();
  8179   0053DE  ECE3  F023         	call	_UART1_Read	;wreg free
  8180   0053E2  6E02               	movwf	recibir_caracter@rxData_buf^0,c	;volatile
  8181   0053E4                     
  8182                           ;main.c: 468:         caracter = (char) rxData_buf;
  8183   0053E4  C002  F001         	movff	recibir_caracter@rxData_buf,recibir_caracter@caracter	;volatile
  8184   0053E8                     l5454:
  8185                           
  8186                           ;main.c: 470:     return caracter;
  8187   0053E8  5001               	movf	recibir_caracter@caracter^0,w,c
  8188   0053EA  0012               	return		;funcret
  8189   0053EC                     __end_of_recibir_caracter:
  8190                           	callstack 0
  8191                           
  8192 ;; *************** function _mensaje_vels *****************
  8193 ;; Defined at:
  8194 ;;		line 377 in file "main.c"
  8195 ;; Parameters:    Size  Location     Type
  8196 ;;		None
  8197 ;; Auto vars:     Size  Location     Type
  8198 ;;  i               2   28[COMRAM] int 
  8199 ;;  mensaje        26    2[COMRAM] unsigned char [26]
  8200 ;; Return value:  Size  Location     Type
  8201 ;;                  1    wreg      void 
  8202 ;; Registers used:
  8203 ;;		wreg, fsr1l, fsr1h, fsr2l, fsr2h, status,2, status,0, cstack
  8204 ;; Tracked objects:
  8205 ;;		On entry : 0/0
  8206 ;;		On exit  : 0/0
  8207 ;;		Unchanged: 0/0
  8208 ;; Data sizes:     COMRAM   BANK0   BANK1   BANK2   BANK3   BANK4   BANK5   BANK6   BANK7   BANK8   BANK9  BANK10  BANK1
      +1  BANK12  BANK13  BANK14  BANK15
  8209 ;;      Params:         0       0       0       0       0       0       0       0       0       0       0       0       
      +0       0       0       0       0
  8210 ;;      Locals:        28       0       0       0       0       0       0       0       0       0       0       0       
      +0       0       0       0       0
  8211 ;;      Temps:          1       0       0       0       0       0       0       0       0       0       0       0       
      +0       0       0       0       0
  8212 ;;      Totals:        29       0       0       0       0       0       0       0       0       0       0       0       
      +0       0       0       0       0
  8213 ;;Total ram usage:       29 bytes
  8214 ;; Hardware stack levels used: 1
  8215 ;; Hardware stack levels required when called: 3
  8216 ;; This function calls:
  8217 ;;		_UART1_Write
  8218 ;;		_UART1_is_tx_ready
  8219 ;; This function is called by:
  8220 ;;		_main
  8221 ;; This function uses a non-reentrant model
  8222 ;;
  8223                           
  8224                           	psect	text26
  8225   004A6C                     __ptext26:
  8226                           	callstack 0
  8227   004A6C                     _mensaje_vels:
  8228                           	callstack 27
  8229   004A6C                     
  8230                           ;main.c: 378:     char mensaje[] = "\nLento:1\tIdeal:2\tRapido:3";
  8231   004A6C  EE20  F21B         	lfsr	2,mensaje_vels@F16502
  8232   004A70  EE10  F003         	lfsr	1,mensaje_vels@mensaje
  8233   004A74  0E19               	movlw	25
  8234   004A76                     u5151:
  8235   004A76  006F FF6F FFE3     	movff	plusw2,plusw1
  8236   004A7C  06E8               	decf	wreg,f,c
  8237   004A7E  E2FB               	bc	u5151
  8238   004A80                     
  8239                           ;main.c: 379:     for (int i = 0; i < sizeof (mensaje); i++)
  8240   004A80  0E00               	movlw	0
  8241   004A82  6E1E               	movwf	(mensaje_vels@i+1)^0,c
  8242   004A84  0E00               	movlw	0
  8243   004A86  6E1D               	movwf	mensaje_vels@i^0,c
  8244   004A88                     l5554:
  8245                           
  8246                           ;main.c: 380:     {;main.c: 381:         if (UART1_is_tx_ready()) {
  8247   004A88  EC52  F029         	call	_UART1_is_tx_ready	;wreg free
  8248   004A8C  0900               	iorlw	0
  8249   004A8E  B4D8               	btfsc	status,2,c
  8250   004A90  EF4C  F025         	goto	u5161
  8251   004A94  EF4E  F025         	goto	u5160
  8252   004A98                     u5161:
  8253   004A98  EF57  F025         	goto	l5558
  8254   004A9C                     u5160:
  8255   004A9C                     
  8256                           ;main.c: 382:             UART1_Write(mensaje[i]);
  8257   004A9C  0E03               	movlw	low mensaje_vels@mensaje
  8258   004A9E  241D               	addwf	mensaje_vels@i^0,w,c
  8259   004AA0  6ED9               	movwf	fsr2l,c
  8260   004AA2  0E00               	movlw	high mensaje_vels@mensaje
  8261   004AA4  201E               	addwfc	(mensaje_vels@i+1)^0,w,c
  8262   004AA6  6EDA               	movwf	fsr2h,c
  8263   004AA8  50DF               	movf	indf2,w,c
  8264   004AAA  EC05  F02A         	call	_UART1_Write
  8265   004AAE                     l5558:
  8266                           
  8267                           ;main.c: 384:         _delay((unsigned long)((10)*(16000000/4000.0)));
  8268   004AAE  0E34               	movlw	52
  8269   004AB0  6E02               	movwf	??_mensaje_vels^0,c
  8270   004AB2  0EF2               	movlw	242
  8271   004AB4                     u5757:
  8272   004AB4  2EE8               	decfsz	wreg,f,c
  8273   004AB6  D7FE               	bra	u5757
  8274   004AB8  2E02               	decfsz	??_mensaje_vels^0,f,c
  8275   004ABA  D7FC               	bra	u5757
  8276   004ABC                     
  8277                           ;main.c: 385:     }
  8278   004ABC  4A1D               	infsnz	mensaje_vels@i^0,f,c
  8279   004ABE  2A1E               	incf	(mensaje_vels@i+1)^0,f,c
  8280   004AC0  501E               	movf	(mensaje_vels@i+1)^0,w,c
  8281   004AC2  E109               	bnz	u5170
  8282   004AC4  0E1A               	movlw	26
  8283   004AC6  5C1D               	subwf	mensaje_vels@i^0,w,c
  8284   004AC8  A0D8               	btfss	status,0,c
  8285   004ACA  EF69  F025         	goto	u5171
  8286   004ACE  EF6B  F025         	goto	u5170
  8287   004AD2                     u5171:
  8288   004AD2  EF44  F025         	goto	l5554
  8289   004AD6                     u5170:
  8290   004AD6  0012               	return		;funcret
  8291   004AD8                     __end_of_mensaje_vels:
  8292                           	callstack 0
  8293                           
  8294 ;; *************** function _mensaje_terminado *****************
  8295 ;; Defined at:
  8296 ;;		line 388 in file "main.c"
  8297 ;; Parameters:    Size  Location     Type
  8298 ;;		None
  8299 ;; Auto vars:     Size  Location     Type
  8300 ;;  i               2   18[COMRAM] int 
  8301 ;;  mensaje        16    2[COMRAM] unsigned char [16]
  8302 ;; Return value:  Size  Location     Type
  8303 ;;                  1    wreg      void 
  8304 ;; Registers used:
  8305 ;;		wreg, fsr1l, fsr1h, fsr2l, fsr2h, status,2, status,0, cstack
  8306 ;; Tracked objects:
  8307 ;;		On entry : 0/0
  8308 ;;		On exit  : 0/0
  8309 ;;		Unchanged: 0/0
  8310 ;; Data sizes:     COMRAM   BANK0   BANK1   BANK2   BANK3   BANK4   BANK5   BANK6   BANK7   BANK8   BANK9  BANK10  BANK1
      +1  BANK12  BANK13  BANK14  BANK15
  8311 ;;      Params:         0       0       0       0       0       0       0       0       0       0       0       0       
      +0       0       0       0       0
  8312 ;;      Locals:        18       0       0       0       0       0       0       0       0       0       0       0       
      +0       0       0       0       0
  8313 ;;      Temps:          1       0       0       0       0       0       0       0       0       0       0       0       
      +0       0       0       0       0
  8314 ;;      Totals:        19       0       0       0       0       0       0       0       0       0       0       0       
      +0       0       0       0       0
  8315 ;;Total ram usage:       19 bytes
  8316 ;; Hardware stack levels used: 1
  8317 ;; Hardware stack levels required when called: 3
  8318 ;; This function calls:
  8319 ;;		_UART1_Write
  8320 ;;		_UART1_is_tx_ready
  8321 ;; This function is called by:
  8322 ;;		_main
  8323 ;; This function uses a non-reentrant model
  8324 ;;
  8325                           
  8326                           	psect	text27
  8327   004AD8                     __ptext27:
  8328                           	callstack 0
  8329   004AD8                     _mensaje_terminado:
  8330                           	callstack 27
  8331   004AD8                     
  8332                           ;main.c: 389:     char mensaje[] = "\nCapa_terminada";
  8333   004AD8  EE20  F1CC         	lfsr	2,mensaje_terminado@F16506
  8334   004ADC  EE10  F003         	lfsr	1,mensaje_terminado@mensaje
  8335   004AE0  0E0F               	movlw	15
  8336   004AE2                     u5271:
  8337   004AE2  006F FF6F FFE3     	movff	plusw2,plusw1
  8338   004AE8  06E8               	decf	wreg,f,c
  8339   004AEA  E2FB               	bc	u5271
  8340   004AEC                     
  8341                           ;main.c: 390:     for (int i = 0; i < sizeof (mensaje); i++)
  8342   004AEC  0E00               	movlw	0
  8343   004AEE  6E14               	movwf	(mensaje_terminado@i+1)^0,c
  8344   004AF0  0E00               	movlw	0
  8345   004AF2  6E13               	movwf	mensaje_terminado@i^0,c
  8346   004AF4                     l5666:
  8347                           
  8348                           ;main.c: 391:     {;main.c: 392:         if (UART1_is_tx_ready()) {
  8349   004AF4  EC52  F029         	call	_UART1_is_tx_ready	;wreg free
  8350   004AF8  0900               	iorlw	0
  8351   004AFA  B4D8               	btfsc	status,2,c
  8352   004AFC  EF82  F025         	goto	u5281
  8353   004B00  EF84  F025         	goto	u5280
  8354   004B04                     u5281:
  8355   004B04  EF8D  F025         	goto	l5670
  8356   004B08                     u5280:
  8357   004B08                     
  8358                           ;main.c: 393:             UART1_Write(mensaje[i]);
  8359   004B08  0E03               	movlw	low mensaje_terminado@mensaje
  8360   004B0A  2413               	addwf	mensaje_terminado@i^0,w,c
  8361   004B0C  6ED9               	movwf	fsr2l,c
  8362   004B0E  0E00               	movlw	high mensaje_terminado@mensaje
  8363   004B10  2014               	addwfc	(mensaje_terminado@i+1)^0,w,c
  8364   004B12  6EDA               	movwf	fsr2h,c
  8365   004B14  50DF               	movf	indf2,w,c
  8366   004B16  EC05  F02A         	call	_UART1_Write
  8367   004B1A                     l5670:
  8368                           
  8369                           ;main.c: 395:         _delay((unsigned long)((10)*(16000000/4000.0)));
  8370   004B1A  0E34               	movlw	52
  8371   004B1C  6E02               	movwf	??_mensaje_terminado^0,c
  8372   004B1E  0EF2               	movlw	242
  8373   004B20                     u5767:
  8374   004B20  2EE8               	decfsz	wreg,f,c
  8375   004B22  D7FE               	bra	u5767
  8376   004B24  2E02               	decfsz	??_mensaje_terminado^0,f,c
  8377   004B26  D7FC               	bra	u5767
  8378   004B28                     
  8379                           ;main.c: 396:     }
  8380   004B28  4A13               	infsnz	mensaje_terminado@i^0,f,c
  8381   004B2A  2A14               	incf	(mensaje_terminado@i+1)^0,f,c
  8382   004B2C  5014               	movf	(mensaje_terminado@i+1)^0,w,c
  8383   004B2E  E109               	bnz	u5290
  8384   004B30  0E10               	movlw	16
  8385   004B32  5C13               	subwf	mensaje_terminado@i^0,w,c
  8386   004B34  A0D8               	btfss	status,0,c
  8387   004B36  EF9F  F025         	goto	u5291
  8388   004B3A  EFA1  F025         	goto	u5290
  8389   004B3E                     u5291:
  8390   004B3E  EF7A  F025         	goto	l5666
  8391   004B42                     u5290:
  8392   004B42  0012               	return		;funcret
  8393   004B44                     __end_of_mensaje_terminado:
  8394                           	callstack 0
  8395                           
  8396 ;; *************** function _mensaje_final *****************
  8397 ;; Defined at:
  8398 ;;		line 410 in file "main.c"
  8399 ;; Parameters:    Size  Location     Type
  8400 ;;		None
  8401 ;; Auto vars:     Size  Location     Type
  8402 ;;  i               2   21[COMRAM] int 
  8403 ;;  mensaje        19    2[COMRAM] unsigned char [19]
  8404 ;; Return value:  Size  Location     Type
  8405 ;;                  1    wreg      void 
  8406 ;; Registers used:
  8407 ;;		wreg, fsr1l, fsr1h, fsr2l, fsr2h, status,2, status,0, cstack
  8408 ;; Tracked objects:
  8409 ;;		On entry : 0/0
  8410 ;;		On exit  : 0/0
  8411 ;;		Unchanged: 0/0
  8412 ;; Data sizes:     COMRAM   BANK0   BANK1   BANK2   BANK3   BANK4   BANK5   BANK6   BANK7   BANK8   BANK9  BANK10  BANK1
      +1  BANK12  BANK13  BANK14  BANK15
  8413 ;;      Params:         0       0       0       0       0       0       0       0       0       0       0       0       
      +0       0       0       0       0
  8414 ;;      Locals:        21       0       0       0       0       0       0       0       0       0       0       0       
      +0       0       0       0       0
  8415 ;;      Temps:          1       0       0       0       0       0       0       0       0       0       0       0       
      +0       0       0       0       0
  8416 ;;      Totals:        22       0       0       0       0       0       0       0       0       0       0       0       
      +0       0       0       0       0
  8417 ;;Total ram usage:       22 bytes
  8418 ;; Hardware stack levels used: 1
  8419 ;; Hardware stack levels required when called: 3
  8420 ;; This function calls:
  8421 ;;		_UART1_Write
  8422 ;;		_UART1_is_tx_ready
  8423 ;; This function is called by:
  8424 ;;		_main
  8425 ;; This function uses a non-reentrant model
  8426 ;;
  8427                           
  8428                           	psect	text28
  8429   004B44                     __ptext28:
  8430                           	callstack 0
  8431   004B44                     _mensaje_final:
  8432                           	callstack 27
  8433   004B44                     
  8434                           ;main.c: 411:     char mensaje[] = "\nPROCESO\tTERMINADO";
  8435   004B44  EE20  F196         	lfsr	2,mensaje_final@F16514
  8436   004B48  EE10  F003         	lfsr	1,mensaje_final@mensaje
  8437   004B4C  0E12               	movlw	18
  8438   004B4E                     u5331:
  8439   004B4E  006F FF6F FFE3     	movff	plusw2,plusw1
  8440   004B54  06E8               	decf	wreg,f,c
  8441   004B56  E2FB               	bc	u5331
  8442   004B58                     
  8443                           ;main.c: 412:     for (int i = 0; i < sizeof (mensaje); i++)
  8444   004B58  0E00               	movlw	0
  8445   004B5A  6E17               	movwf	(mensaje_final@i+1)^0,c
  8446   004B5C  0E00               	movlw	0
  8447   004B5E  6E16               	movwf	mensaje_final@i^0,c
  8448   004B60                     l5702:
  8449                           
  8450                           ;main.c: 413:     {;main.c: 414:         if (UART1_is_tx_ready()) {
  8451   004B60  EC52  F029         	call	_UART1_is_tx_ready	;wreg free
  8452   004B64  0900               	iorlw	0
  8453   004B66  B4D8               	btfsc	status,2,c
  8454   004B68  EFB8  F025         	goto	u5341
  8455   004B6C  EFBA  F025         	goto	u5340
  8456   004B70                     u5341:
  8457   004B70  EFC3  F025         	goto	l5706
  8458   004B74                     u5340:
  8459   004B74                     
  8460                           ;main.c: 415:             UART1_Write(mensaje[i]);
  8461   004B74  0E03               	movlw	low mensaje_final@mensaje
  8462   004B76  2416               	addwf	mensaje_final@i^0,w,c
  8463   004B78  6ED9               	movwf	fsr2l,c
  8464   004B7A  0E00               	movlw	high mensaje_final@mensaje
  8465   004B7C  2017               	addwfc	(mensaje_final@i+1)^0,w,c
  8466   004B7E  6EDA               	movwf	fsr2h,c
  8467   004B80  50DF               	movf	indf2,w,c
  8468   004B82  EC05  F02A         	call	_UART1_Write
  8469   004B86                     l5706:
  8470                           
  8471                           ;main.c: 417:         _delay((unsigned long)((10)*(16000000/4000.0)));
  8472   004B86  0E34               	movlw	52
  8473   004B88  6E02               	movwf	??_mensaje_final^0,c
  8474   004B8A  0EF2               	movlw	242
  8475   004B8C                     u5777:
  8476   004B8C  2EE8               	decfsz	wreg,f,c
  8477   004B8E  D7FE               	bra	u5777
  8478   004B90  2E02               	decfsz	??_mensaje_final^0,f,c
  8479   004B92  D7FC               	bra	u5777
  8480   004B94                     
  8481                           ;main.c: 418:     }
  8482   004B94  4A16               	infsnz	mensaje_final@i^0,f,c
  8483   004B96  2A17               	incf	(mensaje_final@i+1)^0,f,c
  8484   004B98  5017               	movf	(mensaje_final@i+1)^0,w,c
  8485   004B9A  E109               	bnz	u5350
  8486   004B9C  0E13               	movlw	19
  8487   004B9E  5C16               	subwf	mensaje_final@i^0,w,c
  8488   004BA0  A0D8               	btfss	status,0,c
  8489   004BA2  EFD5  F025         	goto	u5351
  8490   004BA6  EFD7  F025         	goto	u5350
  8491   004BAA                     u5351:
  8492   004BAA  EFB0  F025         	goto	l5702
  8493   004BAE                     u5350:
  8494   004BAE  0012               	return		;funcret
  8495   004BB0                     __end_of_mensaje_final:
  8496                           	callstack 0
  8497                           
  8498 ;; *************** function _mensaje_capas *****************
  8499 ;; Defined at:
  8500 ;;		line 366 in file "main.c"
  8501 ;; Parameters:    Size  Location     Type
  8502 ;;		None
  8503 ;; Auto vars:     Size  Location     Type
  8504 ;;  i               2   10[COMRAM] int 
  8505 ;;  mensaje         8    2[COMRAM] unsigned char [8]
  8506 ;; Return value:  Size  Location     Type
  8507 ;;                  1    wreg      void 
  8508 ;; Registers used:
  8509 ;;		wreg, fsr1l, fsr1h, fsr2l, fsr2h, status,2, status,0, cstack
  8510 ;; Tracked objects:
  8511 ;;		On entry : 0/0
  8512 ;;		On exit  : 0/0
  8513 ;;		Unchanged: 0/0
  8514 ;; Data sizes:     COMRAM   BANK0   BANK1   BANK2   BANK3   BANK4   BANK5   BANK6   BANK7   BANK8   BANK9  BANK10  BANK1
      +1  BANK12  BANK13  BANK14  BANK15
  8515 ;;      Params:         0       0       0       0       0       0       0       0       0       0       0       0       
      +0       0       0       0       0
  8516 ;;      Locals:        10       0       0       0       0       0       0       0       0       0       0       0       
      +0       0       0       0       0
  8517 ;;      Temps:          1       0       0       0       0       0       0       0       0       0       0       0       
      +0       0       0       0       0
  8518 ;;      Totals:        11       0       0       0       0       0       0       0       0       0       0       0       
      +0       0       0       0       0
  8519 ;;Total ram usage:       11 bytes
  8520 ;; Hardware stack levels used: 1
  8521 ;; Hardware stack levels required when called: 3
  8522 ;; This function calls:
  8523 ;;		_UART1_Write
  8524 ;;		_UART1_is_tx_ready
  8525 ;; This function is called by:
  8526 ;;		_main
  8527 ;; This function uses a non-reentrant model
  8528 ;;
  8529                           
  8530                           	psect	text29
  8531   004BB0                     __ptext29:
  8532                           	callstack 0
  8533   004BB0                     _mensaje_capas:
  8534                           	callstack 27
  8535   004BB0                     
  8536                           ;main.c: 367:     char mensaje[] = "\nCapas:";
  8537   004BB0  EE20  F1DC         	lfsr	2,mensaje_capas@F16498
  8538   004BB4  EE10  F003         	lfsr	1,mensaje_capas@mensaje
  8539   004BB8  0E07               	movlw	7
  8540   004BBA                     u5121:
  8541   004BBA  006F FF6F FFE3     	movff	plusw2,plusw1
  8542   004BC0  06E8               	decf	wreg,f,c
  8543   004BC2  E2FB               	bc	u5121
  8544   004BC4                     
  8545                           ;main.c: 368:     for (int i = 0; i < sizeof (mensaje); i++)
  8546   004BC4  0E00               	movlw	0
  8547   004BC6  6E0C               	movwf	(mensaje_capas@i+1)^0,c
  8548   004BC8  0E00               	movlw	0
  8549   004BCA  6E0B               	movwf	mensaje_capas@i^0,c
  8550   004BCC                     l5536:
  8551                           
  8552                           ;main.c: 369:     {;main.c: 370:         if (UART1_is_tx_ready()) {
  8553   004BCC  EC52  F029         	call	_UART1_is_tx_ready	;wreg free
  8554   004BD0  0900               	iorlw	0
  8555   004BD2  B4D8               	btfsc	status,2,c
  8556   004BD4  EFEE  F025         	goto	u5131
  8557   004BD8  EFF0  F025         	goto	u5130
  8558   004BDC                     u5131:
  8559   004BDC  EFF9  F025         	goto	l5540
  8560   004BE0                     u5130:
  8561   004BE0                     
  8562                           ;main.c: 371:             UART1_Write(mensaje[i]);
  8563   004BE0  0E03               	movlw	low mensaje_capas@mensaje
  8564   004BE2  240B               	addwf	mensaje_capas@i^0,w,c
  8565   004BE4  6ED9               	movwf	fsr2l,c
  8566   004BE6  0E00               	movlw	high mensaje_capas@mensaje
  8567   004BE8  200C               	addwfc	(mensaje_capas@i+1)^0,w,c
  8568   004BEA  6EDA               	movwf	fsr2h,c
  8569   004BEC  50DF               	movf	indf2,w,c
  8570   004BEE  EC05  F02A         	call	_UART1_Write
  8571   004BF2                     l5540:
  8572                           
  8573                           ;main.c: 373:         _delay((unsigned long)((10)*(16000000/4000.0)));
  8574   004BF2  0E34               	movlw	52
  8575   004BF4  6E02               	movwf	??_mensaje_capas^0,c
  8576   004BF6  0EF2               	movlw	242
  8577   004BF8                     u5787:
  8578   004BF8  2EE8               	decfsz	wreg,f,c
  8579   004BFA  D7FE               	bra	u5787
  8580   004BFC  2E02               	decfsz	??_mensaje_capas^0,f,c
  8581   004BFE  D7FC               	bra	u5787
  8582   004C00                     
  8583                           ;main.c: 374:     }
  8584   004C00  4A0B               	infsnz	mensaje_capas@i^0,f,c
  8585   004C02  2A0C               	incf	(mensaje_capas@i+1)^0,f,c
  8586   004C04  500C               	movf	(mensaje_capas@i+1)^0,w,c
  8587   004C06  E109               	bnz	u5140
  8588   004C08  0E08               	movlw	8
  8589   004C0A  5C0B               	subwf	mensaje_capas@i^0,w,c
  8590   004C0C  A0D8               	btfss	status,0,c
  8591   004C0E  EF0B  F026         	goto	u5141
  8592   004C12  EF0D  F026         	goto	u5140
  8593   004C16                     u5141:
  8594   004C16  EFE6  F025         	goto	l5536
  8595   004C1A                     u5140:
  8596   004C1A  0012               	return		;funcret
  8597   004C1C                     __end_of_mensaje_capas:
  8598                           	callstack 0
  8599                           
  8600 ;; *************** function _mensaje_capa2 *****************
  8601 ;; Defined at:
  8602 ;;		line 399 in file "main.c"
  8603 ;; Parameters:    Size  Location     Type
  8604 ;;		None
  8605 ;; Auto vars:     Size  Location     Type
  8606 ;;  i               2   29[COMRAM] int 
  8607 ;;  mensaje        27    2[COMRAM] unsigned char [27]
  8608 ;; Return value:  Size  Location     Type
  8609 ;;                  1    wreg      void 
  8610 ;; Registers used:
  8611 ;;		wreg, fsr1l, fsr1h, fsr2l, fsr2h, status,2, status,0, cstack
  8612 ;; Tracked objects:
  8613 ;;		On entry : 0/0
  8614 ;;		On exit  : 0/0
  8615 ;;		Unchanged: 0/0
  8616 ;; Data sizes:     COMRAM   BANK0   BANK1   BANK2   BANK3   BANK4   BANK5   BANK6   BANK7   BANK8   BANK9  BANK10  BANK1
      +1  BANK12  BANK13  BANK14  BANK15
  8617 ;;      Params:         0       0       0       0       0       0       0       0       0       0       0       0       
      +0       0       0       0       0
  8618 ;;      Locals:        29       0       0       0       0       0       0       0       0       0       0       0       
      +0       0       0       0       0
  8619 ;;      Temps:          1       0       0       0       0       0       0       0       0       0       0       0       
      +0       0       0       0       0
  8620 ;;      Totals:        30       0       0       0       0       0       0       0       0       0       0       0       
      +0       0       0       0       0
  8621 ;;Total ram usage:       30 bytes
  8622 ;; Hardware stack levels used: 1
  8623 ;; Hardware stack levels required when called: 3
  8624 ;; This function calls:
  8625 ;;		_UART1_Write
  8626 ;;		_UART1_is_tx_ready
  8627 ;; This function is called by:
  8628 ;;		_main
  8629 ;; This function uses a non-reentrant model
  8630 ;;
  8631                           
  8632                           	psect	text30
  8633   004C1C                     __ptext30:
  8634                           	callstack 0
  8635   004C1C                     _mensaje_capa2:
  8636                           	callstack 27
  8637   004C1C                     
  8638                           ;main.c: 400:     char mensaje[] = "\nPulse\tpara\tsiguiente\tcapa";
  8639   004C1C  EE20  F200         	lfsr	2,mensaje_capa2@F16510
  8640   004C20  EE10  F003         	lfsr	1,mensaje_capa2@mensaje
  8641   004C24  0E1A               	movlw	26
  8642   004C26                     u5301:
  8643   004C26  006F FF6F FFE3     	movff	plusw2,plusw1
  8644   004C2C  06E8               	decf	wreg,f,c
  8645   004C2E  E2FB               	bc	u5301
  8646   004C30                     
  8647                           ;main.c: 401:     for (int i = 0; i < sizeof (mensaje); i++)
  8648   004C30  0E00               	movlw	0
  8649   004C32  6E1F               	movwf	(mensaje_capa2@i+1)^0,c
  8650   004C34  0E00               	movlw	0
  8651   004C36  6E1E               	movwf	mensaje_capa2@i^0,c
  8652   004C38                     l5684:
  8653                           
  8654                           ;main.c: 402:     {;main.c: 403:         if (UART1_is_tx_ready()) {
  8655   004C38  EC52  F029         	call	_UART1_is_tx_ready	;wreg free
  8656   004C3C  0900               	iorlw	0
  8657   004C3E  B4D8               	btfsc	status,2,c
  8658   004C40  EF24  F026         	goto	u5311
  8659   004C44  EF26  F026         	goto	u5310
  8660   004C48                     u5311:
  8661   004C48  EF2F  F026         	goto	l5688
  8662   004C4C                     u5310:
  8663   004C4C                     
  8664                           ;main.c: 404:             UART1_Write(mensaje[i]);
  8665   004C4C  0E03               	movlw	low mensaje_capa2@mensaje
  8666   004C4E  241E               	addwf	mensaje_capa2@i^0,w,c
  8667   004C50  6ED9               	movwf	fsr2l,c
  8668   004C52  0E00               	movlw	high mensaje_capa2@mensaje
  8669   004C54  201F               	addwfc	(mensaje_capa2@i+1)^0,w,c
  8670   004C56  6EDA               	movwf	fsr2h,c
  8671   004C58  50DF               	movf	indf2,w,c
  8672   004C5A  EC05  F02A         	call	_UART1_Write
  8673   004C5E                     l5688:
  8674                           
  8675                           ;main.c: 406:         _delay((unsigned long)((10)*(16000000/4000.0)));
  8676   004C5E  0E34               	movlw	52
  8677   004C60  6E02               	movwf	??_mensaje_capa2^0,c
  8678   004C62  0EF2               	movlw	242
  8679   004C64                     u5797:
  8680   004C64  2EE8               	decfsz	wreg,f,c
  8681   004C66  D7FE               	bra	u5797
  8682   004C68  2E02               	decfsz	??_mensaje_capa2^0,f,c
  8683   004C6A  D7FC               	bra	u5797
  8684   004C6C                     
  8685                           ;main.c: 407:     }
  8686   004C6C  4A1E               	infsnz	mensaje_capa2@i^0,f,c
  8687   004C6E  2A1F               	incf	(mensaje_capa2@i+1)^0,f,c
  8688   004C70  501F               	movf	(mensaje_capa2@i+1)^0,w,c
  8689   004C72  E109               	bnz	u5320
  8690   004C74  0E1B               	movlw	27
  8691   004C76  5C1E               	subwf	mensaje_capa2@i^0,w,c
  8692   004C78  A0D8               	btfss	status,0,c
  8693   004C7A  EF41  F026         	goto	u5321
  8694   004C7E  EF43  F026         	goto	u5320
  8695   004C82                     u5321:
  8696   004C82  EF1C  F026         	goto	l5684
  8697   004C86                     u5320:
  8698   004C86  0012               	return		;funcret
  8699   004C88                     __end_of_mensaje_capa2:
  8700                           	callstack 0
  8701                           
  8702 ;; *************** function _mensaje_boton *****************
  8703 ;; Defined at:
  8704 ;;		line 493 in file "main.c"
  8705 ;; Parameters:    Size  Location     Type
  8706 ;;		None
  8707 ;; Auto vars:     Size  Location     Type
  8708 ;;  i               2   22[COMRAM] int 
  8709 ;;  mensaje        20    2[COMRAM] unsigned char [20]
  8710 ;; Return value:  Size  Location     Type
  8711 ;;                  1    wreg      void 
  8712 ;; Registers used:
  8713 ;;		wreg, fsr1l, fsr1h, fsr2l, fsr2h, status,2, status,0, cstack
  8714 ;; Tracked objects:
  8715 ;;		On entry : 0/0
  8716 ;;		On exit  : 0/0
  8717 ;;		Unchanged: 0/0
  8718 ;; Data sizes:     COMRAM   BANK0   BANK1   BANK2   BANK3   BANK4   BANK5   BANK6   BANK7   BANK8   BANK9  BANK10  BANK1
      +1  BANK12  BANK13  BANK14  BANK15
  8719 ;;      Params:         0       0       0       0       0       0       0       0       0       0       0       0       
      +0       0       0       0       0
  8720 ;;      Locals:        22       0       0       0       0       0       0       0       0       0       0       0       
      +0       0       0       0       0
  8721 ;;      Temps:          1       0       0       0       0       0       0       0       0       0       0       0       
      +0       0       0       0       0
  8722 ;;      Totals:        23       0       0       0       0       0       0       0       0       0       0       0       
      +0       0       0       0       0
  8723 ;;Total ram usage:       23 bytes
  8724 ;; Hardware stack levels used: 1
  8725 ;; Hardware stack levels required when called: 3
  8726 ;; This function calls:
  8727 ;;		_UART1_Write
  8728 ;;		_UART1_is_tx_ready
  8729 ;; This function is called by:
  8730 ;;		_main
  8731 ;; This function uses a non-reentrant model
  8732 ;;
  8733                           
  8734                           	psect	text31
  8735   004C88                     __ptext31:
  8736                           	callstack 0
  8737   004C88                     _mensaje_boton:
  8738                           	callstack 27
  8739   004C88                     
  8740                           ;main.c: 494:     char mensaje[] = "\nPulse\tpara\tiniciar";
  8741   004C88  EE20  F182         	lfsr	2,mensaje_boton@F16541
  8742   004C8C  EE10  F003         	lfsr	1,mensaje_boton@mensaje
  8743   004C90  0E13               	movlw	19
  8744   004C92                     u5231:
  8745   004C92  006F FF6F FFE3     	movff	plusw2,plusw1
  8746   004C98  06E8               	decf	wreg,f,c
  8747   004C9A  E2FB               	bc	u5231
  8748   004C9C                     
  8749                           ;main.c: 495:     for (int i = 0; i < sizeof (mensaje); i++)
  8750   004C9C  0E00               	movlw	0
  8751   004C9E  6E18               	movwf	(mensaje_boton@i+1)^0,c
  8752   004CA0  0E00               	movlw	0
  8753   004CA2  6E17               	movwf	mensaje_boton@i^0,c
  8754   004CA4                     l5622:
  8755                           
  8756                           ;main.c: 496:     {;main.c: 497:         if (UART1_is_tx_ready()) {
  8757   004CA4  EC52  F029         	call	_UART1_is_tx_ready	;wreg free
  8758   004CA8  0900               	iorlw	0
  8759   004CAA  B4D8               	btfsc	status,2,c
  8760   004CAC  EF5A  F026         	goto	u5241
  8761   004CB0  EF5C  F026         	goto	u5240
  8762   004CB4                     u5241:
  8763   004CB4  EF65  F026         	goto	l5626
  8764   004CB8                     u5240:
  8765   004CB8                     
  8766                           ;main.c: 498:             UART1_Write(mensaje[i]);
  8767   004CB8  0E03               	movlw	low mensaje_boton@mensaje
  8768   004CBA  2417               	addwf	mensaje_boton@i^0,w,c
  8769   004CBC  6ED9               	movwf	fsr2l,c
  8770   004CBE  0E00               	movlw	high mensaje_boton@mensaje
  8771   004CC0  2018               	addwfc	(mensaje_boton@i+1)^0,w,c
  8772   004CC2  6EDA               	movwf	fsr2h,c
  8773   004CC4  50DF               	movf	indf2,w,c
  8774   004CC6  EC05  F02A         	call	_UART1_Write
  8775   004CCA                     l5626:
  8776                           
  8777                           ;main.c: 500:         _delay((unsigned long)((10)*(16000000/4000.0)));
  8778   004CCA  0E34               	movlw	52
  8779   004CCC  6E02               	movwf	??_mensaje_boton^0,c
  8780   004CCE  0EF2               	movlw	242
  8781   004CD0                     u5807:
  8782   004CD0  2EE8               	decfsz	wreg,f,c
  8783   004CD2  D7FE               	bra	u5807
  8784   004CD4  2E02               	decfsz	??_mensaje_boton^0,f,c
  8785   004CD6  D7FC               	bra	u5807
  8786   004CD8                     
  8787                           ;main.c: 501:     }
  8788   004CD8  4A17               	infsnz	mensaje_boton@i^0,f,c
  8789   004CDA  2A18               	incf	(mensaje_boton@i+1)^0,f,c
  8790   004CDC  5018               	movf	(mensaje_boton@i+1)^0,w,c
  8791   004CDE  E109               	bnz	u5250
  8792   004CE0  0E14               	movlw	20
  8793   004CE2  5C17               	subwf	mensaje_boton@i^0,w,c
  8794   004CE4  A0D8               	btfss	status,0,c
  8795   004CE6  EF77  F026         	goto	u5251
  8796   004CEA  EF79  F026         	goto	u5250
  8797   004CEE                     u5251:
  8798   004CEE  EF52  F026         	goto	l5622
  8799   004CF2                     u5250:
  8800   004CF2  0012               	return		;funcret
  8801   004CF4                     __end_of_mensaje_boton:
  8802                           	callstack 0
  8803                           
  8804 ;; *************** function _mensaje_L *****************
  8805 ;; Defined at:
  8806 ;;		line 344 in file "main.c"
  8807 ;; Parameters:    Size  Location     Type
  8808 ;;		None
  8809 ;; Auto vars:     Size  Location     Type
  8810 ;;  i               2   19[COMRAM] int 
  8811 ;;  mensaje        17    2[COMRAM] unsigned char [17]
  8812 ;; Return value:  Size  Location     Type
  8813 ;;                  1    wreg      void 
  8814 ;; Registers used:
  8815 ;;		wreg, fsr1l, fsr1h, fsr2l, fsr2h, status,2, status,0, cstack
  8816 ;; Tracked objects:
  8817 ;;		On entry : 0/0
  8818 ;;		On exit  : 0/0
  8819 ;;		Unchanged: 0/0
  8820 ;; Data sizes:     COMRAM   BANK0   BANK1   BANK2   BANK3   BANK4   BANK5   BANK6   BANK7   BANK8   BANK9  BANK10  BANK1
      +1  BANK12  BANK13  BANK14  BANK15
  8821 ;;      Params:         0       0       0       0       0       0       0       0       0       0       0       0       
      +0       0       0       0       0
  8822 ;;      Locals:        19       0       0       0       0       0       0       0       0       0       0       0       
      +0       0       0       0       0
  8823 ;;      Temps:          1       0       0       0       0       0       0       0       0       0       0       0       
      +0       0       0       0       0
  8824 ;;      Totals:        20       0       0       0       0       0       0       0       0       0       0       0       
      +0       0       0       0       0
  8825 ;;Total ram usage:       20 bytes
  8826 ;; Hardware stack levels used: 1
  8827 ;; Hardware stack levels required when called: 3
  8828 ;; This function calls:
  8829 ;;		_UART1_Write
  8830 ;;		_UART1_is_tx_ready
  8831 ;; This function is called by:
  8832 ;;		_main
  8833 ;; This function uses a non-reentrant model
  8834 ;;
  8835                           
  8836                           	psect	text32
  8837   004CF4                     __ptext32:
  8838                           	callstack 0
  8839   004CF4                     _mensaje_L:
  8840                           	callstack 27
  8841   004CF4                     
  8842                           ;main.c: 345:     char mensaje[] = "\nLongitud\ten\tum:";
  8843   004CF4  EE20  F1BB         	lfsr	2,mensaje_L@F16490
  8844   004CF8  EE10  F003         	lfsr	1,mensaje_L@mensaje
  8845   004CFC  0E10               	movlw	16
  8846   004CFE                     u5031:
  8847   004CFE  006F FF6F FFE3     	movff	plusw2,plusw1
  8848   004D04  06E8               	decf	wreg,f,c
  8849   004D06  E2FB               	bc	u5031
  8850   004D08                     
  8851                           ;main.c: 346:     for (int i = 0; i < sizeof (mensaje); i++)
  8852   004D08  0E00               	movlw	0
  8853   004D0A  6E15               	movwf	(mensaje_L@i+1)^0,c
  8854   004D0C  0E00               	movlw	0
  8855   004D0E  6E14               	movwf	mensaje_L@i^0,c
  8856   004D10                     l5466:
  8857                           
  8858                           ;main.c: 347:     {;main.c: 348:         if (UART1_is_tx_ready()) {
  8859   004D10  EC52  F029         	call	_UART1_is_tx_ready	;wreg free
  8860   004D14  0900               	iorlw	0
  8861   004D16  B4D8               	btfsc	status,2,c
  8862   004D18  EF90  F026         	goto	u5041
  8863   004D1C  EF92  F026         	goto	u5040
  8864   004D20                     u5041:
  8865   004D20  EF9B  F026         	goto	l5470
  8866   004D24                     u5040:
  8867   004D24                     
  8868                           ;main.c: 349:             UART1_Write(mensaje[i]);
  8869   004D24  0E03               	movlw	low mensaje_L@mensaje
  8870   004D26  2414               	addwf	mensaje_L@i^0,w,c
  8871   004D28  6ED9               	movwf	fsr2l,c
  8872   004D2A  0E00               	movlw	high mensaje_L@mensaje
  8873   004D2C  2015               	addwfc	(mensaje_L@i+1)^0,w,c
  8874   004D2E  6EDA               	movwf	fsr2h,c
  8875   004D30  50DF               	movf	indf2,w,c
  8876   004D32  EC05  F02A         	call	_UART1_Write
  8877   004D36                     l5470:
  8878                           
  8879                           ;main.c: 351:         _delay((unsigned long)((10)*(16000000/4000.0)));
  8880   004D36  0E34               	movlw	52
  8881   004D38  6E02               	movwf	??_mensaje_L^0,c
  8882   004D3A  0EF2               	movlw	242
  8883   004D3C                     u5817:
  8884   004D3C  2EE8               	decfsz	wreg,f,c
  8885   004D3E  D7FE               	bra	u5817
  8886   004D40  2E02               	decfsz	??_mensaje_L^0,f,c
  8887   004D42  D7FC               	bra	u5817
  8888   004D44                     
  8889                           ;main.c: 352:     }
  8890   004D44  4A14               	infsnz	mensaje_L@i^0,f,c
  8891   004D46  2A15               	incf	(mensaje_L@i+1)^0,f,c
  8892   004D48  5015               	movf	(mensaje_L@i+1)^0,w,c
  8893   004D4A  E109               	bnz	u5050
  8894   004D4C  0E11               	movlw	17
  8895   004D4E  5C14               	subwf	mensaje_L@i^0,w,c
  8896   004D50  A0D8               	btfss	status,0,c
  8897   004D52  EFAD  F026         	goto	u5051
  8898   004D56  EFAF  F026         	goto	u5050
  8899   004D5A                     u5051:
  8900   004D5A  EF88  F026         	goto	l5466
  8901   004D5E                     u5050:
  8902   004D5E  0012               	return		;funcret
  8903   004D60                     __end_of_mensaje_L:
  8904                           	callstack 0
  8905                           
  8906 ;; *************** function _mensaje_AWG *****************
  8907 ;; Defined at:
  8908 ;;		line 355 in file "main.c"
  8909 ;; Parameters:    Size  Location     Type
  8910 ;;		None
  8911 ;; Auto vars:     Size  Location     Type
  8912 ;;  i               2    8[COMRAM] int 
  8913 ;;  mensaje         6    2[COMRAM] unsigned char [6]
  8914 ;; Return value:  Size  Location     Type
  8915 ;;                  1    wreg      void 
  8916 ;; Registers used:
  8917 ;;		wreg, fsr1l, fsr1h, fsr2l, fsr2h, status,2, status,0, cstack
  8918 ;; Tracked objects:
  8919 ;;		On entry : 0/0
  8920 ;;		On exit  : 0/0
  8921 ;;		Unchanged: 0/0
  8922 ;; Data sizes:     COMRAM   BANK0   BANK1   BANK2   BANK3   BANK4   BANK5   BANK6   BANK7   BANK8   BANK9  BANK10  BANK1
      +1  BANK12  BANK13  BANK14  BANK15
  8923 ;;      Params:         0       0       0       0       0       0       0       0       0       0       0       0       
      +0       0       0       0       0
  8924 ;;      Locals:         8       0       0       0       0       0       0       0       0       0       0       0       
      +0       0       0       0       0
  8925 ;;      Temps:          1       0       0       0       0       0       0       0       0       0       0       0       
      +0       0       0       0       0
  8926 ;;      Totals:         9       0       0       0       0       0       0       0       0       0       0       0       
      +0       0       0       0       0
  8927 ;;Total ram usage:        9 bytes
  8928 ;; Hardware stack levels used: 1
  8929 ;; Hardware stack levels required when called: 3
  8930 ;; This function calls:
  8931 ;;		_UART1_Write
  8932 ;;		_UART1_is_tx_ready
  8933 ;; This function is called by:
  8934 ;;		_main
  8935 ;; This function uses a non-reentrant model
  8936 ;;
  8937                           
  8938                           	psect	text33
  8939   004D60                     __ptext33:
  8940                           	callstack 0
  8941   004D60                     _mensaje_AWG:
  8942                           	callstack 27
  8943   004D60                     
  8944                           ;main.c: 356:     char mensaje[] = "\nAWG:";
  8945   004D60  EE20  F1E4         	lfsr	2,mensaje_AWG@F16494
  8946   004D64  EE10  F003         	lfsr	1,mensaje_AWG@mensaje
  8947   004D68  0E05               	movlw	5
  8948   004D6A                     u5081:
  8949   004D6A  006F FF6F FFE3     	movff	plusw2,plusw1
  8950   004D70  06E8               	decf	wreg,f,c
  8951   004D72  E2FB               	bc	u5081
  8952   004D74                     
  8953                           ;main.c: 357:     for (int i = 0; i < sizeof (mensaje); i++)
  8954   004D74  0E00               	movlw	0
  8955   004D76  6E0A               	movwf	(mensaje_AWG@i+1)^0,c
  8956   004D78  0E00               	movlw	0
  8957   004D7A  6E09               	movwf	mensaje_AWG@i^0,c
  8958   004D7C                     l5508:
  8959                           
  8960                           ;main.c: 358:     {;main.c: 359:         if (UART1_is_tx_ready()) {
  8961   004D7C  EC52  F029         	call	_UART1_is_tx_ready	;wreg free
  8962   004D80  0900               	iorlw	0
  8963   004D82  B4D8               	btfsc	status,2,c
  8964   004D84  EFC6  F026         	goto	u5091
  8965   004D88  EFC8  F026         	goto	u5090
  8966   004D8C                     u5091:
  8967   004D8C  EFD1  F026         	goto	l5512
  8968   004D90                     u5090:
  8969   004D90                     
  8970                           ;main.c: 360:             UART1_Write(mensaje[i]);
  8971   004D90  0E03               	movlw	low mensaje_AWG@mensaje
  8972   004D92  2409               	addwf	mensaje_AWG@i^0,w,c
  8973   004D94  6ED9               	movwf	fsr2l,c
  8974   004D96  0E00               	movlw	high mensaje_AWG@mensaje
  8975   004D98  200A               	addwfc	(mensaje_AWG@i+1)^0,w,c
  8976   004D9A  6EDA               	movwf	fsr2h,c
  8977   004D9C  50DF               	movf	indf2,w,c
  8978   004D9E  EC05  F02A         	call	_UART1_Write
  8979   004DA2                     l5512:
  8980                           
  8981                           ;main.c: 362:         _delay((unsigned long)((10)*(16000000/4000.0)));
  8982   004DA2  0E34               	movlw	52
  8983   004DA4  6E02               	movwf	??_mensaje_AWG^0,c
  8984   004DA6  0EF2               	movlw	242
  8985   004DA8                     u5827:
  8986   004DA8  2EE8               	decfsz	wreg,f,c
  8987   004DAA  D7FE               	bra	u5827
  8988   004DAC  2E02               	decfsz	??_mensaje_AWG^0,f,c
  8989   004DAE  D7FC               	bra	u5827
  8990   004DB0                     
  8991                           ;main.c: 363:     }
  8992   004DB0  4A09               	infsnz	mensaje_AWG@i^0,f,c
  8993   004DB2  2A0A               	incf	(mensaje_AWG@i+1)^0,f,c
  8994   004DB4  500A               	movf	(mensaje_AWG@i+1)^0,w,c
  8995   004DB6  E109               	bnz	u5100
  8996   004DB8  0E06               	movlw	6
  8997   004DBA  5C09               	subwf	mensaje_AWG@i^0,w,c
  8998   004DBC  A0D8               	btfss	status,0,c
  8999   004DBE  EFE3  F026         	goto	u5101
  9000   004DC2  EFE5  F026         	goto	u5100
  9001   004DC6                     u5101:
  9002   004DC6  EFBE  F026         	goto	l5508
  9003   004DCA                     u5100:
  9004   004DCA  0012               	return		;funcret
  9005   004DCC                     __end_of_mensaje_AWG:
  9006                           	callstack 0
  9007                           
  9008 ;; *************** function _UART1_is_tx_ready *****************
  9009 ;; Defined at:
  9010 ;;		line 131 in file "mcc_generated_files/uart1.c"
  9011 ;; Parameters:    Size  Location     Type
  9012 ;;		None
  9013 ;; Auto vars:     Size  Location     Type
  9014 ;;		None
  9015 ;; Return value:  Size  Location     Type
  9016 ;;                  1    wreg      _Bool 
  9017 ;; Registers used:
  9018 ;;		wreg, status,2
  9019 ;; Tracked objects:
  9020 ;;		On entry : 0/0
  9021 ;;		On exit  : 0/0
  9022 ;;		Unchanged: 0/0
  9023 ;; Data sizes:     COMRAM   BANK0   BANK1   BANK2   BANK3   BANK4   BANK5   BANK6   BANK7   BANK8   BANK9  BANK10  BANK1
      +1  BANK12  BANK13  BANK14  BANK15
  9024 ;;      Params:         0       0       0       0       0       0       0       0       0       0       0       0       
      +0       0       0       0       0
  9025 ;;      Locals:         1       0       0       0       0       0       0       0       0       0       0       0       
      +0       0       0       0       0
  9026 ;;      Temps:          0       0       0       0       0       0       0       0       0       0       0       0       
      +0       0       0       0       0
  9027 ;;      Totals:         1       0       0       0       0       0       0       0       0       0       0       0       
      +0       0       0       0       0
  9028 ;;Total ram usage:        1 bytes
  9029 ;; Hardware stack levels used: 1
  9030 ;; Hardware stack levels required when called: 2
  9031 ;; This function calls:
  9032 ;;		Nothing
  9033 ;; This function is called by:
  9034 ;;		_mensaje_L
  9035 ;;		_mensaje_AWG
  9036 ;;		_mensaje_capas
  9037 ;;		_mensaje_vels
  9038 ;;		_mensaje_terminado
  9039 ;;		_mensaje_capa2
  9040 ;;		_mensaje_final
  9041 ;;		_send_t
  9042 ;;		_mensaje_boton
  9043 ;;		_print_num
  9044 ;; This function uses a non-reentrant model
  9045 ;;
  9046                           
  9047                           	psect	text34
  9048   0052A4                     __ptext34:
  9049                           	callstack 0
  9050   0052A4                     _UART1_is_tx_ready:
  9051                           	callstack 27
  9052   0052A4                     
  9053                           ;mcc_generated_files/uart1.c: 133:     return (_Bool)(PIR3bits.U1TXIF && U1CON0bits.TXEN
      +                          );
  9054   0052A4  0E00               	movlw	0
  9055   0052A6  6E01               	movwf	_UART1_is_tx_ready$225^0,c
  9056   0052A8  0139               	movlb	57	; () banked
  9057   0052AA  A9A3               	btfss	163,4,b	;volatile
  9058   0052AC  EF5A  F029         	goto	u4771
  9059   0052B0  EF5C  F029         	goto	u4770
  9060   0052B4                     u4771:
  9061   0052B4  EF66  F029         	goto	l70
  9062   0052B8                     u4770:
  9063   0052B8                     
  9064                           ; BSR set to: 57
  9065   0052B8  013D               	movlb	61	; () banked
  9066   0052BA  ABF2               	btfss	242,5,b	;volatile
  9067   0052BC  EF62  F029         	goto	u4781
  9068   0052C0  EF64  F029         	goto	u4780
  9069   0052C4                     u4781:
  9070   0052C4  EF66  F029         	goto	l70
  9071   0052C8                     u4780:
  9072   0052C8                     
  9073                           ; BSR set to: 61
  9074   0052C8  0E01               	movlw	1
  9075   0052CA  6E01               	movwf	_UART1_is_tx_ready$225^0,c
  9076   0052CC                     l70:
  9077   0052CC  5001               	movf	_UART1_is_tx_ready$225^0,w,c
  9078   0052CE  0012               	return		;funcret
  9079   0052D0                     __end_of_UART1_is_tx_ready:
  9080                           	callstack 0
  9081                           
  9082 ;; *************** function _UART1_Write *****************
  9083 ;; Defined at:
  9084 ;;		line 170 in file "mcc_generated_files/uart1.c"
  9085 ;; Parameters:    Size  Location     Type
  9086 ;;  txData          1    wreg     unsigned char 
  9087 ;; Auto vars:     Size  Location     Type
  9088 ;;  txData          1    0[COMRAM] unsigned char 
  9089 ;; Return value:  Size  Location     Type
  9090 ;;                  1    wreg      void 
  9091 ;; Registers used:
  9092 ;;		wreg
  9093 ;; Tracked objects:
  9094 ;;		On entry : 0/0
  9095 ;;		On exit  : 0/0
  9096 ;;		Unchanged: 0/0
  9097 ;; Data sizes:     COMRAM   BANK0   BANK1   BANK2   BANK3   BANK4   BANK5   BANK6   BANK7   BANK8   BANK9  BANK10  BANK1
      +1  BANK12  BANK13  BANK14  BANK15
  9098 ;;      Params:         0       0       0       0       0       0       0       0       0       0       0       0       
      +0       0       0       0       0
  9099 ;;      Locals:         1       0       0       0       0       0       0       0       0       0       0       0       
      +0       0       0       0       0
  9100 ;;      Temps:          0       0       0       0       0       0       0       0       0       0       0       0       
      +0       0       0       0       0
  9101 ;;      Totals:         1       0       0       0       0       0       0       0       0       0       0       0       
      +0       0       0       0       0
  9102 ;;Total ram usage:        1 bytes
  9103 ;; Hardware stack levels used: 1
  9104 ;; Hardware stack levels required when called: 2
  9105 ;; This function calls:
  9106 ;;		Nothing
  9107 ;; This function is called by:
  9108 ;;		_mensaje_L
  9109 ;;		_mensaje_AWG
  9110 ;;		_mensaje_capas
  9111 ;;		_mensaje_vels
  9112 ;;		_mensaje_terminado
  9113 ;;		_mensaje_capa2
  9114 ;;		_mensaje_final
  9115 ;;		_send_t
  9116 ;;		_mensaje_boton
  9117 ;;		_print_num
  9118 ;; This function uses a non-reentrant model
  9119 ;;
  9120                           
  9121                           	psect	text35
  9122   00540A                     __ptext35:
  9123                           	callstack 0
  9124   00540A                     _UART1_Write:
  9125                           	callstack 27
  9126                           
  9127                           ;incstack = 0
  9128                           ;UART1_Write@txData stored from wreg
  9129   00540A  6E01               	movwf	UART1_Write@txData^0,c
  9130   00540C                     l89:
  9131                           
  9132                           ;mcc_generated_files/uart1.c: 172:     while(0 == PIR3bits.U1TXIF)
  9133   00540C  0139               	movlb	57	; () banked
  9134   00540E  A9A3               	btfss	163,4,b	;volatile
  9135   005410  EF0C  F02A         	goto	u4861
  9136   005414  EF0E  F02A         	goto	u4860
  9137   005418                     u4861:
  9138   005418  EF06  F02A         	goto	l89
  9139   00541C                     u4860:
  9140   00541C                     
  9141                           ; BSR set to: 57
  9142                           ;mcc_generated_files/uart1.c: 176:     U1TXB = txData;
  9143   00541C  0060  F007  FDEA   	movff	UART1_Write@txData,15850	;volatile
  9144   005422                     
  9145                           ; BSR set to: 57
  9146   005422  0012               	return		;funcret
  9147   005424                     __end_of_UART1_Write:
  9148                           	callstack 0
  9149                           
  9150 ;; *************** function _init_hx *****************
  9151 ;; Defined at:
  9152 ;;		line 579 in file "main.c"
  9153 ;; Parameters:    Size  Location     Type
  9154 ;;  gain1           2   16[COMRAM] int 
  9155 ;; Auto vars:     Size  Location     Type
  9156 ;;		None
  9157 ;; Return value:  Size  Location     Type
  9158 ;;                  1    wreg      void 
  9159 ;; Registers used:
  9160 ;;		wreg, status,2, status,0, cstack
  9161 ;; Tracked objects:
  9162 ;;		On entry : 0/0
  9163 ;;		On exit  : 0/0
  9164 ;;		Unchanged: 0/0
  9165 ;; Data sizes:     COMRAM   BANK0   BANK1   BANK2   BANK3   BANK4   BANK5   BANK6   BANK7   BANK8   BANK9  BANK10  BANK1
      +1  BANK12  BANK13  BANK14  BANK15
  9166 ;;      Params:         2       0       0       0       0       0       0       0       0       0       0       0       
      +0       0       0       0       0
  9167 ;;      Locals:         0       0       0       0       0       0       0       0       0       0       0       0       
      +0       0       0       0       0
  9168 ;;      Temps:          0       0       0       0       0       0       0       0       0       0       0       0       
      +0       0       0       0       0
  9169 ;;      Totals:         2       0       0       0       0       0       0       0       0       0       0       0       
      +0       0       0       0       0
  9170 ;;Total ram usage:        2 bytes
  9171 ;; Hardware stack levels used: 1
  9172 ;; Hardware stack levels required when called: 4
  9173 ;; This function calls:
  9174 ;;		_set_gain
  9175 ;; This function is called by:
  9176 ;;		_main
  9177 ;; This function uses a non-reentrant model
  9178 ;;
  9179                           
  9180                           	psect	text36
  9181   00547A                     __ptext36:
  9182                           	callstack 0
  9183   00547A                     _init_hx:
  9184                           	callstack 26
  9185   00547A  9EBD               	bcf	189,7,c	;volatile
  9186   00547C                     
  9187                           ;main.c: 582:     set_gain(gain1);
  9188   00547C  C011  F00D         	movff	init_hx@gain1,set_gain@gain1
  9189   005480  C012  F00E         	movff	init_hx@gain1+1,set_gain@gain1+1
  9190   005484  ECE6  F026         	call	_set_gain	;wreg free
  9191   005488  0012               	return		;funcret
  9192   00548A                     __end_of_init_hx:
  9193                           	callstack 0
  9194                           
  9195 ;; *************** function _set_gain *****************
  9196 ;; Defined at:
  9197 ;;		line 562 in file "main.c"
  9198 ;; Parameters:    Size  Location     Type
  9199 ;;  gain1           2   12[COMRAM] int 
  9200 ;; Auto vars:     Size  Location     Type
  9201 ;;		None
  9202 ;; Return value:  Size  Location     Type
  9203 ;;                  1    wreg      void 
  9204 ;; Registers used:
  9205 ;;		wreg, status,2, status,0, cstack
  9206 ;; Tracked objects:
  9207 ;;		On entry : 0/0
  9208 ;;		On exit  : 0/0
  9209 ;;		Unchanged: 0/0
  9210 ;; Data sizes:     COMRAM   BANK0   BANK1   BANK2   BANK3   BANK4   BANK5   BANK6   BANK7   BANK8   BANK9  BANK10  BANK1
      +1  BANK12  BANK13  BANK14  BANK15
  9211 ;;      Params:         2       0       0       0       0       0       0       0       0       0       0       0       
      +0       0       0       0       0
  9212 ;;      Locals:         0       0       0       0       0       0       0       0       0       0       0       0       
      +0       0       0       0       0
  9213 ;;      Temps:          2       0       0       0       0       0       0       0       0       0       0       0       
      +0       0       0       0       0
  9214 ;;      Totals:         4       0       0       0       0       0       0       0       0       0       0       0       
      +0       0       0       0       0
  9215 ;;Total ram usage:        4 bytes
  9216 ;; Hardware stack levels used: 1
  9217 ;; Hardware stack levels required when called: 3
  9218 ;; This function calls:
  9219 ;;		_hx711_read
  9220 ;; This function is called by:
  9221 ;;		_init_hx
  9222 ;; This function uses a non-reentrant model
  9223 ;;
  9224                           
  9225                           	psect	text37
  9226   004DCC                     __ptext37:
  9227                           	callstack 0
  9228   004DCC                     _set_gain:
  9229                           	callstack 26
  9230   004DCC                     
  9231                           ;main.c: 563:     switch (gain1) {
  9232   004DCC  EFFD  F026         	goto	l5332
  9233   004DD0                     l5324:
  9234                           
  9235                           ;main.c: 565:             GAIN = 1;
  9236   004DD0  0E00               	movlw	0
  9237   004DD2  0100               	movlb	0	; () banked
  9238   004DD4  6FFF               	movwf	(_GAIN+1)& (0+255),b
  9239   004DD6  0E01               	movlw	1
  9240   004DD8  6FFE               	movwf	_GAIN& (0+255),b
  9241                           
  9242                           ;main.c: 566:             break;
  9243   004DDA  EF17  F027         	goto	l871
  9244   004DDE                     l5326:
  9245                           
  9246                           ;main.c: 568:             GAIN = 3;
  9247   004DDE  0E00               	movlw	0
  9248   004DE0  0100               	movlb	0	; () banked
  9249   004DE2  6FFF               	movwf	(_GAIN+1)& (0+255),b
  9250   004DE4  0E03               	movlw	3
  9251   004DE6  6FFE               	movwf	_GAIN& (0+255),b
  9252                           
  9253                           ;main.c: 569:             break;
  9254   004DE8  EF17  F027         	goto	l871
  9255   004DEC                     l5328:
  9256                           
  9257                           ;main.c: 571:             GAIN = 2;
  9258   004DEC  0E00               	movlw	0
  9259   004DEE  0100               	movlb	0	; () banked
  9260   004DF0  6FFF               	movwf	(_GAIN+1)& (0+255),b
  9261   004DF2  0E02               	movlw	2
  9262   004DF4  6FFE               	movwf	_GAIN& (0+255),b
  9263                           
  9264                           ;main.c: 572:             break;
  9265   004DF6  EF17  F027         	goto	l871
  9266   004DFA                     l5332:
  9267   004DFA  C00D  F00F         	movff	set_gain@gain1,??_set_gain
  9268   004DFE  C00E  F010         	movff	set_gain@gain1+1,??_set_gain+1
  9269                           
  9270                           ; Switch on 2 bytes has been partitioned into a top level switch of size 1, and 1 sub-sw
      +                          itches
  9271                           ; Switch size 1, requested type "simple"
  9272                           ; Number of cases is 1, Range of values is 0 to 0
  9273                           ; switch strategies available:
  9274                           ; Name         Instructions Cycles
  9275                           ; simple_byte            4     3 (average)
  9276                           ;	Chosen strategy is simple_byte
  9277   004E02  5010               	movf	(??_set_gain+1)^0,w,c
  9278   004E04  0A00               	xorlw	0	; case 0
  9279   004E06  B4D8               	btfsc	status,2,c
  9280   004E08  EF08  F027         	goto	l6270
  9281   004E0C  EF17  F027         	goto	l871
  9282   004E10                     l6270:
  9283                           
  9284                           ; Switch size 1, requested type "simple"
  9285                           ; Number of cases is 3, Range of values is 32 to 128
  9286                           ; switch strategies available:
  9287                           ; Name         Instructions Cycles
  9288                           ; simple_byte           10     6 (average)
  9289                           ;	Chosen strategy is simple_byte
  9290   004E10  500F               	movf	??_set_gain^0,w,c
  9291   004E12  0A20               	xorlw	32	; case 32
  9292   004E14  B4D8               	btfsc	status,2,c
  9293   004E16  EFF6  F026         	goto	l5328
  9294   004E1A  0A60               	xorlw	96	; case 64
  9295   004E1C  B4D8               	btfsc	status,2,c
  9296   004E1E  EFEF  F026         	goto	l5326
  9297   004E22  0AC0               	xorlw	192	; case 128
  9298   004E24  B4D8               	btfsc	status,2,c
  9299   004E26  EFE8  F026         	goto	l5324
  9300   004E2A  EF17  F027         	goto	l871
  9301   004E2E                     l871:
  9302   004E2E  9EBD               	bcf	189,7,c	;volatile
  9303   004E30                     
  9304                           ;main.c: 576:     hx711_read();
  9305   004E30  EC54  F021         	call	_hx711_read	;wreg free
  9306   004E34  0012               	return		;funcret
  9307   004E36                     __end_of_set_gain:
  9308                           	callstack 0
  9309                           
  9310 ;; *************** function _get_average *****************
  9311 ;; Defined at:
  9312 ;;		line 585 in file "main.c"
  9313 ;; Parameters:    Size  Location     Type
  9314 ;;  times           2   13[COMRAM] int 
  9315 ;; Auto vars:     Size  Location     Type
  9316 ;;  i               2   18[COMRAM] int 
  9317 ;;  sum             4   20[COMRAM] unsigned long 
  9318 ;; Return value:  Size  Location     Type
  9319 ;;                  4   13[COMRAM] long 
  9320 ;; Registers used:
  9321 ;;		wreg, status,2, status,0, cstack
  9322 ;; Tracked objects:
  9323 ;;		On entry : 0/0
  9324 ;;		On exit  : 0/0
  9325 ;;		Unchanged: 0/0
  9326 ;; Data sizes:     COMRAM   BANK0   BANK1   BANK2   BANK3   BANK4   BANK5   BANK6   BANK7   BANK8   BANK9  BANK10  BANK1
      +1  BANK12  BANK13  BANK14  BANK15
  9327 ;;      Params:         4       0       0       0       0       0       0       0       0       0       0       0       
      +0       0       0       0       0
  9328 ;;      Locals:         6       0       0       0       0       0       0       0       0       0       0       0       
      +0       0       0       0       0
  9329 ;;      Temps:          1       0       0       0       0       0       0       0       0       0       0       0       
      +0       0       0       0       0
  9330 ;;      Totals:        11       0       0       0       0       0       0       0       0       0       0       0       
      +0       0       0       0       0
  9331 ;;Total ram usage:       11 bytes
  9332 ;; Hardware stack levels used: 1
  9333 ;; Hardware stack levels required when called: 3
  9334 ;; This function calls:
  9335 ;;		___lldiv
  9336 ;;		_hx711_read
  9337 ;; This function is called by:
  9338 ;;		_main
  9339 ;; This function uses a non-reentrant model
  9340 ;;
  9341                           
  9342                           	psect	text38
  9343   00486A                     __ptext38:
  9344                           	callstack 0
  9345   00486A                     _get_average:
  9346                           	callstack 27
  9347   00486A                     
  9348                           ;main.c: 586:     uint32_t sum = 0;
  9349   00486A  0E00               	movlw	0
  9350   00486C  6E15               	movwf	get_average@sum^0,c
  9351   00486E  0E00               	movlw	0
  9352   004870  6E16               	movwf	(get_average@sum+1)^0,c
  9353   004872  0E00               	movlw	0
  9354   004874  6E17               	movwf	(get_average@sum+2)^0,c
  9355   004876  0E00               	movlw	0
  9356   004878  6E18               	movwf	(get_average@sum+3)^0,c
  9357                           
  9358                           ;main.c: 587:     for (int i = 0; i < times; i++) {
  9359   00487A  0E00               	movlw	0
  9360   00487C  6E14               	movwf	(get_average@i+1)^0,c
  9361   00487E  0E00               	movlw	0
  9362   004880  6E13               	movwf	get_average@i^0,c
  9363   004882  EF53  F024         	goto	l5652
  9364   004886                     l5648:
  9365                           
  9366                           ;main.c: 588:         sum = sum + hx711_read();
  9367   004886  EC54  F021         	call	_hx711_read	;wreg free
  9368   00488A  5015               	movf	get_average@sum^0,w,c
  9369   00488C  2401               	addwf	?_hx711_read^0,w,c
  9370   00488E  6E15               	movwf	get_average@sum^0,c
  9371   004890  5016               	movf	(get_average@sum+1)^0,w,c
  9372   004892  2002               	addwfc	(?_hx711_read+1)^0,w,c
  9373   004894  6E16               	movwf	(get_average@sum+1)^0,c
  9374   004896  5017               	movf	(get_average@sum+2)^0,w,c
  9375   004898  2003               	addwfc	(?_hx711_read+2)^0,w,c
  9376   00489A  6E17               	movwf	(get_average@sum+2)^0,c
  9377   00489C  5018               	movf	(get_average@sum+3)^0,w,c
  9378   00489E  2004               	addwfc	(?_hx711_read+3)^0,w,c
  9379   0048A0  6E18               	movwf	(get_average@sum+3)^0,c
  9380   0048A2                     
  9381                           ;main.c: 590:     }
  9382   0048A2  4A13               	infsnz	get_average@i^0,f,c
  9383   0048A4  2A14               	incf	(get_average@i+1)^0,f,c
  9384   0048A6                     l5652:
  9385   0048A6  500E               	movf	get_average@times^0,w,c
  9386   0048A8  5C13               	subwf	get_average@i^0,w,c
  9387   0048AA  5014               	movf	(get_average@i+1)^0,w,c
  9388   0048AC  0A80               	xorlw	128
  9389   0048AE  6E12               	movwf	??_get_average^0,c
  9390   0048B0  500F               	movf	(get_average@times+1)^0,w,c
  9391   0048B2  0A80               	xorlw	128
  9392   0048B4  5812               	subwfb	??_get_average^0,w,c
  9393   0048B6  A0D8               	btfss	status,0,c
  9394   0048B8  EF60  F024         	goto	u5261
  9395   0048BC  EF62  F024         	goto	u5260
  9396   0048C0                     u5261:
  9397   0048C0  EF43  F024         	goto	l5648
  9398   0048C4                     u5260:
  9399   0048C4                     
  9400                           ;main.c: 591:     return (sum / times);
  9401   0048C4  C015  F001         	movff	get_average@sum,___lldiv@dividend
  9402   0048C8  C016  F002         	movff	get_average@sum+1,___lldiv@dividend+1
  9403   0048CC  C017  F003         	movff	get_average@sum+2,___lldiv@dividend+2
  9404   0048D0  C018  F004         	movff	get_average@sum+3,___lldiv@dividend+3
  9405   0048D4  C00E  F005         	movff	get_average@times,___lldiv@divisor
  9406   0048D8  C00F  F006         	movff	get_average@times+1,___lldiv@divisor+1
  9407   0048DC  0E00               	movlw	0
  9408   0048DE  BE06               	btfsc	(___lldiv@divisor+1)^0,7,c
  9409   0048E0  0EFF               	movlw	-1
  9410   0048E2  6E07               	movwf	(___lldiv@divisor+2)^0,c
  9411   0048E4  6E08               	movwf	(___lldiv@divisor+3)^0,c
  9412   0048E6  EC3F  F023         	call	___lldiv	;wreg free
  9413   0048EA  C001  F00E         	movff	?___lldiv,?_get_average
  9414   0048EE  C002  F00F         	movff	?___lldiv+1,?_get_average+1
  9415   0048F2  C003  F010         	movff	?___lldiv+2,?_get_average+2
  9416   0048F6  C004  F011         	movff	?___lldiv+3,?_get_average+3
  9417   0048FA  0012               	return		;funcret
  9418   0048FC                     __end_of_get_average:
  9419                           	callstack 0
  9420                           
  9421 ;; *************** function _hx711_read *****************
  9422 ;; Defined at:
  9423 ;;		line 535 in file "main.c"
  9424 ;; Parameters:    Size  Location     Type
  9425 ;;		None
  9426 ;; Auto vars:     Size  Location     Type
  9427 ;;  data            4    7[COMRAM] unsigned long 
  9428 ;;  i               1   11[COMRAM] char 
  9429 ;; Return value:  Size  Location     Type
  9430 ;;                  4    0[COMRAM] unsigned long 
  9431 ;; Registers used:
  9432 ;;		wreg, status,2, status,0
  9433 ;; Tracked objects:
  9434 ;;		On entry : 0/0
  9435 ;;		On exit  : 0/0
  9436 ;;		Unchanged: 0/0
  9437 ;; Data sizes:     COMRAM   BANK0   BANK1   BANK2   BANK3   BANK4   BANK5   BANK6   BANK7   BANK8   BANK9  BANK10  BANK1
      +1  BANK12  BANK13  BANK14  BANK15
  9438 ;;      Params:         4       0       0       0       0       0       0       0       0       0       0       0       
      +0       0       0       0       0
  9439 ;;      Locals:         5       0       0       0       0       0       0       0       0       0       0       0       
      +0       0       0       0       0
  9440 ;;      Temps:          3       0       0       0       0       0       0       0       0       0       0       0       
      +0       0       0       0       0
  9441 ;;      Totals:        12       0       0       0       0       0       0       0       0       0       0       0       
      +0       0       0       0       0
  9442 ;;Total ram usage:       12 bytes
  9443 ;; Hardware stack levels used: 1
  9444 ;; Hardware stack levels required when called: 2
  9445 ;; This function calls:
  9446 ;;		Nothing
  9447 ;; This function is called by:
  9448 ;;		_set_gain
  9449 ;;		_get_average
  9450 ;; This function uses a non-reentrant model
  9451 ;;
  9452                           
  9453                           	psect	text39
  9454   0042A8                     __ptext39:
  9455                           	callstack 0
  9456   0042A8                     _hx711_read:
  9457                           	callstack 26
  9458   0042A8                     
  9459                           ;main.c: 536:     int8_t i;;main.c: 537:     uint32_t data = 0;
  9460   0042A8  0E00               	movlw	0
  9461   0042AA  6E08               	movwf	hx711_read@data^0,c
  9462   0042AC  0E00               	movlw	0
  9463   0042AE  6E09               	movwf	(hx711_read@data+1)^0,c
  9464   0042B0  0E00               	movlw	0
  9465   0042B2  6E0A               	movwf	(hx711_read@data+2)^0,c
  9466   0042B4  0E00               	movlw	0
  9467   0042B6  6E0B               	movwf	(hx711_read@data+3)^0,c
  9468   0042B8  9EBD               	bcf	189,7,c	;volatile
  9469   0042BA                     
  9470                           ;main.c: 540:     _delay((unsigned long)((1)*(16000000/4000000.0)));
  9471   0042BA  D000               	nop2		;2 cycle nop
  9472   0042BC  D000               	nop2		;2 cycle nop
  9473   0042BE                     l846:
  9474   0042BE  B0CA               	btfsc	202,0,c	;volatile
  9475   0042C0  EF64  F021         	goto	u4711
  9476   0042C4  EF66  F021         	goto	u4710
  9477   0042C8                     u4711:
  9478   0042C8  EF5F  F021         	goto	l846
  9479   0042CC                     u4710:
  9480   0042CC                     
  9481                           ;main.c: 542:     for (i = 0; i < 24; i++) {
  9482   0042CC  0E00               	movlw	0
  9483   0042CE  6E0C               	movwf	hx711_read@i^0,c
  9484   0042D0                     l851:
  9485   0042D0  8EBD               	bsf	189,7,c	;volatile
  9486   0042D2                     
  9487                           ;main.c: 544:         data = data << 1;
  9488   0042D2  90D8               	bcf	status,0,c
  9489   0042D4  3408               	rlcf	hx711_read@data^0,w,c
  9490   0042D6  6E08               	movwf	hx711_read@data^0,c
  9491   0042D8  3409               	rlcf	(hx711_read@data+1)^0,w,c
  9492   0042DA  6E09               	movwf	(hx711_read@data+1)^0,c
  9493   0042DC  340A               	rlcf	(hx711_read@data+2)^0,w,c
  9494   0042DE  6E0A               	movwf	(hx711_read@data+2)^0,c
  9495   0042E0  340B               	rlcf	(hx711_read@data+3)^0,w,c
  9496   0042E2  6E0B               	movwf	(hx711_read@data+3)^0,c
  9497   0042E4                     
  9498                           ;main.c: 545:         _delay((unsigned long)((1)*(16000000/4000000.0)));
  9499   0042E4  D000               	nop2		;2 cycle nop
  9500   0042E6  D000               	nop2		;2 cycle nop
  9501   0042E8  9EBD               	bcf	189,7,c	;volatile
  9502   0042EA                     
  9503                           ;main.c: 547:         _delay((unsigned long)((1)*(16000000/4000000.0)));
  9504   0042EA  D000               	nop2		;2 cycle nop
  9505   0042EC  D000               	nop2		;2 cycle nop
  9506   0042EE                     
  9507                           ;main.c: 548:         if (PORTAbits.RA0)
  9508   0042EE  A0CA               	btfss	202,0,c	;volatile
  9509   0042F0  EF7C  F021         	goto	u4721
  9510   0042F4  EF7E  F021         	goto	u4720
  9511   0042F8                     u4721:
  9512   0042F8  EF84  F021         	goto	l5176
  9513   0042FC                     u4720:
  9514   0042FC                     
  9515                           ;main.c: 549:             data++;
  9516   0042FC  0E01               	movlw	1
  9517   0042FE  2608               	addwf	hx711_read@data^0,f,c
  9518   004300  0E00               	movlw	0
  9519   004302  2209               	addwfc	(hx711_read@data+1)^0,f,c
  9520   004304  220A               	addwfc	(hx711_read@data+2)^0,f,c
  9521   004306  220B               	addwfc	(hx711_read@data+3)^0,f,c
  9522   004308                     l5176:
  9523                           
  9524                           ;main.c: 550:     }
  9525   004308  2A0C               	incf	hx711_read@i^0,f,c
  9526   00430A  500C               	movf	hx711_read@i^0,w,c
  9527   00430C  0A80               	xorlw	128
  9528   00430E  0F68               	addlw	-152
  9529   004310  A0D8               	btfss	status,0,c
  9530   004312  EF8D  F021         	goto	u4731
  9531   004316  EF8F  F021         	goto	u4730
  9532   00431A                     u4731:
  9533   00431A  EF68  F021         	goto	l851
  9534   00431E                     u4730:
  9535   00431E                     
  9536                           ;main.c: 552:     for (i = 0; i < GAIN; i++) {
  9537   00431E  0E00               	movlw	0
  9538   004320  6E0C               	movwf	hx711_read@i^0,c
  9539   004322  EF9A  F021         	goto	l5184
  9540   004326                     l858:
  9541                           
  9542                           ; BSR set to: 0
  9543   004326  8EBD               	bsf	189,7,c	;volatile
  9544   004328                     
  9545                           ; BSR set to: 0
  9546                           ;main.c: 554:         _delay((unsigned long)((1)*(16000000/4000000.0)));
  9547   004328  D000               	nop2		;2 cycle nop
  9548   00432A  D000               	nop2		;2 cycle nop
  9549   00432C  9EBD               	bcf	189,7,c	;volatile
  9550   00432E                     
  9551                           ;main.c: 556:         _delay((unsigned long)((1)*(16000000/4000000.0)));
  9552   00432E  D000               	nop2		;2 cycle nop
  9553   004330  D000               	nop2		;2 cycle nop
  9554   004332                     
  9555                           ;main.c: 557:     }
  9556   004332  2A0C               	incf	hx711_read@i^0,f,c
  9557   004334                     l5184:
  9558   004334  C00C  F005         	movff	hx711_read@i,??_hx711_read
  9559   004338  6A06               	clrf	(??_hx711_read+1)^0,c
  9560   00433A  BE05               	btfsc	??_hx711_read^0,7,c
  9561   00433C  0606               	decf	(??_hx711_read+1)^0,f,c
  9562   00433E  0100               	movlb	0	; () banked
  9563   004340  51FE               	movf	_GAIN& (0+255),w,b
  9564   004342  5C05               	subwf	??_hx711_read^0,w,c
  9565   004344  5006               	movf	(??_hx711_read+1)^0,w,c
  9566   004346  0A80               	xorlw	128
  9567   004348  6E07               	movwf	(??_hx711_read+2)^0,c
  9568   00434A  51FF               	movf	(_GAIN+1)& (0+255),w,b
  9569   00434C  0A80               	xorlw	128
  9570   00434E  5807               	subwfb	(??_hx711_read+2)^0,w,c
  9571   004350  A0D8               	btfss	status,0,c
  9572   004352  EFAD  F021         	goto	u4741
  9573   004356  EFAF  F021         	goto	u4740
  9574   00435A                     u4741:
  9575   00435A  EF93  F021         	goto	l858
  9576   00435E                     u4740:
  9577   00435E                     
  9578                           ; BSR set to: 0
  9579                           ;main.c: 558:     data = data ^ 0x800000;
  9580   00435E  0E00               	movlw	0
  9581   004360  1808               	xorwf	hx711_read@data^0,w,c
  9582   004362  6E08               	movwf	hx711_read@data^0,c
  9583   004364  0E00               	movlw	0
  9584   004366  1809               	xorwf	(hx711_read@data+1)^0,w,c
  9585   004368  6E09               	movwf	(hx711_read@data+1)^0,c
  9586   00436A  0E80               	movlw	128
  9587   00436C  180A               	xorwf	(hx711_read@data+2)^0,w,c
  9588   00436E  6E0A               	movwf	(hx711_read@data+2)^0,c
  9589   004370  0E00               	movlw	0
  9590   004372  180B               	xorwf	(hx711_read@data+3)^0,w,c
  9591   004374  6E0B               	movwf	(hx711_read@data+3)^0,c
  9592   004376                     
  9593                           ; BSR set to: 0
  9594                           ;main.c: 559:     return (data);
  9595   004376  C008  F001         	movff	hx711_read@data,?_hx711_read
  9596   00437A  C009  F002         	movff	hx711_read@data+1,?_hx711_read+1
  9597   00437E  C00A  F003         	movff	hx711_read@data+2,?_hx711_read+2
  9598   004382  C00B  F004         	movff	hx711_read@data+3,?_hx711_read+3
  9599   004386                     
  9600                           ; BSR set to: 0
  9601   004386  0012               	return		;funcret
  9602   004388                     __end_of_hx711_read:
  9603                           	callstack 0
  9604                           
  9605 ;; *************** function ___lldiv *****************
  9606 ;; Defined at:
  9607 ;;		line 7 in file "C:\Program Files\Microchip\xc8\v2.41\pic\sources\c99\common\__lldiv.c"
  9608 ;; Parameters:    Size  Location     Type
  9609 ;;  dividend        4    0[COMRAM] unsigned long 
  9610 ;;  divisor         4    4[COMRAM] unsigned long 
  9611 ;; Auto vars:     Size  Location     Type
  9612 ;;  quotient        4    8[COMRAM] unsigned long 
  9613 ;;  counter         1   12[COMRAM] unsigned char 
  9614 ;; Return value:  Size  Location     Type
  9615 ;;                  4    0[COMRAM] unsigned long 
  9616 ;; Registers used:
  9617 ;;		wreg, status,2, status,0
  9618 ;; Tracked objects:
  9619 ;;		On entry : 0/0
  9620 ;;		On exit  : 0/0
  9621 ;;		Unchanged: 0/0
  9622 ;; Data sizes:     COMRAM   BANK0   BANK1   BANK2   BANK3   BANK4   BANK5   BANK6   BANK7   BANK8   BANK9  BANK10  BANK1
      +1  BANK12  BANK13  BANK14  BANK15
  9623 ;;      Params:         8       0       0       0       0       0       0       0       0       0       0       0       
      +0       0       0       0       0
  9624 ;;      Locals:         5       0       0       0       0       0       0       0       0       0       0       0       
      +0       0       0       0       0
  9625 ;;      Temps:          0       0       0       0       0       0       0       0       0       0       0       0       
      +0       0       0       0       0
  9626 ;;      Totals:        13       0       0       0       0       0       0       0       0       0       0       0       
      +0       0       0       0       0
  9627 ;;Total ram usage:       13 bytes
  9628 ;; Hardware stack levels used: 1
  9629 ;; Hardware stack levels required when called: 2
  9630 ;; This function calls:
  9631 ;;		Nothing
  9632 ;; This function is called by:
  9633 ;;		_get_average
  9634 ;; This function uses a non-reentrant model
  9635 ;;
  9636                           
  9637                           	psect	text40
  9638   00467E                     __ptext40:
  9639                           	callstack 0
  9640   00467E                     ___lldiv:
  9641                           	callstack 27
  9642   00467E  0E00               	movlw	0
  9643   004680  6E09               	movwf	___lldiv@quotient^0,c
  9644   004682  0E00               	movlw	0
  9645   004684  6E0A               	movwf	(___lldiv@quotient+1)^0,c
  9646   004686  0E00               	movlw	0
  9647   004688  6E0B               	movwf	(___lldiv@quotient+2)^0,c
  9648   00468A  0E00               	movlw	0
  9649   00468C  6E0C               	movwf	(___lldiv@quotient+3)^0,c
  9650   00468E  5005               	movf	___lldiv@divisor^0,w,c
  9651   004690  1006               	iorwf	(___lldiv@divisor+1)^0,w,c
  9652   004692  1007               	iorwf	(___lldiv@divisor+2)^0,w,c
  9653   004694  1008               	iorwf	(___lldiv@divisor+3)^0,w,c
  9654   004696  B4D8               	btfsc	status,2,c
  9655   004698  EF50  F023         	goto	u4871
  9656   00469C  EF52  F023         	goto	u4870
  9657   0046A0                     u4871:
  9658   0046A0  EF88  F023         	goto	l914
  9659   0046A4                     u4870:
  9660   0046A4  0E01               	movlw	1
  9661   0046A6  6E0D               	movwf	___lldiv@counter^0,c
  9662   0046A8  EF5C  F023         	goto	l5354
  9663   0046AC                     l5352:
  9664   0046AC  90D8               	bcf	status,0,c
  9665   0046AE  3605               	rlcf	___lldiv@divisor^0,f,c
  9666   0046B0  3606               	rlcf	(___lldiv@divisor+1)^0,f,c
  9667   0046B2  3607               	rlcf	(___lldiv@divisor+2)^0,f,c
  9668   0046B4  3608               	rlcf	(___lldiv@divisor+3)^0,f,c
  9669   0046B6  2A0D               	incf	___lldiv@counter^0,f,c
  9670   0046B8                     l5354:
  9671   0046B8  AE08               	btfss	(___lldiv@divisor+3)^0,7,c
  9672   0046BA  EF61  F023         	goto	u4881
  9673   0046BE  EF63  F023         	goto	u4880
  9674   0046C2                     u4881:
  9675   0046C2  EF56  F023         	goto	l5352
  9676   0046C6                     u4880:
  9677   0046C6                     l5356:
  9678   0046C6  90D8               	bcf	status,0,c
  9679   0046C8  3609               	rlcf	___lldiv@quotient^0,f,c
  9680   0046CA  360A               	rlcf	(___lldiv@quotient+1)^0,f,c
  9681   0046CC  360B               	rlcf	(___lldiv@quotient+2)^0,f,c
  9682   0046CE  360C               	rlcf	(___lldiv@quotient+3)^0,f,c
  9683   0046D0  5005               	movf	___lldiv@divisor^0,w,c
  9684   0046D2  5C01               	subwf	___lldiv@dividend^0,w,c
  9685   0046D4  5006               	movf	(___lldiv@divisor+1)^0,w,c
  9686   0046D6  5802               	subwfb	(___lldiv@dividend+1)^0,w,c
  9687   0046D8  5007               	movf	(___lldiv@divisor+2)^0,w,c
  9688   0046DA  5803               	subwfb	(___lldiv@dividend+2)^0,w,c
  9689   0046DC  5008               	movf	(___lldiv@divisor+3)^0,w,c
  9690   0046DE  5804               	subwfb	(___lldiv@dividend+3)^0,w,c
  9691   0046E0  A0D8               	btfss	status,0,c
  9692   0046E2  EF75  F023         	goto	u4891
  9693   0046E6  EF77  F023         	goto	u4890
  9694   0046EA                     u4891:
  9695   0046EA  EF80  F023         	goto	l5364
  9696   0046EE                     u4890:
  9697   0046EE  5005               	movf	___lldiv@divisor^0,w,c
  9698   0046F0  5E01               	subwf	___lldiv@dividend^0,f,c
  9699   0046F2  5006               	movf	(___lldiv@divisor+1)^0,w,c
  9700   0046F4  5A02               	subwfb	(___lldiv@dividend+1)^0,f,c
  9701   0046F6  5007               	movf	(___lldiv@divisor+2)^0,w,c
  9702   0046F8  5A03               	subwfb	(___lldiv@dividend+2)^0,f,c
  9703   0046FA  5008               	movf	(___lldiv@divisor+3)^0,w,c
  9704   0046FC  5A04               	subwfb	(___lldiv@dividend+3)^0,f,c
  9705   0046FE  8009               	bsf	___lldiv@quotient^0,0,c
  9706   004700                     l5364:
  9707   004700  90D8               	bcf	status,0,c
  9708   004702  3208               	rrcf	(___lldiv@divisor+3)^0,f,c
  9709   004704  3207               	rrcf	(___lldiv@divisor+2)^0,f,c
  9710   004706  3206               	rrcf	(___lldiv@divisor+1)^0,f,c
  9711   004708  3205               	rrcf	___lldiv@divisor^0,f,c
  9712   00470A  2E0D               	decfsz	___lldiv@counter^0,f,c
  9713   00470C  EF63  F023         	goto	l5356
  9714   004710                     l914:
  9715   004710  C009  F001         	movff	___lldiv@quotient,?___lldiv
  9716   004714  C00A  F002         	movff	___lldiv@quotient+1,?___lldiv+1
  9717   004718  C00B  F003         	movff	___lldiv@quotient+2,?___lldiv+2
  9718   00471C  C00C  F004         	movff	___lldiv@quotient+3,?___lldiv+3
  9719   004720  0012               	return		;funcret
  9720   004722                     __end_of___lldiv:
  9721                           	callstack 0
  9722                           
  9723 ;; *************** function ___lmul *****************
  9724 ;; Defined at:
  9725 ;;		line 15 in file "C:\Program Files\Microchip\xc8\v2.41\pic\sources\c99\common\Umul32.c"
  9726 ;; Parameters:    Size  Location     Type
  9727 ;;  multiplier      4    0[COMRAM] unsigned long 
  9728 ;;  multiplicand    4    4[COMRAM] unsigned long 
  9729 ;; Auto vars:     Size  Location     Type
  9730 ;;  product         4    8[COMRAM] unsigned long 
  9731 ;; Return value:  Size  Location     Type
  9732 ;;                  4    0[COMRAM] unsigned long 
  9733 ;; Registers used:
  9734 ;;		wreg, status,2, status,0
  9735 ;; Tracked objects:
  9736 ;;		On entry : 0/0
  9737 ;;		On exit  : 0/0
  9738 ;;		Unchanged: 0/0
  9739 ;; Data sizes:     COMRAM   BANK0   BANK1   BANK2   BANK3   BANK4   BANK5   BANK6   BANK7   BANK8   BANK9  BANK10  BANK1
      +1  BANK12  BANK13  BANK14  BANK15
  9740 ;;      Params:         8       0       0       0       0       0       0       0       0       0       0       0       
      +0       0       0       0       0
  9741 ;;      Locals:         4       0       0       0       0       0       0       0       0       0       0       0       
      +0       0       0       0       0
  9742 ;;      Temps:          0       0       0       0       0       0       0       0       0       0       0       0       
      +0       0       0       0       0
  9743 ;;      Totals:        12       0       0       0       0       0       0       0       0       0       0       0       
      +0       0       0       0       0
  9744 ;;Total ram usage:       12 bytes
  9745 ;; Hardware stack levels used: 1
  9746 ;; Hardware stack levels required when called: 2
  9747 ;; This function calls:
  9748 ;;		Nothing
  9749 ;; This function is called by:
  9750 ;;		_main
  9751 ;; This function uses a non-reentrant model
  9752 ;;
  9753                           
  9754                           	psect	text41
  9755   004E36                     __ptext41:
  9756                           	callstack 0
  9757   004E36                     ___lmul:
  9758                           	callstack 28
  9759   004E36  0E00               	movlw	0
  9760   004E38  6E09               	movwf	___lmul@product^0,c
  9761   004E3A  0E00               	movlw	0
  9762   004E3C  6E0A               	movwf	(___lmul@product+1)^0,c
  9763   004E3E  0E00               	movlw	0
  9764   004E40  6E0B               	movwf	(___lmul@product+2)^0,c
  9765   004E42  0E00               	movlw	0
  9766   004E44  6E0C               	movwf	(___lmul@product+3)^0,c
  9767   004E46                     l5714:
  9768   004E46  A001               	btfss	___lmul@multiplier^0,0,c
  9769   004E48  EF28  F027         	goto	u5361
  9770   004E4C  EF2A  F027         	goto	u5360
  9771   004E50                     u5361:
  9772   004E50  EF32  F027         	goto	l5718
  9773   004E54                     u5360:
  9774   004E54  5005               	movf	___lmul@multiplicand^0,w,c
  9775   004E56  2609               	addwf	___lmul@product^0,f,c
  9776   004E58  5006               	movf	(___lmul@multiplicand+1)^0,w,c
  9777   004E5A  220A               	addwfc	(___lmul@product+1)^0,f,c
  9778   004E5C  5007               	movf	(___lmul@multiplicand+2)^0,w,c
  9779   004E5E  220B               	addwfc	(___lmul@product+2)^0,f,c
  9780   004E60  5008               	movf	(___lmul@multiplicand+3)^0,w,c
  9781   004E62  220C               	addwfc	(___lmul@product+3)^0,f,c
  9782   004E64                     l5718:
  9783   004E64  90D8               	bcf	status,0,c
  9784   004E66  3605               	rlcf	___lmul@multiplicand^0,f,c
  9785   004E68  3606               	rlcf	(___lmul@multiplicand+1)^0,f,c
  9786   004E6A  3607               	rlcf	(___lmul@multiplicand+2)^0,f,c
  9787   004E6C  3608               	rlcf	(___lmul@multiplicand+3)^0,f,c
  9788   004E6E  90D8               	bcf	status,0,c
  9789   004E70  3204               	rrcf	(___lmul@multiplier+3)^0,f,c
  9790   004E72  3203               	rrcf	(___lmul@multiplier+2)^0,f,c
  9791   004E74  3202               	rrcf	(___lmul@multiplier+1)^0,f,c
  9792   004E76  3201               	rrcf	___lmul@multiplier^0,f,c
  9793   004E78  5001               	movf	___lmul@multiplier^0,w,c
  9794   004E7A  1002               	iorwf	(___lmul@multiplier+1)^0,w,c
  9795   004E7C  1003               	iorwf	(___lmul@multiplier+2)^0,w,c
  9796   004E7E  1004               	iorwf	(___lmul@multiplier+3)^0,w,c
  9797   004E80  A4D8               	btfss	status,2,c
  9798   004E82  EF45  F027         	goto	u5371
  9799   004E86  EF47  F027         	goto	u5370
  9800   004E8A                     u5371:
  9801   004E8A  EF23  F027         	goto	l5714
  9802   004E8E                     u5370:
  9803   004E8E  C009  F001         	movff	___lmul@product,?___lmul
  9804   004E92  C00A  F002         	movff	___lmul@product+1,?___lmul+1
  9805   004E96  C00B  F003         	movff	___lmul@product+2,?___lmul+2
  9806   004E9A  C00C  F004         	movff	___lmul@product+3,?___lmul+3
  9807   004E9E  0012               	return		;funcret
  9808   004EA0                     __end_of___lmul:
  9809                           	callstack 0
  9810                           
  9811 ;; *************** function _T_tmr4 *****************
  9812 ;; Defined at:
  9813 ;;		line 519 in file "main.c"
  9814 ;; Parameters:    Size  Location     Type
  9815 ;;  rpm             2   64[COMRAM] int 
  9816 ;; Auto vars:     Size  Location     Type
  9817 ;;  frecuencia      4   78[COMRAM] float 
  9818 ;;  periodo         4   74[COMRAM] float 
  9819 ;;  periodo_tmr     4   70[COMRAM] float 
  9820 ;;  v_registro      4   66[COMRAM] float 
  9821 ;; Return value:  Size  Location     Type
  9822 ;;                  2   64[COMRAM] int 
  9823 ;; Registers used:
  9824 ;;		wreg, status,2, status,0, prodl, prodh, cstack
  9825 ;; Tracked objects:
  9826 ;;		On entry : 0/0
  9827 ;;		On exit  : 0/0
  9828 ;;		Unchanged: 0/0
  9829 ;; Data sizes:     COMRAM   BANK0   BANK1   BANK2   BANK3   BANK4   BANK5   BANK6   BANK7   BANK8   BANK9  BANK10  BANK1
      +1  BANK12  BANK13  BANK14  BANK15
  9830 ;;      Params:         2       0       0       0       0       0       0       0       0       0       0       0       
      +0       0       0       0       0
  9831 ;;      Locals:        16       0       0       0       0       0       0       0       0       0       0       0       
      +0       0       0       0       0
  9832 ;;      Temps:          0       0       0       0       0       0       0       0       0       0       0       0       
      +0       0       0       0       0
  9833 ;;      Totals:        18       0       0       0       0       0       0       0       0       0       0       0       
      +0       0       0       0       0
  9834 ;;Total ram usage:       18 bytes
  9835 ;; Hardware stack levels used: 1
  9836 ;; Hardware stack levels required when called: 3
  9837 ;; This function calls:
  9838 ;;		___fldiv
  9839 ;;		___flmul
  9840 ;;		___fltol
  9841 ;;		___xxtofl
  9842 ;; This function is called by:
  9843 ;;		_main
  9844 ;; This function uses a non-reentrant model
  9845 ;;
  9846                           
  9847                           	psect	text42
  9848   003AB8                     __ptext42:
  9849                           	callstack 0
  9850   003AB8                     _T_tmr4:
  9851                           	callstack 27
  9852   003AB8                     
  9853                           ;main.c: 523:     frecuencia = 0;
  9854   003AB8  0E00               	movlw	0
  9855   003ABA  6E4F               	movwf	T_tmr4@frecuencia^0,c
  9856   003ABC  0E00               	movlw	0
  9857   003ABE  6E50               	movwf	(T_tmr4@frecuencia+1)^0,c
  9858   003AC0  0E00               	movlw	0
  9859   003AC2  6E51               	movwf	(T_tmr4@frecuencia+2)^0,c
  9860   003AC4  0E00               	movlw	0
  9861   003AC6  6E52               	movwf	(T_tmr4@frecuencia+3)^0,c
  9862                           
  9863                           ;main.c: 524:     periodo_tmr = 0;
  9864   003AC8  0E00               	movlw	0
  9865   003ACA  6E47               	movwf	T_tmr4@periodo_tmr^0,c
  9866   003ACC  0E00               	movlw	0
  9867   003ACE  6E48               	movwf	(T_tmr4@periodo_tmr+1)^0,c
  9868   003AD0  0E00               	movlw	0
  9869   003AD2  6E49               	movwf	(T_tmr4@periodo_tmr+2)^0,c
  9870   003AD4  0E00               	movlw	0
  9871   003AD6  6E4A               	movwf	(T_tmr4@periodo_tmr+3)^0,c
  9872                           
  9873                           ;main.c: 525:     periodo = 0;
  9874   003AD8  0E00               	movlw	0
  9875   003ADA  6E4B               	movwf	T_tmr4@periodo^0,c
  9876   003ADC  0E00               	movlw	0
  9877   003ADE  6E4C               	movwf	(T_tmr4@periodo+1)^0,c
  9878   003AE0  0E00               	movlw	0
  9879   003AE2  6E4D               	movwf	(T_tmr4@periodo+2)^0,c
  9880   003AE4  0E00               	movlw	0
  9881   003AE6  6E4E               	movwf	(T_tmr4@periodo+3)^0,c
  9882   003AE8                     
  9883                           ;main.c: 527:     frecuencia = (float) rpm * (10 / 3);
  9884   003AE8  C041  F001         	movff	T_tmr4@rpm,___xxtofl@val
  9885   003AEC  C042  F002         	movff	T_tmr4@rpm+1,___xxtofl@val+1
  9886   003AF0  0E00               	movlw	0
  9887   003AF2  BE02               	btfsc	(___xxtofl@val+1)^0,7,c
  9888   003AF4  0EFF               	movlw	-1
  9889   003AF6  6E03               	movwf	(___xxtofl@val+2)^0,c
  9890   003AF8  6E04               	movwf	(___xxtofl@val+3)^0,c
  9891   003AFA  0E01               	movlw	1
  9892   003AFC  ECB6  F01B         	call	___xxtofl
  9893   003B00  C001  F028         	movff	?___xxtofl,___flmul@b
  9894   003B04  C002  F029         	movff	?___xxtofl+1,___flmul@b+1
  9895   003B08  C003  F02A         	movff	?___xxtofl+2,___flmul@b+2
  9896   003B0C  C004  F02B         	movff	?___xxtofl+3,___flmul@b+3
  9897   003B10  0E00               	movlw	0
  9898   003B12  6E2C               	movwf	___flmul@a^0,c
  9899   003B14  0E00               	movlw	0
  9900   003B16  6E2D               	movwf	(___flmul@a+1)^0,c
  9901   003B18  0E40               	movlw	64
  9902   003B1A  6E2E               	movwf	(___flmul@a+2)^0,c
  9903   003B1C  0E40               	movlw	64
  9904   003B1E  6E2F               	movwf	(___flmul@a+3)^0,c
  9905   003B20  EC0D  F015         	call	___flmul	;wreg free
  9906   003B24  C028  F04F         	movff	?___flmul,T_tmr4@frecuencia
  9907   003B28  C029  F050         	movff	?___flmul+1,T_tmr4@frecuencia+1
  9908   003B2C  C02A  F051         	movff	?___flmul+2,T_tmr4@frecuencia+2
  9909   003B30  C02B  F052         	movff	?___flmul+3,T_tmr4@frecuencia+3
  9910   003B34                     
  9911                           ;main.c: 528:     periodo = (1 / frecuencia) * 1000000;
  9912   003B34  C04F  F013         	movff	T_tmr4@frecuencia,___fldiv@a
  9913   003B38  C050  F014         	movff	T_tmr4@frecuencia+1,___fldiv@a+1
  9914   003B3C  C051  F015         	movff	T_tmr4@frecuencia+2,___fldiv@a+2
  9915   003B40  C052  F016         	movff	T_tmr4@frecuencia+3,___fldiv@a+3
  9916   003B44  0E00               	movlw	0
  9917   003B46  6E0F               	movwf	___fldiv@b^0,c
  9918   003B48  0E00               	movlw	0
  9919   003B4A  6E10               	movwf	(___fldiv@b+1)^0,c
  9920   003B4C  0E80               	movlw	128
  9921   003B4E  6E11               	movwf	(___fldiv@b+2)^0,c
  9922   003B50  0E3F               	movlw	63
  9923   003B52  6E12               	movwf	(___fldiv@b+3)^0,c
  9924   003B54  EC34  F017         	call	___fldiv	;wreg free
  9925   003B58  C00F  F028         	movff	?___fldiv,___flmul@b
  9926   003B5C  C010  F029         	movff	?___fldiv+1,___flmul@b+1
  9927   003B60  C011  F02A         	movff	?___fldiv+2,___flmul@b+2
  9928   003B64  C012  F02B         	movff	?___fldiv+3,___flmul@b+3
  9929   003B68  0E00               	movlw	0
  9930   003B6A  6E2C               	movwf	___flmul@a^0,c
  9931   003B6C  0E24               	movlw	36
  9932   003B6E  6E2D               	movwf	(___flmul@a+1)^0,c
  9933   003B70  0E74               	movlw	116
  9934   003B72  6E2E               	movwf	(___flmul@a+2)^0,c
  9935   003B74  0E49               	movlw	73
  9936   003B76  6E2F               	movwf	(___flmul@a+3)^0,c
  9937   003B78  EC0D  F015         	call	___flmul	;wreg free
  9938   003B7C  C028  F04B         	movff	?___flmul,T_tmr4@periodo
  9939   003B80  C029  F04C         	movff	?___flmul+1,T_tmr4@periodo+1
  9940   003B84  C02A  F04D         	movff	?___flmul+2,T_tmr4@periodo+2
  9941   003B88  C02B  F04E         	movff	?___flmul+3,T_tmr4@periodo+3
  9942   003B8C                     
  9943                           ;main.c: 529:     periodo_tmr = periodo / 2;
  9944   003B8C  C04B  F00F         	movff	T_tmr4@periodo,___fldiv@b
  9945   003B90  C04C  F010         	movff	T_tmr4@periodo+1,___fldiv@b+1
  9946   003B94  C04D  F011         	movff	T_tmr4@periodo+2,___fldiv@b+2
  9947   003B98  C04E  F012         	movff	T_tmr4@periodo+3,___fldiv@b+3
  9948   003B9C  0E00               	movlw	0
  9949   003B9E  6E13               	movwf	___fldiv@a^0,c
  9950   003BA0  0E00               	movlw	0
  9951   003BA2  6E14               	movwf	(___fldiv@a+1)^0,c
  9952   003BA4  0E00               	movlw	0
  9953   003BA6  6E15               	movwf	(___fldiv@a+2)^0,c
  9954   003BA8  0E40               	movlw	64
  9955   003BAA  6E16               	movwf	(___fldiv@a+3)^0,c
  9956   003BAC  EC34  F017         	call	___fldiv	;wreg free
  9957   003BB0  C00F  F047         	movff	?___fldiv,T_tmr4@periodo_tmr
  9958   003BB4  C010  F048         	movff	?___fldiv+1,T_tmr4@periodo_tmr+1
  9959   003BB8  C011  F049         	movff	?___fldiv+2,T_tmr4@periodo_tmr+2
  9960   003BBC  C012  F04A         	movff	?___fldiv+3,T_tmr4@periodo_tmr+3
  9961   003BC0                     
  9962                           ;main.c: 530:     v_registro = (periodo_tmr * 255) / 3072;
  9963   003BC0  0E00               	movlw	0
  9964   003BC2  6E2C               	movwf	___flmul@a^0,c
  9965   003BC4  0E00               	movlw	0
  9966   003BC6  6E2D               	movwf	(___flmul@a+1)^0,c
  9967   003BC8  0E7F               	movlw	127
  9968   003BCA  6E2E               	movwf	(___flmul@a+2)^0,c
  9969   003BCC  0E43               	movlw	67
  9970   003BCE  6E2F               	movwf	(___flmul@a+3)^0,c
  9971   003BD0  C047  F028         	movff	T_tmr4@periodo_tmr,___flmul@b
  9972   003BD4  C048  F029         	movff	T_tmr4@periodo_tmr+1,___flmul@b+1
  9973   003BD8  C049  F02A         	movff	T_tmr4@periodo_tmr+2,___flmul@b+2
  9974   003BDC  C04A  F02B         	movff	T_tmr4@periodo_tmr+3,___flmul@b+3
  9975   003BE0  EC0D  F015         	call	___flmul	;wreg free
  9976   003BE4  C028  F00F         	movff	?___flmul,___fldiv@b
  9977   003BE8  C029  F010         	movff	?___flmul+1,___fldiv@b+1
  9978   003BEC  C02A  F011         	movff	?___flmul+2,___fldiv@b+2
  9979   003BF0  C02B  F012         	movff	?___flmul+3,___fldiv@b+3
  9980   003BF4  0E00               	movlw	0
  9981   003BF6  6E13               	movwf	___fldiv@a^0,c
  9982   003BF8  0E00               	movlw	0
  9983   003BFA  6E14               	movwf	(___fldiv@a+1)^0,c
  9984   003BFC  0E40               	movlw	64
  9985   003BFE  6E15               	movwf	(___fldiv@a+2)^0,c
  9986   003C00  0E45               	movlw	69
  9987   003C02  6E16               	movwf	(___fldiv@a+3)^0,c
  9988   003C04  EC34  F017         	call	___fldiv	;wreg free
  9989   003C08  C00F  F043         	movff	?___fldiv,T_tmr4@v_registro
  9990   003C0C  C010  F044         	movff	?___fldiv+1,T_tmr4@v_registro+1
  9991   003C10  C011  F045         	movff	?___fldiv+2,T_tmr4@v_registro+2
  9992   003C14  C012  F046         	movff	?___fldiv+3,T_tmr4@v_registro+3
  9993   003C18                     
  9994                           ;main.c: 532:     return (int) v_registro;
  9995   003C18  C043  F001         	movff	T_tmr4@v_registro,___fltol@f1
  9996   003C1C  C044  F002         	movff	T_tmr4@v_registro+1,___fltol@f1+1
  9997   003C20  C045  F003         	movff	T_tmr4@v_registro+2,___fltol@f1+2
  9998   003C24  C046  F004         	movff	T_tmr4@v_registro+3,___fltol@f1+3
  9999   003C28  EC53  F01F         	call	___fltol	;wreg free
 10000   003C2C  C001  F041         	movff	?___fltol,?_T_tmr4
 10001   003C30  C002  F042         	movff	?___fltol+1,?_T_tmr4+1
 10002   003C34  0012               	return		;funcret
 10003   003C36                     __end_of_T_tmr4:
 10004                           	callstack 0
 10005                           
 10006 ;; *************** function ___xxtofl *****************
 10007 ;; Defined at:
 10008 ;;		line 10 in file "C:\Program Files\Microchip\xc8\v2.41\pic\sources\c99\common\xxtofl.c"
 10009 ;; Parameters:    Size  Location     Type
 10010 ;;  sign            1    wreg     unsigned char 
 10011 ;;  val             4    0[COMRAM] long 
 10012 ;; Auto vars:     Size  Location     Type
 10013 ;;  sign            1    8[COMRAM] unsigned char 
 10014 ;;  arg             4   10[COMRAM] unsigned long 
 10015 ;;  exp             1    9[COMRAM] unsigned char 
 10016 ;; Return value:  Size  Location     Type
 10017 ;;                  4    0[COMRAM] unsigned char 
 10018 ;; Registers used:
 10019 ;;		wreg, status,2, status,0
 10020 ;; Tracked objects:
 10021 ;;		On entry : 0/0
 10022 ;;		On exit  : 0/0
 10023 ;;		Unchanged: 0/0
 10024 ;; Data sizes:     COMRAM   BANK0   BANK1   BANK2   BANK3   BANK4   BANK5   BANK6   BANK7   BANK8   BANK9  BANK10  BANK1
      +1  BANK12  BANK13  BANK14  BANK15
 10025 ;;      Params:         4       0       0       0       0       0       0       0       0       0       0       0       
      +0       0       0       0       0
 10026 ;;      Locals:         6       0       0       0       0       0       0       0       0       0       0       0       
      +0       0       0       0       0
 10027 ;;      Temps:          4       0       0       0       0       0       0       0       0       0       0       0       
      +0       0       0       0       0
 10028 ;;      Totals:        14       0       0       0       0       0       0       0       0       0       0       0       
      +0       0       0       0       0
 10029 ;;Total ram usage:       14 bytes
 10030 ;; Hardware stack levels used: 1
 10031 ;; Hardware stack levels required when called: 2
 10032 ;; This function calls:
 10033 ;;		Nothing
 10034 ;; This function is called by:
 10035 ;;		_main
 10036 ;;		_T_tmr4
 10037 ;; This function uses a non-reentrant model
 10038 ;;
 10039                           
 10040                           	psect	text43
 10041   00376C                     __ptext43:
 10042                           	callstack 0
 10043   00376C                     ___xxtofl:
 10044                           	callstack 28
 10045                           
 10046                           ;incstack = 0
 10047                           ;___xxtofl@sign stored from wreg
 10048   00376C  6E09               	movwf	___xxtofl@sign^0,c
 10049   00376E  5009               	movf	___xxtofl@sign^0,w,c
 10050   003770  B4D8               	btfsc	status,2,c
 10051   003772  EFBD  F01B         	goto	u4901
 10052   003776  EFBF  F01B         	goto	u4900
 10053   00377A                     u4901:
 10054   00377A  EFE1  F01B         	goto	l1542
 10055   00377E                     u4900:
 10056   00377E  BE04               	btfsc	(___xxtofl@val+3)^0,7,c
 10057   003780  EFC6  F01B         	goto	u4910
 10058   003784  EFC4  F01B         	goto	u4911
 10059   003788                     u4911:
 10060   003788  EFE1  F01B         	goto	l1542
 10061   00378C                     u4910:
 10062   00378C  C001  F005         	movff	___xxtofl@val,??___xxtofl
 10063   003790  C002  F006         	movff	___xxtofl@val+1,??___xxtofl+1
 10064   003794  C003  F007         	movff	___xxtofl@val+2,??___xxtofl+2
 10065   003798  C004  F008         	movff	___xxtofl@val+3,??___xxtofl+3
 10066   00379C  1E05               	comf	??___xxtofl^0,f,c
 10067   00379E  1E06               	comf	(??___xxtofl+1)^0,f,c
 10068   0037A0  1E07               	comf	(??___xxtofl+2)^0,f,c
 10069   0037A2  1E08               	comf	(??___xxtofl+3)^0,f,c
 10070   0037A4  2A05               	incf	??___xxtofl^0,f,c
 10071   0037A6  0E00               	movlw	0
 10072   0037A8  2206               	addwfc	(??___xxtofl+1)^0,f,c
 10073   0037AA  2207               	addwfc	(??___xxtofl+2)^0,f,c
 10074   0037AC  2208               	addwfc	(??___xxtofl+3)^0,f,c
 10075   0037AE  C005  F00B         	movff	??___xxtofl,___xxtofl@arg
 10076   0037B2  C006  F00C         	movff	??___xxtofl+1,___xxtofl@arg+1
 10077   0037B6  C007  F00D         	movff	??___xxtofl+2,___xxtofl@arg+2
 10078   0037BA  C008  F00E         	movff	??___xxtofl+3,___xxtofl@arg+3
 10079   0037BE  EFE9  F01B         	goto	l5374
 10080   0037C2                     l1542:
 10081   0037C2  C001  F00B         	movff	___xxtofl@val,___xxtofl@arg
 10082   0037C6  C002  F00C         	movff	___xxtofl@val+1,___xxtofl@arg+1
 10083   0037CA  C003  F00D         	movff	___xxtofl@val+2,___xxtofl@arg+2
 10084   0037CE  C004  F00E         	movff	___xxtofl@val+3,___xxtofl@arg+3
 10085   0037D2                     l5374:
 10086   0037D2  5001               	movf	___xxtofl@val^0,w,c
 10087   0037D4  1002               	iorwf	(___xxtofl@val+1)^0,w,c
 10088   0037D6  1003               	iorwf	(___xxtofl@val+2)^0,w,c
 10089   0037D8  1004               	iorwf	(___xxtofl@val+3)^0,w,c
 10090   0037DA  A4D8               	btfss	status,2,c
 10091   0037DC  EFF2  F01B         	goto	u4921
 10092   0037E0  EFF4  F01B         	goto	u4920
 10093   0037E4                     u4921:
 10094   0037E4  EFFE  F01B         	goto	l5380
 10095   0037E8                     u4920:
 10096   0037E8  0E00               	movlw	0
 10097   0037EA  6E01               	movwf	?___xxtofl^0,c
 10098   0037EC  0E00               	movlw	0
 10099   0037EE  6E02               	movwf	(?___xxtofl+1)^0,c
 10100   0037F0  0E00               	movlw	0
 10101   0037F2  6E03               	movwf	(?___xxtofl+2)^0,c
 10102   0037F4  0E00               	movlw	0
 10103   0037F6  6E04               	movwf	(?___xxtofl+3)^0,c
 10104   0037F8  EF8F  F01C         	goto	l1545
 10105   0037FC                     l5380:
 10106   0037FC  0E96               	movlw	150
 10107   0037FE  6E0A               	movwf	___xxtofl@exp^0,c
 10108   003800  EF08  F01C         	goto	l5384
 10109   003804                     l5382:
 10110   003804  2A0A               	incf	___xxtofl@exp^0,f,c
 10111   003806  90D8               	bcf	status,0,c
 10112   003808  320E               	rrcf	(___xxtofl@arg+3)^0,f,c
 10113   00380A  320D               	rrcf	(___xxtofl@arg+2)^0,f,c
 10114   00380C  320C               	rrcf	(___xxtofl@arg+1)^0,f,c
 10115   00380E  320B               	rrcf	___xxtofl@arg^0,f,c
 10116   003810                     l5384:
 10117   003810  0E00               	movlw	0
 10118   003812  140B               	andwf	___xxtofl@arg^0,w,c
 10119   003814  6E05               	movwf	??___xxtofl^0,c
 10120   003816  0E00               	movlw	0
 10121   003818  140C               	andwf	(___xxtofl@arg+1)^0,w,c
 10122   00381A  6E06               	movwf	(??___xxtofl+1)^0,c
 10123   00381C  0E00               	movlw	0
 10124   00381E  140D               	andwf	(___xxtofl@arg+2)^0,w,c
 10125   003820  6E07               	movwf	(??___xxtofl+2)^0,c
 10126   003822  0EFE               	movlw	254
 10127   003824  140E               	andwf	(___xxtofl@arg+3)^0,w,c
 10128   003826  6E08               	movwf	(??___xxtofl+3)^0,c
 10129   003828  5005               	movf	??___xxtofl^0,w,c
 10130   00382A  1006               	iorwf	(??___xxtofl+1)^0,w,c
 10131   00382C  1007               	iorwf	(??___xxtofl+2)^0,w,c
 10132   00382E  1008               	iorwf	(??___xxtofl+3)^0,w,c
 10133   003830  A4D8               	btfss	status,2,c
 10134   003832  EF1D  F01C         	goto	u4931
 10135   003836  EF1F  F01C         	goto	u4930
 10136   00383A                     u4931:
 10137   00383A  EF02  F01C         	goto	l5382
 10138   00383E                     u4930:
 10139   00383E  EF2D  F01C         	goto	l1549
 10140   003842                     l5386:
 10141   003842  2A0A               	incf	___xxtofl@exp^0,f,c
 10142   003844  0E01               	movlw	1
 10143   003846  260B               	addwf	___xxtofl@arg^0,f,c
 10144   003848  0E00               	movlw	0
 10145   00384A  220C               	addwfc	(___xxtofl@arg+1)^0,f,c
 10146   00384C  220D               	addwfc	(___xxtofl@arg+2)^0,f,c
 10147   00384E  220E               	addwfc	(___xxtofl@arg+3)^0,f,c
 10148   003850  90D8               	bcf	status,0,c
 10149   003852  320E               	rrcf	(___xxtofl@arg+3)^0,f,c
 10150   003854  320D               	rrcf	(___xxtofl@arg+2)^0,f,c
 10151   003856  320C               	rrcf	(___xxtofl@arg+1)^0,f,c
 10152   003858  320B               	rrcf	___xxtofl@arg^0,f,c
 10153   00385A                     l1549:
 10154   00385A  0E00               	movlw	0
 10155   00385C  140B               	andwf	___xxtofl@arg^0,w,c
 10156   00385E  6E05               	movwf	??___xxtofl^0,c
 10157   003860  0E00               	movlw	0
 10158   003862  140C               	andwf	(___xxtofl@arg+1)^0,w,c
 10159   003864  6E06               	movwf	(??___xxtofl+1)^0,c
 10160   003866  0E00               	movlw	0
 10161   003868  140D               	andwf	(___xxtofl@arg+2)^0,w,c
 10162   00386A  6E07               	movwf	(??___xxtofl+2)^0,c
 10163   00386C  0EFF               	movlw	255
 10164   00386E  140E               	andwf	(___xxtofl@arg+3)^0,w,c
 10165   003870  6E08               	movwf	(??___xxtofl+3)^0,c
 10166   003872  5005               	movf	??___xxtofl^0,w,c
 10167   003874  1006               	iorwf	(??___xxtofl+1)^0,w,c
 10168   003876  1007               	iorwf	(??___xxtofl+2)^0,w,c
 10169   003878  1008               	iorwf	(??___xxtofl+3)^0,w,c
 10170   00387A  A4D8               	btfss	status,2,c
 10171   00387C  EF42  F01C         	goto	u4941
 10172   003880  EF44  F01C         	goto	u4940
 10173   003884                     u4941:
 10174   003884  EF21  F01C         	goto	l5386
 10175   003888                     u4940:
 10176   003888  EF4C  F01C         	goto	l5394
 10177   00388C                     l5392:
 10178   00388C  060A               	decf	___xxtofl@exp^0,f,c
 10179   00388E  90D8               	bcf	status,0,c
 10180   003890  360B               	rlcf	___xxtofl@arg^0,f,c
 10181   003892  360C               	rlcf	(___xxtofl@arg+1)^0,f,c
 10182   003894  360D               	rlcf	(___xxtofl@arg+2)^0,f,c
 10183   003896  360E               	rlcf	(___xxtofl@arg+3)^0,f,c
 10184   003898                     l5394:
 10185   003898  BE0D               	btfsc	(___xxtofl@arg+2)^0,7,c
 10186   00389A  EF51  F01C         	goto	u4951
 10187   00389E  EF53  F01C         	goto	u4950
 10188   0038A2                     u4951:
 10189   0038A2  EF5B  F01C         	goto	l1556
 10190   0038A6                     u4950:
 10191   0038A6  0E02               	movlw	2
 10192   0038A8  600A               	cpfslt	___xxtofl@exp^0,c
 10193   0038AA  EF59  F01C         	goto	u4961
 10194   0038AE  EF5B  F01C         	goto	u4960
 10195   0038B2                     u4961:
 10196   0038B2  EF46  F01C         	goto	l5392
 10197   0038B6                     u4960:
 10198   0038B6                     l1556:
 10199   0038B6  B00A               	btfsc	___xxtofl@exp^0,0,c
 10200   0038B8  EF60  F01C         	goto	u4971
 10201   0038BC  EF62  F01C         	goto	u4970
 10202   0038C0                     u4971:
 10203   0038C0  EF63  F01C         	goto	l5400
 10204   0038C4                     u4970:
 10205   0038C4  9E0D               	bcf	(___xxtofl@arg+2)^0,7,c
 10206   0038C6                     l5400:
 10207   0038C6  90D8               	bcf	status,0,c
 10208   0038C8  320A               	rrcf	___xxtofl@exp^0,f,c
 10209   0038CA  C00A  F005         	movff	___xxtofl@exp,??___xxtofl
 10210   0038CE  6A06               	clrf	(??___xxtofl+1)^0,c
 10211   0038D0  6A07               	clrf	(??___xxtofl+2)^0,c
 10212   0038D2  6A08               	clrf	(??___xxtofl+3)^0,c
 10213   0038D4  C005  F008         	movff	??___xxtofl,??___xxtofl+3
 10214   0038D8  6A07               	clrf	(??___xxtofl+2)^0,c
 10215   0038DA  6A06               	clrf	(??___xxtofl+1)^0,c
 10216   0038DC  6A05               	clrf	??___xxtofl^0,c
 10217   0038DE  5005               	movf	??___xxtofl^0,w,c
 10218   0038E0  120B               	iorwf	___xxtofl@arg^0,f,c
 10219   0038E2  5006               	movf	(??___xxtofl+1)^0,w,c
 10220   0038E4  120C               	iorwf	(___xxtofl@arg+1)^0,f,c
 10221   0038E6  5007               	movf	(??___xxtofl+2)^0,w,c
 10222   0038E8  120D               	iorwf	(___xxtofl@arg+2)^0,f,c
 10223   0038EA  5008               	movf	(??___xxtofl+3)^0,w,c
 10224   0038EC  120E               	iorwf	(___xxtofl@arg+3)^0,f,c
 10225   0038EE  5009               	movf	___xxtofl@sign^0,w,c
 10226   0038F0  B4D8               	btfsc	status,2,c
 10227   0038F2  EF7D  F01C         	goto	u4981
 10228   0038F6  EF7F  F01C         	goto	u4980
 10229   0038FA                     u4981:
 10230   0038FA  EF87  F01C         	goto	l5410
 10231   0038FE                     u4980:
 10232   0038FE  BE04               	btfsc	(___xxtofl@val+3)^0,7,c
 10233   003900  EF86  F01C         	goto	u4990
 10234   003904  EF84  F01C         	goto	u4991
 10235   003908                     u4991:
 10236   003908  EF87  F01C         	goto	l5410
 10237   00390C                     u4990:
 10238   00390C  8E0E               	bsf	(___xxtofl@arg+3)^0,7,c
 10239   00390E                     l5410:
 10240   00390E  C00B  F001         	movff	___xxtofl@arg,?___xxtofl
 10241   003912  C00C  F002         	movff	___xxtofl@arg+1,?___xxtofl+1
 10242   003916  C00D  F003         	movff	___xxtofl@arg+2,?___xxtofl+2
 10243   00391A  C00E  F004         	movff	___xxtofl@arg+3,?___xxtofl+3
 10244   00391E                     l1545:
 10245   00391E  0012               	return		;funcret
 10246   003920                     __end_of___xxtofl:
 10247                           	callstack 0
 10248                           
 10249 ;; *************** function _T_tmr2 *****************
 10250 ;; Defined at:
 10251 ;;		line 504 in file "main.c"
 10252 ;; Parameters:    Size  Location     Type
 10253 ;;  mm_s            4   64[COMRAM] float 
 10254 ;; Auto vars:     Size  Location     Type
 10255 ;;  frecuencia      4   80[COMRAM] float 
 10256 ;;  periodo_tmr     4   76[COMRAM] float 
 10257 ;;  v_registro      4   72[COMRAM] float 
 10258 ;;  periodo         4   68[COMRAM] float 
 10259 ;; Return value:  Size  Location     Type
 10260 ;;                  2   64[COMRAM] int 
 10261 ;; Registers used:
 10262 ;;		wreg, status,2, status,0, prodl, prodh, cstack
 10263 ;; Tracked objects:
 10264 ;;		On entry : 0/0
 10265 ;;		On exit  : 0/0
 10266 ;;		Unchanged: 0/0
 10267 ;; Data sizes:     COMRAM   BANK0   BANK1   BANK2   BANK3   BANK4   BANK5   BANK6   BANK7   BANK8   BANK9  BANK10  BANK1
      +1  BANK12  BANK13  BANK14  BANK15
 10268 ;;      Params:         4       0       0       0       0       0       0       0       0       0       0       0       
      +0       0       0       0       0
 10269 ;;      Locals:        16       0       0       0       0       0       0       0       0       0       0       0       
      +0       0       0       0       0
 10270 ;;      Temps:          0       0       0       0       0       0       0       0       0       0       0       0       
      +0       0       0       0       0
 10271 ;;      Totals:        20       0       0       0       0       0       0       0       0       0       0       0       
      +0       0       0       0       0
 10272 ;;Total ram usage:       20 bytes
 10273 ;; Hardware stack levels used: 1
 10274 ;; Hardware stack levels required when called: 3
 10275 ;; This function calls:
 10276 ;;		___fldiv
 10277 ;;		___flmul
 10278 ;;		___fltol
 10279 ;; This function is called by:
 10280 ;;		_main
 10281 ;; This function uses a non-reentrant model
 10282 ;;
 10283                           
 10284                           	psect	text44
 10285   003C36                     __ptext44:
 10286                           	callstack 0
 10287   003C36                     _T_tmr2:
 10288                           	callstack 27
 10289   003C36                     
 10290                           ;main.c: 508:     frecuencia = 0;
 10291   003C36  0E00               	movlw	0
 10292   003C38  6E51               	movwf	T_tmr2@frecuencia^0,c
 10293   003C3A  0E00               	movlw	0
 10294   003C3C  6E52               	movwf	(T_tmr2@frecuencia+1)^0,c
 10295   003C3E  0E00               	movlw	0
 10296   003C40  6E53               	movwf	(T_tmr2@frecuencia+2)^0,c
 10297   003C42  0E00               	movlw	0
 10298   003C44  6E54               	movwf	(T_tmr2@frecuencia+3)^0,c
 10299                           
 10300                           ;main.c: 509:     periodo_tmr = 0;
 10301   003C46  0E00               	movlw	0
 10302   003C48  6E4D               	movwf	T_tmr2@periodo_tmr^0,c
 10303   003C4A  0E00               	movlw	0
 10304   003C4C  6E4E               	movwf	(T_tmr2@periodo_tmr+1)^0,c
 10305   003C4E  0E00               	movlw	0
 10306   003C50  6E4F               	movwf	(T_tmr2@periodo_tmr+2)^0,c
 10307   003C52  0E00               	movlw	0
 10308   003C54  6E50               	movwf	(T_tmr2@periodo_tmr+3)^0,c
 10309   003C56                     
 10310                           ;main.c: 511:     frecuencia = mm_s * 100;
 10311   003C56  C041  F028         	movff	T_tmr2@mm_s,___flmul@b
 10312   003C5A  C042  F029         	movff	T_tmr2@mm_s+1,___flmul@b+1
 10313   003C5E  C043  F02A         	movff	T_tmr2@mm_s+2,___flmul@b+2
 10314   003C62  C044  F02B         	movff	T_tmr2@mm_s+3,___flmul@b+3
 10315   003C66  0E00               	movlw	0
 10316   003C68  6E2C               	movwf	___flmul@a^0,c
 10317   003C6A  0E00               	movlw	0
 10318   003C6C  6E2D               	movwf	(___flmul@a+1)^0,c
 10319   003C6E  0EC8               	movlw	200
 10320   003C70  6E2E               	movwf	(___flmul@a+2)^0,c
 10321   003C72  0E42               	movlw	66
 10322   003C74  6E2F               	movwf	(___flmul@a+3)^0,c
 10323   003C76  EC0D  F015         	call	___flmul	;wreg free
 10324   003C7A  C028  F051         	movff	?___flmul,T_tmr2@frecuencia
 10325   003C7E  C029  F052         	movff	?___flmul+1,T_tmr2@frecuencia+1
 10326   003C82  C02A  F053         	movff	?___flmul+2,T_tmr2@frecuencia+2
 10327   003C86  C02B  F054         	movff	?___flmul+3,T_tmr2@frecuencia+3
 10328   003C8A                     
 10329                           ;main.c: 512:     periodo = (1 / frecuencia) * 1000000;
 10330   003C8A  C051  F013         	movff	T_tmr2@frecuencia,___fldiv@a
 10331   003C8E  C052  F014         	movff	T_tmr2@frecuencia+1,___fldiv@a+1
 10332   003C92  C053  F015         	movff	T_tmr2@frecuencia+2,___fldiv@a+2
 10333   003C96  C054  F016         	movff	T_tmr2@frecuencia+3,___fldiv@a+3
 10334   003C9A  0E00               	movlw	0
 10335   003C9C  6E0F               	movwf	___fldiv@b^0,c
 10336   003C9E  0E00               	movlw	0
 10337   003CA0  6E10               	movwf	(___fldiv@b+1)^0,c
 10338   003CA2  0E80               	movlw	128
 10339   003CA4  6E11               	movwf	(___fldiv@b+2)^0,c
 10340   003CA6  0E3F               	movlw	63
 10341   003CA8  6E12               	movwf	(___fldiv@b+3)^0,c
 10342   003CAA  EC34  F017         	call	___fldiv	;wreg free
 10343   003CAE  C00F  F028         	movff	?___fldiv,___flmul@b
 10344   003CB2  C010  F029         	movff	?___fldiv+1,___flmul@b+1
 10345   003CB6  C011  F02A         	movff	?___fldiv+2,___flmul@b+2
 10346   003CBA  C012  F02B         	movff	?___fldiv+3,___flmul@b+3
 10347   003CBE  0E00               	movlw	0
 10348   003CC0  6E2C               	movwf	___flmul@a^0,c
 10349   003CC2  0E24               	movlw	36
 10350   003CC4  6E2D               	movwf	(___flmul@a+1)^0,c
 10351   003CC6  0E74               	movlw	116
 10352   003CC8  6E2E               	movwf	(___flmul@a+2)^0,c
 10353   003CCA  0E49               	movlw	73
 10354   003CCC  6E2F               	movwf	(___flmul@a+3)^0,c
 10355   003CCE  EC0D  F015         	call	___flmul	;wreg free
 10356   003CD2  C028  F045         	movff	?___flmul,T_tmr2@periodo
 10357   003CD6  C029  F046         	movff	?___flmul+1,T_tmr2@periodo+1
 10358   003CDA  C02A  F047         	movff	?___flmul+2,T_tmr2@periodo+2
 10359   003CDE  C02B  F048         	movff	?___flmul+3,T_tmr2@periodo+3
 10360   003CE2                     
 10361                           ;main.c: 513:     periodo_tmr = periodo / 2;
 10362   003CE2  C045  F00F         	movff	T_tmr2@periodo,___fldiv@b
 10363   003CE6  C046  F010         	movff	T_tmr2@periodo+1,___fldiv@b+1
 10364   003CEA  C047  F011         	movff	T_tmr2@periodo+2,___fldiv@b+2
 10365   003CEE  C048  F012         	movff	T_tmr2@periodo+3,___fldiv@b+3
 10366   003CF2  0E00               	movlw	0
 10367   003CF4  6E13               	movwf	___fldiv@a^0,c
 10368   003CF6  0E00               	movlw	0
 10369   003CF8  6E14               	movwf	(___fldiv@a+1)^0,c
 10370   003CFA  0E00               	movlw	0
 10371   003CFC  6E15               	movwf	(___fldiv@a+2)^0,c
 10372   003CFE  0E40               	movlw	64
 10373   003D00  6E16               	movwf	(___fldiv@a+3)^0,c
 10374   003D02  EC34  F017         	call	___fldiv	;wreg free
 10375   003D06  C00F  F04D         	movff	?___fldiv,T_tmr2@periodo_tmr
 10376   003D0A  C010  F04E         	movff	?___fldiv+1,T_tmr2@periodo_tmr+1
 10377   003D0E  C011  F04F         	movff	?___fldiv+2,T_tmr2@periodo_tmr+2
 10378   003D12  C012  F050         	movff	?___fldiv+3,T_tmr2@periodo_tmr+3
 10379   003D16                     
 10380                           ;main.c: 514:     v_registro = (periodo_tmr * 255) / 14336;
 10381   003D16  0E00               	movlw	0
 10382   003D18  6E2C               	movwf	___flmul@a^0,c
 10383   003D1A  0E00               	movlw	0
 10384   003D1C  6E2D               	movwf	(___flmul@a+1)^0,c
 10385   003D1E  0E7F               	movlw	127
 10386   003D20  6E2E               	movwf	(___flmul@a+2)^0,c
 10387   003D22  0E43               	movlw	67
 10388   003D24  6E2F               	movwf	(___flmul@a+3)^0,c
 10389   003D26  C04D  F028         	movff	T_tmr2@periodo_tmr,___flmul@b
 10390   003D2A  C04E  F029         	movff	T_tmr2@periodo_tmr+1,___flmul@b+1
 10391   003D2E  C04F  F02A         	movff	T_tmr2@periodo_tmr+2,___flmul@b+2
 10392   003D32  C050  F02B         	movff	T_tmr2@periodo_tmr+3,___flmul@b+3
 10393   003D36  EC0D  F015         	call	___flmul	;wreg free
 10394   003D3A  C028  F00F         	movff	?___flmul,___fldiv@b
 10395   003D3E  C029  F010         	movff	?___flmul+1,___fldiv@b+1
 10396   003D42  C02A  F011         	movff	?___flmul+2,___fldiv@b+2
 10397   003D46  C02B  F012         	movff	?___flmul+3,___fldiv@b+3
 10398   003D4A  0E00               	movlw	0
 10399   003D4C  6E13               	movwf	___fldiv@a^0,c
 10400   003D4E  0E00               	movlw	0
 10401   003D50  6E14               	movwf	(___fldiv@a+1)^0,c
 10402   003D52  0E60               	movlw	96
 10403   003D54  6E15               	movwf	(___fldiv@a+2)^0,c
 10404   003D56  0E46               	movlw	70
 10405   003D58  6E16               	movwf	(___fldiv@a+3)^0,c
 10406   003D5A  EC34  F017         	call	___fldiv	;wreg free
 10407   003D5E  C00F  F049         	movff	?___fldiv,T_tmr2@v_registro
 10408   003D62  C010  F04A         	movff	?___fldiv+1,T_tmr2@v_registro+1
 10409   003D66  C011  F04B         	movff	?___fldiv+2,T_tmr2@v_registro+2
 10410   003D6A  C012  F04C         	movff	?___fldiv+3,T_tmr2@v_registro+3
 10411   003D6E                     
 10412                           ;main.c: 516:     return (int) v_registro;
 10413   003D6E  C049  F001         	movff	T_tmr2@v_registro,___fltol@f1
 10414   003D72  C04A  F002         	movff	T_tmr2@v_registro+1,___fltol@f1+1
 10415   003D76  C04B  F003         	movff	T_tmr2@v_registro+2,___fltol@f1+2
 10416   003D7A  C04C  F004         	movff	T_tmr2@v_registro+3,___fltol@f1+3
 10417   003D7E  EC53  F01F         	call	___fltol	;wreg free
 10418   003D82  C001  F041         	movff	?___fltol,?_T_tmr2
 10419   003D86  C002  F042         	movff	?___fltol+1,?_T_tmr2+1
 10420   003D8A  0012               	return		;funcret
 10421   003D8C                     __end_of_T_tmr2:
 10422                           	callstack 0
 10423                           
 10424 ;; *************** function ___fltol *****************
 10425 ;; Defined at:
 10426 ;;		line 43 in file "C:\Program Files\Microchip\xc8\v2.41\pic\sources\c99\common\fltol.c"
 10427 ;; Parameters:    Size  Location     Type
 10428 ;;  f1              4    0[COMRAM] int 
 10429 ;; Auto vars:     Size  Location     Type
 10430 ;;  exp1            1    9[COMRAM] unsigned char 
 10431 ;;  sign1           1    8[COMRAM] unsigned char 
 10432 ;; Return value:  Size  Location     Type
 10433 ;;                  4    0[COMRAM] long 
 10434 ;; Registers used:
 10435 ;;		wreg, status,2, status,0
 10436 ;; Tracked objects:
 10437 ;;		On entry : 0/0
 10438 ;;		On exit  : 0/0
 10439 ;;		Unchanged: 0/0
 10440 ;; Data sizes:     COMRAM   BANK0   BANK1   BANK2   BANK3   BANK4   BANK5   BANK6   BANK7   BANK8   BANK9  BANK10  BANK1
      +1  BANK12  BANK13  BANK14  BANK15
 10441 ;;      Params:         4       0       0       0       0       0       0       0       0       0       0       0       
      +0       0       0       0       0
 10442 ;;      Locals:         2       0       0       0       0       0       0       0       0       0       0       0       
      +0       0       0       0       0
 10443 ;;      Temps:          4       0       0       0       0       0       0       0       0       0       0       0       
      +0       0       0       0       0
 10444 ;;      Totals:        10       0       0       0       0       0       0       0       0       0       0       0       
      +0       0       0       0       0
 10445 ;;Total ram usage:       10 bytes
 10446 ;; Hardware stack levels used: 1
 10447 ;; Hardware stack levels required when called: 2
 10448 ;; This function calls:
 10449 ;;		Nothing
 10450 ;; This function is called by:
 10451 ;;		_main
 10452 ;;		_T_tmr2
 10453 ;;		_T_tmr4
 10454 ;;		_efgtoa
 10455 ;; This function uses a non-reentrant model
 10456 ;;
 10457                           
 10458                           	psect	text45
 10459   003EA6                     __ptext45:
 10460                           	callstack 0
 10461   003EA6                     ___fltol:
 10462                           	callstack 23
 10463   003EA6  3403               	rlcf	(___fltol@f1+2)^0,w,c
 10464   003EA8  3404               	rlcf	(___fltol@f1+3)^0,w,c
 10465   003EAA  6E0A               	movwf	___fltol@exp1^0,c
 10466   003EAC  500A               	movf	___fltol@exp1^0,w,c
 10467   003EAE  A4D8               	btfss	status,2,c
 10468   003EB0  EF5C  F01F         	goto	u3951
 10469   003EB4  EF5E  F01F         	goto	u3950
 10470   003EB8                     u3951:
 10471   003EB8  EF68  F01F         	goto	l4662
 10472   003EBC                     u3950:
 10473   003EBC                     l4658:
 10474   003EBC  0E00               	movlw	0
 10475   003EBE  6E01               	movwf	?___fltol^0,c
 10476   003EC0  0E00               	movlw	0
 10477   003EC2  6E02               	movwf	(?___fltol+1)^0,c
 10478   003EC4  0E00               	movlw	0
 10479   003EC6  6E03               	movwf	(?___fltol+2)^0,c
 10480   003EC8  0E00               	movlw	0
 10481   003ECA  6E04               	movwf	(?___fltol+3)^0,c
 10482   003ECC  EFD5  F01F         	goto	l1184
 10483   003ED0                     l4662:
 10484   003ED0  C001  F005         	movff	___fltol@f1,??___fltol
 10485   003ED4  C002  F006         	movff	___fltol@f1+1,??___fltol+1
 10486   003ED8  C003  F007         	movff	___fltol@f1+2,??___fltol+2
 10487   003EDC  C004  F008         	movff	___fltol@f1+3,??___fltol+3
 10488   003EE0  0E20               	movlw	32
 10489   003EE2  EF78  F01F         	goto	u3960
 10490   003EE6                     u3965:
 10491   003EE6  90D8               	bcf	status,0,c
 10492   003EE8  3208               	rrcf	(??___fltol+3)^0,f,c
 10493   003EEA  3207               	rrcf	(??___fltol+2)^0,f,c
 10494   003EEC  3206               	rrcf	(??___fltol+1)^0,f,c
 10495   003EEE  3205               	rrcf	??___fltol^0,f,c
 10496   003EF0                     u3960:
 10497   003EF0  2EE8               	decfsz	wreg,f,c
 10498   003EF2  EF73  F01F         	goto	u3965
 10499   003EF6  5005               	movf	??___fltol^0,w,c
 10500   003EF8  6E09               	movwf	___fltol@sign1^0,c
 10501   003EFA  8E03               	bsf	(___fltol@f1+2)^0,7,c
 10502   003EFC  0EFF               	movlw	255
 10503   003EFE  1601               	andwf	___fltol@f1^0,f,c
 10504   003F00  0EFF               	movlw	255
 10505   003F02  1602               	andwf	(___fltol@f1+1)^0,f,c
 10506   003F04  0EFF               	movlw	255
 10507   003F06  1603               	andwf	(___fltol@f1+2)^0,f,c
 10508   003F08  0E00               	movlw	0
 10509   003F0A  1604               	andwf	(___fltol@f1+3)^0,f,c
 10510   003F0C  0E96               	movlw	150
 10511   003F0E  5E0A               	subwf	___fltol@exp1^0,f,c
 10512   003F10  BE0A               	btfsc	___fltol@exp1^0,7,c
 10513   003F12  EF8F  F01F         	goto	u3970
 10514   003F16  EF8D  F01F         	goto	u3971
 10515   003F1A                     u3971:
 10516   003F1A  EFA5  F01F         	goto	l4682
 10517   003F1E                     u3970:
 10518   003F1E  500A               	movf	___fltol@exp1^0,w,c
 10519   003F20  0A80               	xorlw	128
 10520   003F22  0F97               	addlw	151
 10521   003F24  B0D8               	btfsc	status,0,c
 10522   003F26  EF97  F01F         	goto	u3981
 10523   003F2A  EF99  F01F         	goto	u3980
 10524   003F2E                     u3981:
 10525   003F2E  EF9B  F01F         	goto	l4678
 10526   003F32                     u3980:
 10527   003F32  EF5E  F01F         	goto	l4658
 10528   003F36                     l4678:
 10529   003F36  90D8               	bcf	status,0,c
 10530   003F38  3204               	rrcf	(___fltol@f1+3)^0,f,c
 10531   003F3A  3203               	rrcf	(___fltol@f1+2)^0,f,c
 10532   003F3C  3202               	rrcf	(___fltol@f1+1)^0,f,c
 10533   003F3E  3201               	rrcf	___fltol@f1^0,f,c
 10534   003F40  3E0A               	incfsz	___fltol@exp1^0,f,c
 10535   003F42  EF9B  F01F         	goto	l4678
 10536   003F46  EFBD  F01F         	goto	l4692
 10537   003F4A                     l4682:
 10538   003F4A  0E1F               	movlw	31
 10539   003F4C  640A               	cpfsgt	___fltol@exp1^0,c
 10540   003F4E  EFAB  F01F         	goto	u3991
 10541   003F52  EFAD  F01F         	goto	u3990
 10542   003F56                     u3991:
 10543   003F56  EFB5  F01F         	goto	l4690
 10544   003F5A                     u3990:
 10545   003F5A  EF5E  F01F         	goto	l4658
 10546   003F5E                     l4688:
 10547   003F5E  90D8               	bcf	status,0,c
 10548   003F60  3601               	rlcf	___fltol@f1^0,f,c
 10549   003F62  3602               	rlcf	(___fltol@f1+1)^0,f,c
 10550   003F64  3603               	rlcf	(___fltol@f1+2)^0,f,c
 10551   003F66  3604               	rlcf	(___fltol@f1+3)^0,f,c
 10552   003F68  060A               	decf	___fltol@exp1^0,f,c
 10553   003F6A                     l4690:
 10554   003F6A  500A               	movf	___fltol@exp1^0,w,c
 10555   003F6C  A4D8               	btfss	status,2,c
 10556   003F6E  EFBB  F01F         	goto	u4001
 10557   003F72  EFBD  F01F         	goto	u4000
 10558   003F76                     u4001:
 10559   003F76  EFAF  F01F         	goto	l4688
 10560   003F7A                     u4000:
 10561   003F7A                     l4692:
 10562   003F7A  5009               	movf	___fltol@sign1^0,w,c
 10563   003F7C  B4D8               	btfsc	status,2,c
 10564   003F7E  EFC3  F01F         	goto	u4011
 10565   003F82  EFC5  F01F         	goto	u4010
 10566   003F86                     u4011:
 10567   003F86  EFCD  F01F         	goto	l4696
 10568   003F8A                     u4010:
 10569   003F8A  1E04               	comf	(___fltol@f1+3)^0,f,c
 10570   003F8C  1E03               	comf	(___fltol@f1+2)^0,f,c
 10571   003F8E  1E02               	comf	(___fltol@f1+1)^0,f,c
 10572   003F90  6C01               	negf	___fltol@f1^0,c
 10573   003F92  0E00               	movlw	0
 10574   003F94  2202               	addwfc	(___fltol@f1+1)^0,f,c
 10575   003F96  2203               	addwfc	(___fltol@f1+2)^0,f,c
 10576   003F98  2204               	addwfc	(___fltol@f1+3)^0,f,c
 10577   003F9A                     l4696:
 10578   003F9A  C001  F001         	movff	___fltol@f1,?___fltol
 10579   003F9E  C002  F002         	movff	___fltol@f1+1,?___fltol+1
 10580   003FA2  C003  F003         	movff	___fltol@f1+2,?___fltol+2
 10581   003FA6  C004  F004         	movff	___fltol@f1+3,?___fltol+3
 10582   003FAA                     l1184:
 10583   003FAA  0012               	return		;funcret
 10584   003FAC                     __end_of___fltol:
 10585                           	callstack 0
 10586                           
 10587 ;; *************** function ___flmul *****************
 10588 ;; Defined at:
 10589 ;;		line 8 in file "C:\Program Files\Microchip\xc8\v2.41\pic\sources\c99\common\sprcmul.c"
 10590 ;; Parameters:    Size  Location     Type
 10591 ;;  b               4   39[COMRAM] long 
 10592 ;;  a               4   43[COMRAM] long 
 10593 ;; Auto vars:     Size  Location     Type
 10594 ;;  prod            4   58[COMRAM] struct .
 10595 ;;  grs             4   52[COMRAM] unsigned long 
 10596 ;;  temp            2   62[COMRAM] struct .
 10597 ;;  bexp            1   57[COMRAM] unsigned char 
 10598 ;;  aexp            1   56[COMRAM] unsigned char 
 10599 ;;  sign            1   51[COMRAM] unsigned char 
 10600 ;; Return value:  Size  Location     Type
 10601 ;;                  4   39[COMRAM] unsigned char 
 10602 ;; Registers used:
 10603 ;;		wreg, status,2, status,0, prodl, prodh
 10604 ;; Tracked objects:
 10605 ;;		On entry : 0/0
 10606 ;;		On exit  : 0/0
 10607 ;;		Unchanged: 0/0
 10608 ;; Data sizes:     COMRAM   BANK0   BANK1   BANK2   BANK3   BANK4   BANK5   BANK6   BANK7   BANK8   BANK9  BANK10  BANK1
      +1  BANK12  BANK13  BANK14  BANK15
 10609 ;;      Params:         8       0       0       0       0       0       0       0       0       0       0       0       
      +0       0       0       0       0
 10610 ;;      Locals:        13       0       0       0       0       0       0       0       0       0       0       0       
      +0       0       0       0       0
 10611 ;;      Temps:          4       0       0       0       0       0       0       0       0       0       0       0       
      +0       0       0       0       0
 10612 ;;      Totals:        25       0       0       0       0       0       0       0       0       0       0       0       
      +0       0       0       0       0
 10613 ;;Total ram usage:       25 bytes
 10614 ;; Hardware stack levels used: 1
 10615 ;; Hardware stack levels required when called: 2
 10616 ;; This function calls:
 10617 ;;		Nothing
 10618 ;; This function is called by:
 10619 ;;		_main
 10620 ;;		_T_tmr2
 10621 ;;		_T_tmr4
 10622 ;;		_efgtoa
 10623 ;; This function uses a non-reentrant model
 10624 ;;
 10625                           
 10626                           	psect	text46
 10627   002A1A                     __ptext46:
 10628                           	callstack 0
 10629   002A1A                     ___flmul:
 10630                           	callstack 23
 10631   002A1A  502B               	movf	(___flmul@b+3)^0,w,c
 10632   002A1C  0B80               	andlw	128
 10633   002A1E  6E34               	movwf	___flmul@sign^0,c
 10634   002A20  502B               	movf	(___flmul@b+3)^0,w,c
 10635   002A22  242B               	addwf	(___flmul@b+3)^0,w,c
 10636   002A24  6E3A               	movwf	___flmul@bexp^0,c
 10637   002A26  AE2A               	btfss	(___flmul@b+2)^0,7,c
 10638   002A28  EF18  F015         	goto	u3551
 10639   002A2C  EF1A  F015         	goto	u3550
 10640   002A30                     u3551:
 10641   002A30  EF1B  F015         	goto	l4400
 10642   002A34                     u3550:
 10643   002A34  803A               	bsf	___flmul@bexp^0,0,c
 10644   002A36                     l4400:
 10645   002A36  503A               	movf	___flmul@bexp^0,w,c
 10646   002A38  B4D8               	btfsc	status,2,c
 10647   002A3A  EF21  F015         	goto	u3561
 10648   002A3E  EF23  F015         	goto	u3560
 10649   002A42                     u3561:
 10650   002A42  EF36  F015         	goto	l4408
 10651   002A46                     u3560:
 10652   002A46  283A               	incf	___flmul@bexp^0,w,c
 10653   002A48  A4D8               	btfss	status,2,c
 10654   002A4A  EF29  F015         	goto	u3571
 10655   002A4E  EF2B  F015         	goto	u3570
 10656   002A52                     u3571:
 10657   002A52  EF33  F015         	goto	l4406
 10658   002A56                     u3570:
 10659   002A56  0E00               	movlw	0
 10660   002A58  6E28               	movwf	___flmul@b^0,c
 10661   002A5A  0E00               	movlw	0
 10662   002A5C  6E29               	movwf	(___flmul@b+1)^0,c
 10663   002A5E  0E00               	movlw	0
 10664   002A60  6E2A               	movwf	(___flmul@b+2)^0,c
 10665   002A62  0E00               	movlw	0
 10666   002A64  6E2B               	movwf	(___flmul@b+3)^0,c
 10667   002A66                     l4406:
 10668   002A66  8E2A               	bsf	(___flmul@b+2)^0,7,c
 10669   002A68  EF3E  F015         	goto	l4410
 10670   002A6C                     l4408:
 10671   002A6C  0E00               	movlw	0
 10672   002A6E  6E28               	movwf	___flmul@b^0,c
 10673   002A70  0E00               	movlw	0
 10674   002A72  6E29               	movwf	(___flmul@b+1)^0,c
 10675   002A74  0E00               	movlw	0
 10676   002A76  6E2A               	movwf	(___flmul@b+2)^0,c
 10677   002A78  0E00               	movlw	0
 10678   002A7A  6E2B               	movwf	(___flmul@b+3)^0,c
 10679   002A7C                     l4410:
 10680   002A7C  502F               	movf	(___flmul@a+3)^0,w,c
 10681   002A7E  0B80               	andlw	128
 10682   002A80  1A34               	xorwf	___flmul@sign^0,f,c
 10683   002A82  502F               	movf	(___flmul@a+3)^0,w,c
 10684   002A84  242F               	addwf	(___flmul@a+3)^0,w,c
 10685   002A86  6E39               	movwf	___flmul@aexp^0,c
 10686   002A88  AE2E               	btfss	(___flmul@a+2)^0,7,c
 10687   002A8A  EF49  F015         	goto	u3581
 10688   002A8E  EF4B  F015         	goto	u3580
 10689   002A92                     u3581:
 10690   002A92  EF4C  F015         	goto	l4418
 10691   002A96                     u3580:
 10692   002A96  8039               	bsf	___flmul@aexp^0,0,c
 10693   002A98                     l4418:
 10694   002A98  5039               	movf	___flmul@aexp^0,w,c
 10695   002A9A  B4D8               	btfsc	status,2,c
 10696   002A9C  EF52  F015         	goto	u3591
 10697   002AA0  EF54  F015         	goto	u3590
 10698   002AA4                     u3591:
 10699   002AA4  EF67  F015         	goto	l4426
 10700   002AA8                     u3590:
 10701   002AA8  2839               	incf	___flmul@aexp^0,w,c
 10702   002AAA  A4D8               	btfss	status,2,c
 10703   002AAC  EF5A  F015         	goto	u3601
 10704   002AB0  EF5C  F015         	goto	u3600
 10705   002AB4                     u3601:
 10706   002AB4  EF64  F015         	goto	l4424
 10707   002AB8                     u3600:
 10708   002AB8  0E00               	movlw	0
 10709   002ABA  6E2C               	movwf	___flmul@a^0,c
 10710   002ABC  0E00               	movlw	0
 10711   002ABE  6E2D               	movwf	(___flmul@a+1)^0,c
 10712   002AC0  0E00               	movlw	0
 10713   002AC2  6E2E               	movwf	(___flmul@a+2)^0,c
 10714   002AC4  0E00               	movlw	0
 10715   002AC6  6E2F               	movwf	(___flmul@a+3)^0,c
 10716   002AC8                     l4424:
 10717   002AC8  8E2E               	bsf	(___flmul@a+2)^0,7,c
 10718   002ACA  EF6F  F015         	goto	l1501
 10719   002ACE                     l4426:
 10720   002ACE  0E00               	movlw	0
 10721   002AD0  6E2C               	movwf	___flmul@a^0,c
 10722   002AD2  0E00               	movlw	0
 10723   002AD4  6E2D               	movwf	(___flmul@a+1)^0,c
 10724   002AD6  0E00               	movlw	0
 10725   002AD8  6E2E               	movwf	(___flmul@a+2)^0,c
 10726   002ADA  0E00               	movlw	0
 10727   002ADC  6E2F               	movwf	(___flmul@a+3)^0,c
 10728   002ADE                     l1501:
 10729   002ADE  5039               	movf	___flmul@aexp^0,w,c
 10730   002AE0  B4D8               	btfsc	status,2,c
 10731   002AE2  EF75  F015         	goto	u3611
 10732   002AE6  EF77  F015         	goto	u3610
 10733   002AEA                     u3611:
 10734   002AEA  EF7F  F015         	goto	l4430
 10735   002AEE                     u3610:
 10736   002AEE  503A               	movf	___flmul@bexp^0,w,c
 10737   002AF0  A4D8               	btfss	status,2,c
 10738   002AF2  EF7D  F015         	goto	u3621
 10739   002AF6  EF7F  F015         	goto	u3620
 10740   002AFA                     u3621:
 10741   002AFA  EF89  F015         	goto	l4434
 10742   002AFE                     u3620:
 10743   002AFE                     l4430:
 10744   002AFE  0E00               	movlw	0
 10745   002B00  6E28               	movwf	?___flmul^0,c
 10746   002B02  0E00               	movlw	0
 10747   002B04  6E29               	movwf	(?___flmul+1)^0,c
 10748   002B06  0E00               	movlw	0
 10749   002B08  6E2A               	movwf	(?___flmul+2)^0,c
 10750   002B0A  0E00               	movlw	0
 10751   002B0C  6E2B               	movwf	(?___flmul+3)^0,c
 10752   002B0E  EF33  F017         	goto	l1505
 10753   002B12                     l4434:
 10754   002B12  502E               	movf	(___flmul@a+2)^0,w,c
 10755   002B14  0228               	mulwf	___flmul@b^0,c
 10756   002B16  006F FFCC  F03F    	movff	prodl,___flmul@temp
 10757   002B1C  006F FFD0  F040    	movff	prodh,___flmul@temp+1
 10758   002B22  503F               	movf	___flmul@temp^0,w,c
 10759   002B24  6E35               	movwf	___flmul@grs^0,c
 10760   002B26  6A36               	clrf	(___flmul@grs+1)^0,c
 10761   002B28  6A37               	clrf	(___flmul@grs+2)^0,c
 10762   002B2A  6A38               	clrf	(___flmul@grs+3)^0,c
 10763   002B2C  5040               	movf	(___flmul@temp+1)^0,w,c
 10764   002B2E  6E3B               	movwf	___flmul@prod^0,c
 10765   002B30  6A3C               	clrf	(___flmul@prod+1)^0,c
 10766   002B32  6A3D               	clrf	(___flmul@prod+2)^0,c
 10767   002B34  6A3E               	clrf	(___flmul@prod+3)^0,c
 10768   002B36  502D               	movf	(___flmul@a+1)^0,w,c
 10769   002B38  0229               	mulwf	(___flmul@b+1)^0,c
 10770   002B3A  006F FFCC  F03F    	movff	prodl,___flmul@temp
 10771   002B40  006F FFD0  F040    	movff	prodh,___flmul@temp+1
 10772   002B46  503F               	movf	___flmul@temp^0,w,c
 10773   002B48  2635               	addwf	___flmul@grs^0,f,c
 10774   002B4A  0E00               	movlw	0
 10775   002B4C  2236               	addwfc	(___flmul@grs+1)^0,f,c
 10776   002B4E  2237               	addwfc	(___flmul@grs+2)^0,f,c
 10777   002B50  2238               	addwfc	(___flmul@grs+3)^0,f,c
 10778   002B52  5040               	movf	(___flmul@temp+1)^0,w,c
 10779   002B54  263B               	addwf	___flmul@prod^0,f,c
 10780   002B56  0E00               	movlw	0
 10781   002B58  223C               	addwfc	(___flmul@prod+1)^0,f,c
 10782   002B5A  223D               	addwfc	(___flmul@prod+2)^0,f,c
 10783   002B5C  223E               	addwfc	(___flmul@prod+3)^0,f,c
 10784   002B5E  502C               	movf	___flmul@a^0,w,c
 10785   002B60  022A               	mulwf	(___flmul@b+2)^0,c
 10786   002B62  006F FFCC  F03F    	movff	prodl,___flmul@temp
 10787   002B68  006F FFD0  F040    	movff	prodh,___flmul@temp+1
 10788   002B6E  503F               	movf	___flmul@temp^0,w,c
 10789   002B70  2635               	addwf	___flmul@grs^0,f,c
 10790   002B72  0E00               	movlw	0
 10791   002B74  2236               	addwfc	(___flmul@grs+1)^0,f,c
 10792   002B76  2237               	addwfc	(___flmul@grs+2)^0,f,c
 10793   002B78  2238               	addwfc	(___flmul@grs+3)^0,f,c
 10794   002B7A  5040               	movf	(___flmul@temp+1)^0,w,c
 10795   002B7C  263B               	addwf	___flmul@prod^0,f,c
 10796   002B7E  0E00               	movlw	0
 10797   002B80  223C               	addwfc	(___flmul@prod+1)^0,f,c
 10798   002B82  223D               	addwfc	(___flmul@prod+2)^0,f,c
 10799   002B84  223E               	addwfc	(___flmul@prod+3)^0,f,c
 10800   002B86  C037  F038         	movff	___flmul@grs+2,___flmul@grs+3
 10801   002B8A  C036  F037         	movff	___flmul@grs+1,___flmul@grs+2
 10802   002B8E  C035  F036         	movff	___flmul@grs,___flmul@grs+1
 10803   002B92  6A35               	clrf	___flmul@grs^0,c
 10804   002B94  502C               	movf	___flmul@a^0,w,c
 10805   002B96  0229               	mulwf	(___flmul@b+1)^0,c
 10806   002B98  006F FFCC  F03F    	movff	prodl,___flmul@temp
 10807   002B9E  006F FFD0  F040    	movff	prodh,___flmul@temp+1
 10808   002BA4  503F               	movf	___flmul@temp^0,w,c
 10809   002BA6  2635               	addwf	___flmul@grs^0,f,c
 10810   002BA8  5040               	movf	(___flmul@temp+1)^0,w,c
 10811   002BAA  2236               	addwfc	(___flmul@grs+1)^0,f,c
 10812   002BAC  0E00               	movlw	0
 10813   002BAE  2237               	addwfc	(___flmul@grs+2)^0,f,c
 10814   002BB0  0E00               	movlw	0
 10815   002BB2  2238               	addwfc	(___flmul@grs+3)^0,f,c
 10816   002BB4  502D               	movf	(___flmul@a+1)^0,w,c
 10817   002BB6  0228               	mulwf	___flmul@b^0,c
 10818   002BB8  006F FFCC  F03F    	movff	prodl,___flmul@temp
 10819   002BBE  006F FFD0  F040    	movff	prodh,___flmul@temp+1
 10820   002BC4  503F               	movf	___flmul@temp^0,w,c
 10821   002BC6  2635               	addwf	___flmul@grs^0,f,c
 10822   002BC8  5040               	movf	(___flmul@temp+1)^0,w,c
 10823   002BCA  2236               	addwfc	(___flmul@grs+1)^0,f,c
 10824   002BCC  0E00               	movlw	0
 10825   002BCE  2237               	addwfc	(___flmul@grs+2)^0,f,c
 10826   002BD0  0E00               	movlw	0
 10827   002BD2  2238               	addwfc	(___flmul@grs+3)^0,f,c
 10828   002BD4  C037  F038         	movff	___flmul@grs+2,___flmul@grs+3
 10829   002BD8  C036  F037         	movff	___flmul@grs+1,___flmul@grs+2
 10830   002BDC  C035  F036         	movff	___flmul@grs,___flmul@grs+1
 10831   002BE0  6A35               	clrf	___flmul@grs^0,c
 10832   002BE2  502C               	movf	___flmul@a^0,w,c
 10833   002BE4  0228               	mulwf	___flmul@b^0,c
 10834   002BE6  006F FFCC  F03F    	movff	prodl,___flmul@temp
 10835   002BEC  006F FFD0  F040    	movff	prodh,___flmul@temp+1
 10836   002BF2  503F               	movf	___flmul@temp^0,w,c
 10837   002BF4  2635               	addwf	___flmul@grs^0,f,c
 10838   002BF6  5040               	movf	(___flmul@temp+1)^0,w,c
 10839   002BF8  2236               	addwfc	(___flmul@grs+1)^0,f,c
 10840   002BFA  0E00               	movlw	0
 10841   002BFC  2237               	addwfc	(___flmul@grs+2)^0,f,c
 10842   002BFE  0E00               	movlw	0
 10843   002C00  2238               	addwfc	(___flmul@grs+3)^0,f,c
 10844   002C02  502E               	movf	(___flmul@a+2)^0,w,c
 10845   002C04  0229               	mulwf	(___flmul@b+1)^0,c
 10846   002C06  006F FFCC  F03F    	movff	prodl,___flmul@temp
 10847   002C0C  006F FFD0  F040    	movff	prodh,___flmul@temp+1
 10848   002C12  503F               	movf	___flmul@temp^0,w,c
 10849   002C14  263B               	addwf	___flmul@prod^0,f,c
 10850   002C16  5040               	movf	(___flmul@temp+1)^0,w,c
 10851   002C18  223C               	addwfc	(___flmul@prod+1)^0,f,c
 10852   002C1A  0E00               	movlw	0
 10853   002C1C  223D               	addwfc	(___flmul@prod+2)^0,f,c
 10854   002C1E  0E00               	movlw	0
 10855   002C20  223E               	addwfc	(___flmul@prod+3)^0,f,c
 10856   002C22  502D               	movf	(___flmul@a+1)^0,w,c
 10857   002C24  022A               	mulwf	(___flmul@b+2)^0,c
 10858   002C26  006F FFCC  F03F    	movff	prodl,___flmul@temp
 10859   002C2C  006F FFD0  F040    	movff	prodh,___flmul@temp+1
 10860   002C32  503F               	movf	___flmul@temp^0,w,c
 10861   002C34  263B               	addwf	___flmul@prod^0,f,c
 10862   002C36  5040               	movf	(___flmul@temp+1)^0,w,c
 10863   002C38  223C               	addwfc	(___flmul@prod+1)^0,f,c
 10864   002C3A  0E00               	movlw	0
 10865   002C3C  223D               	addwfc	(___flmul@prod+2)^0,f,c
 10866   002C3E  0E00               	movlw	0
 10867   002C40  223E               	addwfc	(___flmul@prod+3)^0,f,c
 10868   002C42  502E               	movf	(___flmul@a+2)^0,w,c
 10869   002C44  022A               	mulwf	(___flmul@b+2)^0,c
 10870   002C46  006F FFCC  F03F    	movff	prodl,___flmul@temp
 10871   002C4C  006F FFD0  F040    	movff	prodh,___flmul@temp+1
 10872   002C52  503F               	movf	___flmul@temp^0,w,c
 10873   002C54  6E30               	movwf	??___flmul^0,c
 10874   002C56  5040               	movf	(___flmul@temp+1)^0,w,c
 10875   002C58  6E31               	movwf	(??___flmul+1)^0,c
 10876   002C5A  6A32               	clrf	(??___flmul+2)^0,c
 10877   002C5C  6A33               	clrf	(??___flmul+3)^0,c
 10878   002C5E  C032  F033         	movff	??___flmul+2,??___flmul+3
 10879   002C62  C031  F032         	movff	??___flmul+1,??___flmul+2
 10880   002C66  C030  F031         	movff	??___flmul,??___flmul+1
 10881   002C6A  6A30               	clrf	??___flmul^0,c
 10882   002C6C  5030               	movf	??___flmul^0,w,c
 10883   002C6E  263B               	addwf	___flmul@prod^0,f,c
 10884   002C70  5031               	movf	(??___flmul+1)^0,w,c
 10885   002C72  223C               	addwfc	(___flmul@prod+1)^0,f,c
 10886   002C74  5032               	movf	(??___flmul+2)^0,w,c
 10887   002C76  223D               	addwfc	(___flmul@prod+2)^0,f,c
 10888   002C78  5033               	movf	(??___flmul+3)^0,w,c
 10889   002C7A  223E               	addwfc	(___flmul@prod+3)^0,f,c
 10890   002C7C  C035  F030         	movff	___flmul@grs,??___flmul
 10891   002C80  C036  F031         	movff	___flmul@grs+1,??___flmul+1
 10892   002C84  C037  F032         	movff	___flmul@grs+2,??___flmul+2
 10893   002C88  C038  F033         	movff	___flmul@grs+3,??___flmul+3
 10894   002C8C  0E19               	movlw	25
 10895   002C8E  EF4E  F016         	goto	u3630
 10896   002C92                     u3635:
 10897   002C92  90D8               	bcf	status,0,c
 10898   002C94  3233               	rrcf	(??___flmul+3)^0,f,c
 10899   002C96  3232               	rrcf	(??___flmul+2)^0,f,c
 10900   002C98  3231               	rrcf	(??___flmul+1)^0,f,c
 10901   002C9A  3230               	rrcf	??___flmul^0,f,c
 10902   002C9C                     u3630:
 10903   002C9C  2EE8               	decfsz	wreg,f,c
 10904   002C9E  EF49  F016         	goto	u3635
 10905   002CA2  5030               	movf	??___flmul^0,w,c
 10906   002CA4  263B               	addwf	___flmul@prod^0,f,c
 10907   002CA6  5031               	movf	(??___flmul+1)^0,w,c
 10908   002CA8  223C               	addwfc	(___flmul@prod+1)^0,f,c
 10909   002CAA  5032               	movf	(??___flmul+2)^0,w,c
 10910   002CAC  223D               	addwfc	(___flmul@prod+2)^0,f,c
 10911   002CAE  5033               	movf	(??___flmul+3)^0,w,c
 10912   002CB0  223E               	addwfc	(___flmul@prod+3)^0,f,c
 10913   002CB2  C037  F038         	movff	___flmul@grs+2,___flmul@grs+3
 10914   002CB6  C036  F037         	movff	___flmul@grs+1,___flmul@grs+2
 10915   002CBA  C035  F036         	movff	___flmul@grs,___flmul@grs+1
 10916   002CBE  6A35               	clrf	___flmul@grs^0,c
 10917   002CC0  5039               	movf	___flmul@aexp^0,w,c
 10918   002CC2  C03A  F030         	movff	___flmul@bexp,??___flmul
 10919   002CC6  6A31               	clrf	(??___flmul+1)^0,c
 10920   002CC8  2630               	addwf	??___flmul^0,f,c
 10921   002CCA  0E00               	movlw	0
 10922   002CCC  2231               	addwfc	(??___flmul+1)^0,f,c
 10923   002CCE  0E82               	movlw	130
 10924   002CD0  2430               	addwf	??___flmul^0,w,c
 10925   002CD2  6E3F               	movwf	___flmul@temp^0,c
 10926   002CD4  0EFF               	movlw	255
 10927   002CD6  2031               	addwfc	(??___flmul+1)^0,w,c
 10928   002CD8  6E40               	movwf	(___flmul@temp+1)^0,c
 10929   002CDA  EF84  F016         	goto	l4482
 10930   002CDE                     l4476:
 10931   002CDE  90D8               	bcf	status,0,c
 10932   002CE0  363B               	rlcf	___flmul@prod^0,f,c
 10933   002CE2  363C               	rlcf	(___flmul@prod+1)^0,f,c
 10934   002CE4  363D               	rlcf	(___flmul@prod+2)^0,f,c
 10935   002CE6  363E               	rlcf	(___flmul@prod+3)^0,f,c
 10936   002CE8  AE38               	btfss	(___flmul@grs+3)^0,7,c
 10937   002CEA  EF79  F016         	goto	u3641
 10938   002CEE  EF7B  F016         	goto	u3640
 10939   002CF2                     u3641:
 10940   002CF2  EF7C  F016         	goto	l1508
 10941   002CF6                     u3640:
 10942   002CF6  803B               	bsf	___flmul@prod^0,0,c
 10943   002CF8                     l1508:
 10944   002CF8  90D8               	bcf	status,0,c
 10945   002CFA  3635               	rlcf	___flmul@grs^0,f,c
 10946   002CFC  3636               	rlcf	(___flmul@grs+1)^0,f,c
 10947   002CFE  3637               	rlcf	(___flmul@grs+2)^0,f,c
 10948   002D00  3638               	rlcf	(___flmul@grs+3)^0,f,c
 10949   002D02  063F               	decf	___flmul@temp^0,f,c
 10950   002D04  A0D8               	btfss	status,0,c
 10951   002D06  0640               	decf	(___flmul@temp+1)^0,f,c
 10952   002D08                     l4482:
 10953   002D08  AE3D               	btfss	(___flmul@prod+2)^0,7,c
 10954   002D0A  EF89  F016         	goto	u3651
 10955   002D0E  EF8B  F016         	goto	u3650
 10956   002D12                     u3651:
 10957   002D12  EF6F  F016         	goto	l4476
 10958   002D16                     u3650:
 10959   002D16  0E00               	movlw	0
 10960   002D18  6E39               	movwf	___flmul@aexp^0,c
 10961   002D1A  AE38               	btfss	(___flmul@grs+3)^0,7,c
 10962   002D1C  EF92  F016         	goto	u3661
 10963   002D20  EF94  F016         	goto	u3660
 10964   002D24                     u3661:
 10965   002D24  EFB8  F016         	goto	l1510
 10966   002D28                     u3660:
 10967   002D28  0EFF               	movlw	255
 10968   002D2A  1435               	andwf	___flmul@grs^0,w,c
 10969   002D2C  6E30               	movwf	??___flmul^0,c
 10970   002D2E  0EFF               	movlw	255
 10971   002D30  1436               	andwf	(___flmul@grs+1)^0,w,c
 10972   002D32  6E31               	movwf	(??___flmul+1)^0,c
 10973   002D34  0EFF               	movlw	255
 10974   002D36  1437               	andwf	(___flmul@grs+2)^0,w,c
 10975   002D38  6E32               	movwf	(??___flmul+2)^0,c
 10976   002D3A  0E7F               	movlw	127
 10977   002D3C  1438               	andwf	(___flmul@grs+3)^0,w,c
 10978   002D3E  6E33               	movwf	(??___flmul+3)^0,c
 10979   002D40  5030               	movf	??___flmul^0,w,c
 10980   002D42  1031               	iorwf	(??___flmul+1)^0,w,c
 10981   002D44  1032               	iorwf	(??___flmul+2)^0,w,c
 10982   002D46  1033               	iorwf	(??___flmul+3)^0,w,c
 10983   002D48  B4D8               	btfsc	status,2,c
 10984   002D4A  EFA9  F016         	goto	u3671
 10985   002D4E  EFAB  F016         	goto	u3670
 10986   002D52                     u3671:
 10987   002D52  EFAF  F016         	goto	l1511
 10988   002D56                     u3670:
 10989   002D56                     l4490:
 10990   002D56  0E01               	movlw	1
 10991   002D58  6E39               	movwf	___flmul@aexp^0,c
 10992   002D5A  EFB8  F016         	goto	l1510
 10993   002D5E                     l1511:
 10994   002D5E  A03B               	btfss	___flmul@prod^0,0,c
 10995   002D60  EFB4  F016         	goto	u3681
 10996   002D64  EFB6  F016         	goto	u3680
 10997   002D68                     u3681:
 10998   002D68  EFB8  F016         	goto	l1510
 10999   002D6C                     u3680:
 11000   002D6C  EFAB  F016         	goto	l4490
 11001   002D70                     l1510:
 11002   002D70  5039               	movf	___flmul@aexp^0,w,c
 11003   002D72  B4D8               	btfsc	status,2,c
 11004   002D74  EFBE  F016         	goto	u3691
 11005   002D78  EFC0  F016         	goto	u3690
 11006   002D7C                     u3691:
 11007   002D7C  EFE4  F016         	goto	l4502
 11008   002D80                     u3690:
 11009   002D80  0E01               	movlw	1
 11010   002D82  263B               	addwf	___flmul@prod^0,f,c
 11011   002D84  0E00               	movlw	0
 11012   002D86  223C               	addwfc	(___flmul@prod+1)^0,f,c
 11013   002D88  223D               	addwfc	(___flmul@prod+2)^0,f,c
 11014   002D8A  223E               	addwfc	(___flmul@prod+3)^0,f,c
 11015   002D8C  A03E               	btfss	(___flmul@prod+3)^0,0,c
 11016   002D8E  EFCB  F016         	goto	u3701
 11017   002D92  EFCD  F016         	goto	u3700
 11018   002D96                     u3701:
 11019   002D96  EFE4  F016         	goto	l4502
 11020   002D9A                     u3700:
 11021   002D9A  C03B  F030         	movff	___flmul@prod,??___flmul
 11022   002D9E  C03C  F031         	movff	___flmul@prod+1,??___flmul+1
 11023   002DA2  C03D  F032         	movff	___flmul@prod+2,??___flmul+2
 11024   002DA6  C03E  F033         	movff	___flmul@prod+3,??___flmul+3
 11025   002DAA  3433               	rlcf	(??___flmul+3)^0,w,c
 11026   002DAC  3233               	rrcf	(??___flmul+3)^0,f,c
 11027   002DAE  3232               	rrcf	(??___flmul+2)^0,f,c
 11028   002DB0  3231               	rrcf	(??___flmul+1)^0,f,c
 11029   002DB2  3230               	rrcf	??___flmul^0,f,c
 11030   002DB4  C030  F03B         	movff	??___flmul,___flmul@prod
 11031   002DB8  C031  F03C         	movff	??___flmul+1,___flmul@prod+1
 11032   002DBC  C032  F03D         	movff	??___flmul+2,___flmul@prod+2
 11033   002DC0  C033  F03E         	movff	??___flmul+3,___flmul@prod+3
 11034   002DC4  4A3F               	infsnz	___flmul@temp^0,f,c
 11035   002DC6  2A40               	incf	(___flmul@temp+1)^0,f,c
 11036   002DC8                     l4502:
 11037   002DC8  BE40               	btfsc	(___flmul@temp+1)^0,7,c
 11038   002DCA  EFEF  F016         	goto	u3711
 11039   002DCE  5040               	movf	(___flmul@temp+1)^0,w,c
 11040   002DD0  E108               	bnz	u3710
 11041   002DD2  283F               	incf	___flmul@temp^0,w,c
 11042   002DD4  A0D8               	btfss	status,0,c
 11043   002DD6  EFEF  F016         	goto	u3711
 11044   002DDA  EFF1  F016         	goto	u3710
 11045   002DDE                     u3711:
 11046   002DDE  EFFB  F016         	goto	l4506
 11047   002DE2                     u3710:
 11048   002DE2  0E00               	movlw	0
 11049   002DE4  6E3B               	movwf	___flmul@prod^0,c
 11050   002DE6  0E00               	movlw	0
 11051   002DE8  6E3C               	movwf	(___flmul@prod+1)^0,c
 11052   002DEA  0E80               	movlw	128
 11053   002DEC  6E3D               	movwf	(___flmul@prod+2)^0,c
 11054   002DEE  0E7F               	movlw	127
 11055   002DF0  6E3E               	movwf	(___flmul@prod+3)^0,c
 11056   002DF2  EF29  F017         	goto	l4518
 11057   002DF6                     l4506:
 11058   002DF6  BE40               	btfsc	(___flmul@temp+1)^0,7,c
 11059   002DF8  EF08  F017         	goto	u3720
 11060   002DFC  5040               	movf	(___flmul@temp+1)^0,w,c
 11061   002DFE  E106               	bnz	u3721
 11062   002E00  043F               	decf	___flmul@temp^0,w,c
 11063   002E02  B0D8               	btfsc	status,0,c
 11064   002E04  EF06  F017         	goto	u3721
 11065   002E08  EF08  F017         	goto	u3720
 11066   002E0C                     u3721:
 11067   002E0C  EF14  F017         	goto	l1518
 11068   002E10                     u3720:
 11069   002E10  0E00               	movlw	0
 11070   002E12  6E3B               	movwf	___flmul@prod^0,c
 11071   002E14  0E00               	movlw	0
 11072   002E16  6E3C               	movwf	(___flmul@prod+1)^0,c
 11073   002E18  0E00               	movlw	0
 11074   002E1A  6E3D               	movwf	(___flmul@prod+2)^0,c
 11075   002E1C  0E00               	movlw	0
 11076   002E1E  6E3E               	movwf	(___flmul@prod+3)^0,c
 11077   002E20  0E00               	movlw	0
 11078   002E22  6E34               	movwf	___flmul@sign^0,c
 11079   002E24  EF29  F017         	goto	l4518
 11080   002E28                     l1518:
 11081   002E28  C03F  F03A         	movff	___flmul@temp,___flmul@bexp
 11082   002E2C  0EFF               	movlw	255
 11083   002E2E  163B               	andwf	___flmul@prod^0,f,c
 11084   002E30  0EFF               	movlw	255
 11085   002E32  163C               	andwf	(___flmul@prod+1)^0,f,c
 11086   002E34  0E7F               	movlw	127
 11087   002E36  163D               	andwf	(___flmul@prod+2)^0,f,c
 11088   002E38  0E00               	movlw	0
 11089   002E3A  163E               	andwf	(___flmul@prod+3)^0,f,c
 11090   002E3C  A03A               	btfss	___flmul@bexp^0,0,c
 11091   002E3E  EF23  F017         	goto	u3731
 11092   002E42  EF25  F017         	goto	u3730
 11093   002E46                     u3731:
 11094   002E46  EF26  F017         	goto	l4516
 11095   002E4A                     u3730:
 11096   002E4A  8E3D               	bsf	(___flmul@prod+2)^0,7,c
 11097   002E4C                     l4516:
 11098   002E4C  90D8               	bcf	status,0,c
 11099   002E4E  303A               	rrcf	___flmul@bexp^0,w,c
 11100   002E50  6E3E               	movwf	(___flmul@prod+3)^0,c
 11101   002E52                     l4518:
 11102   002E52  5034               	movf	___flmul@sign^0,w,c
 11103   002E54  123E               	iorwf	(___flmul@prod+3)^0,f,c
 11104   002E56  C03B  F028         	movff	___flmul@prod,?___flmul
 11105   002E5A  C03C  F029         	movff	___flmul@prod+1,?___flmul+1
 11106   002E5E  C03D  F02A         	movff	___flmul@prod+2,?___flmul+2
 11107   002E62  C03E  F02B         	movff	___flmul@prod+3,?___flmul+3
 11108   002E66                     l1505:
 11109   002E66  0012               	return		;funcret
 11110   002E68                     __end_of___flmul:
 11111                           	callstack 0
 11112                           
 11113 ;; *************** function ___fldiv *****************
 11114 ;; Defined at:
 11115 ;;		line 11 in file "C:\Program Files\Microchip\xc8\v2.41\pic\sources\c99\common\sprcdiv.c"
 11116 ;; Parameters:    Size  Location     Type
 11117 ;;  b               4   14[COMRAM] unsigned char 
 11118 ;;  a               4   18[COMRAM] unsigned char 
 11119 ;; Auto vars:     Size  Location     Type
 11120 ;;  grs             4   33[COMRAM] unsigned long 
 11121 ;;  rem             4   26[COMRAM] unsigned long 
 11122 ;;  new_exp         2   31[COMRAM] short 
 11123 ;;  aexp            1   38[COMRAM] unsigned char 
 11124 ;;  bexp            1   37[COMRAM] unsigned char 
 11125 ;;  sign            1   30[COMRAM] unsigned char 
 11126 ;; Return value:  Size  Location     Type
 11127 ;;                  4   14[COMRAM] unsigned char 
 11128 ;; Registers used:
 11129 ;;		wreg, status,2, status,0
 11130 ;; Tracked objects:
 11131 ;;		On entry : 0/0
 11132 ;;		On exit  : 0/0
 11133 ;;		Unchanged: 0/0
 11134 ;; Data sizes:     COMRAM   BANK0   BANK1   BANK2   BANK3   BANK4   BANK5   BANK6   BANK7   BANK8   BANK9  BANK10  BANK1
      +1  BANK12  BANK13  BANK14  BANK15
 11135 ;;      Params:         8       0       0       0       0       0       0       0       0       0       0       0       
      +0       0       0       0       0
 11136 ;;      Locals:        13       0       0       0       0       0       0       0       0       0       0       0       
      +0       0       0       0       0
 11137 ;;      Temps:          4       0       0       0       0       0       0       0       0       0       0       0       
      +0       0       0       0       0
 11138 ;;      Totals:        25       0       0       0       0       0       0       0       0       0       0       0       
      +0       0       0       0       0
 11139 ;;Total ram usage:       25 bytes
 11140 ;; Hardware stack levels used: 1
 11141 ;; Hardware stack levels required when called: 2
 11142 ;; This function calls:
 11143 ;;		Nothing
 11144 ;; This function is called by:
 11145 ;;		_main
 11146 ;;		_T_tmr2
 11147 ;;		_T_tmr4
 11148 ;;		_efgtoa
 11149 ;; This function uses a non-reentrant model
 11150 ;;
 11151                           
 11152                           	psect	text47
 11153   002E68                     __ptext47:
 11154                           	callstack 0
 11155   002E68                     ___fldiv:
 11156                           	callstack 23
 11157   002E68  5012               	movf	(___fldiv@b+3)^0,w,c
 11158   002E6A  0B80               	andlw	128
 11159   002E6C  6E1F               	movwf	___fldiv@sign^0,c
 11160   002E6E  5012               	movf	(___fldiv@b+3)^0,w,c
 11161   002E70  2412               	addwf	(___fldiv@b+3)^0,w,c
 11162   002E72  6E26               	movwf	___fldiv@bexp^0,c
 11163   002E74  AE11               	btfss	(___fldiv@b+2)^0,7,c
 11164   002E76  EF3F  F017         	goto	u3321
 11165   002E7A  EF41  F017         	goto	u3320
 11166   002E7E                     u3321:
 11167   002E7E  EF42  F017         	goto	l4262
 11168   002E82                     u3320:
 11169   002E82  8026               	bsf	___fldiv@bexp^0,0,c
 11170   002E84                     l4262:
 11171   002E84  5026               	movf	___fldiv@bexp^0,w,c
 11172   002E86  B4D8               	btfsc	status,2,c
 11173   002E88  EF48  F017         	goto	u3331
 11174   002E8C  EF4A  F017         	goto	u3330
 11175   002E90                     u3331:
 11176   002E90  EF5F  F017         	goto	l4272
 11177   002E94                     u3330:
 11178   002E94  2826               	incf	___fldiv@bexp^0,w,c
 11179   002E96  A4D8               	btfss	status,2,c
 11180   002E98  EF50  F017         	goto	u3341
 11181   002E9C  EF52  F017         	goto	u3340
 11182   002EA0                     u3341:
 11183   002EA0  EF5A  F017         	goto	l4268
 11184   002EA4                     u3340:
 11185   002EA4  0E00               	movlw	0
 11186   002EA6  6E0F               	movwf	___fldiv@b^0,c
 11187   002EA8  0E00               	movlw	0
 11188   002EAA  6E10               	movwf	(___fldiv@b+1)^0,c
 11189   002EAC  0E00               	movlw	0
 11190   002EAE  6E11               	movwf	(___fldiv@b+2)^0,c
 11191   002EB0  0E00               	movlw	0
 11192   002EB2  6E12               	movwf	(___fldiv@b+3)^0,c
 11193   002EB4                     l4268:
 11194   002EB4  8E11               	bsf	(___fldiv@b+2)^0,7,c
 11195   002EB6  0E00               	movlw	0
 11196   002EB8  6E12               	movwf	(___fldiv@b+3)^0,c
 11197   002EBA  EF67  F017         	goto	l4274
 11198   002EBE                     l4272:
 11199   002EBE  0E00               	movlw	0
 11200   002EC0  6E0F               	movwf	___fldiv@b^0,c
 11201   002EC2  0E00               	movlw	0
 11202   002EC4  6E10               	movwf	(___fldiv@b+1)^0,c
 11203   002EC6  0E00               	movlw	0
 11204   002EC8  6E11               	movwf	(___fldiv@b+2)^0,c
 11205   002ECA  0E00               	movlw	0
 11206   002ECC  6E12               	movwf	(___fldiv@b+3)^0,c
 11207   002ECE                     l4274:
 11208   002ECE  5016               	movf	(___fldiv@a+3)^0,w,c
 11209   002ED0  0B80               	andlw	128
 11210   002ED2  1A1F               	xorwf	___fldiv@sign^0,f,c
 11211   002ED4  5016               	movf	(___fldiv@a+3)^0,w,c
 11212   002ED6  2416               	addwf	(___fldiv@a+3)^0,w,c
 11213   002ED8  6E27               	movwf	___fldiv@aexp^0,c
 11214   002EDA  AE15               	btfss	(___fldiv@a+2)^0,7,c
 11215   002EDC  EF72  F017         	goto	u3351
 11216   002EE0  EF74  F017         	goto	u3350
 11217   002EE4                     u3351:
 11218   002EE4  EF75  F017         	goto	l4282
 11219   002EE8                     u3350:
 11220   002EE8  8027               	bsf	___fldiv@aexp^0,0,c
 11221   002EEA                     l4282:
 11222   002EEA  5027               	movf	___fldiv@aexp^0,w,c
 11223   002EEC  B4D8               	btfsc	status,2,c
 11224   002EEE  EF7B  F017         	goto	u3361
 11225   002EF2  EF7D  F017         	goto	u3360
 11226   002EF6                     u3361:
 11227   002EF6  EF92  F017         	goto	l4292
 11228   002EFA                     u3360:
 11229   002EFA  2827               	incf	___fldiv@aexp^0,w,c
 11230   002EFC  A4D8               	btfss	status,2,c
 11231   002EFE  EF83  F017         	goto	u3371
 11232   002F02  EF85  F017         	goto	u3370
 11233   002F06                     u3371:
 11234   002F06  EF8D  F017         	goto	l4288
 11235   002F0A                     u3370:
 11236   002F0A  0E00               	movlw	0
 11237   002F0C  6E13               	movwf	___fldiv@a^0,c
 11238   002F0E  0E00               	movlw	0
 11239   002F10  6E14               	movwf	(___fldiv@a+1)^0,c
 11240   002F12  0E00               	movlw	0
 11241   002F14  6E15               	movwf	(___fldiv@a+2)^0,c
 11242   002F16  0E00               	movlw	0
 11243   002F18  6E16               	movwf	(___fldiv@a+3)^0,c
 11244   002F1A                     l4288:
 11245   002F1A  8E15               	bsf	(___fldiv@a+2)^0,7,c
 11246   002F1C  0E00               	movlw	0
 11247   002F1E  6E16               	movwf	(___fldiv@a+3)^0,c
 11248   002F20  EF9A  F017         	goto	l4294
 11249   002F24                     l4292:
 11250   002F24  0E00               	movlw	0
 11251   002F26  6E13               	movwf	___fldiv@a^0,c
 11252   002F28  0E00               	movlw	0
 11253   002F2A  6E14               	movwf	(___fldiv@a+1)^0,c
 11254   002F2C  0E00               	movlw	0
 11255   002F2E  6E15               	movwf	(___fldiv@a+2)^0,c
 11256   002F30  0E00               	movlw	0
 11257   002F32  6E16               	movwf	(___fldiv@a+3)^0,c
 11258   002F34                     l4294:
 11259   002F34  5013               	movf	___fldiv@a^0,w,c
 11260   002F36  1014               	iorwf	(___fldiv@a+1)^0,w,c
 11261   002F38  1015               	iorwf	(___fldiv@a+2)^0,w,c
 11262   002F3A  1016               	iorwf	(___fldiv@a+3)^0,w,c
 11263   002F3C  A4D8               	btfss	status,2,c
 11264   002F3E  EFA3  F017         	goto	u3381
 11265   002F42  EFA5  F017         	goto	u3380
 11266   002F46                     u3381:
 11267   002F46  EFBD  F017         	goto	l4306
 11268   002F4A                     u3380:
 11269   002F4A  0E00               	movlw	0
 11270   002F4C  6E0F               	movwf	___fldiv@b^0,c
 11271   002F4E  0E00               	movlw	0
 11272   002F50  6E10               	movwf	(___fldiv@b+1)^0,c
 11273   002F52  0E00               	movlw	0
 11274   002F54  6E11               	movwf	(___fldiv@b+2)^0,c
 11275   002F56  0E00               	movlw	0
 11276   002F58  6E12               	movwf	(___fldiv@b+3)^0,c
 11277   002F5A  0E80               	movlw	128
 11278   002F5C  1211               	iorwf	(___fldiv@b+2)^0,f,c
 11279   002F5E  0E7F               	movlw	127
 11280   002F60  1212               	iorwf	(___fldiv@b+3)^0,f,c
 11281   002F62                     l4300:
 11282   002F62  501F               	movf	___fldiv@sign^0,w,c
 11283   002F64  1212               	iorwf	(___fldiv@b+3)^0,f,c
 11284   002F66  C00F  F00F         	movff	___fldiv@b,?___fldiv
 11285   002F6A  C010  F010         	movff	___fldiv@b+1,?___fldiv+1
 11286   002F6E  C011  F011         	movff	___fldiv@b+2,?___fldiv+2
 11287   002F72  C012  F012         	movff	___fldiv@b+3,?___fldiv+3
 11288   002F76  EF00  F019         	goto	l1469
 11289   002F7A                     l4306:
 11290   002F7A  5026               	movf	___fldiv@bexp^0,w,c
 11291   002F7C  A4D8               	btfss	status,2,c
 11292   002F7E  EFC3  F017         	goto	u3391
 11293   002F82  EFC5  F017         	goto	u3390
 11294   002F86                     u3391:
 11295   002F86  EFCF  F017         	goto	l4314
 11296   002F8A                     u3390:
 11297   002F8A  0E00               	movlw	0
 11298   002F8C  6E0F               	movwf	?___fldiv^0,c
 11299   002F8E  0E00               	movlw	0
 11300   002F90  6E10               	movwf	(?___fldiv+1)^0,c
 11301   002F92  0E00               	movlw	0
 11302   002F94  6E11               	movwf	(?___fldiv+2)^0,c
 11303   002F96  0E00               	movlw	0
 11304   002F98  6E12               	movwf	(?___fldiv+3)^0,c
 11305   002F9A  EF00  F019         	goto	l1469
 11306   002F9E                     l4314:
 11307   002F9E  5027               	movf	___fldiv@aexp^0,w,c
 11308   002FA0  C026  F017         	movff	___fldiv@bexp,??___fldiv
 11309   002FA4  6A18               	clrf	(??___fldiv+1)^0,c
 11310   002FA6  5E17               	subwf	??___fldiv^0,f,c
 11311   002FA8  0E00               	movlw	0
 11312   002FAA  5A18               	subwfb	(??___fldiv+1)^0,f,c
 11313   002FAC  0E7F               	movlw	127
 11314   002FAE  2417               	addwf	??___fldiv^0,w,c
 11315   002FB0  6E20               	movwf	___fldiv@new_exp^0,c
 11316   002FB2  0E00               	movlw	0
 11317   002FB4  2018               	addwfc	(??___fldiv+1)^0,w,c
 11318   002FB6  6E21               	movwf	(___fldiv@new_exp+1)^0,c
 11319   002FB8  C00F  F01B         	movff	___fldiv@b,___fldiv@rem
 11320   002FBC  C010  F01C         	movff	___fldiv@b+1,___fldiv@rem+1
 11321   002FC0  C011  F01D         	movff	___fldiv@b+2,___fldiv@rem+2
 11322   002FC4  C012  F01E         	movff	___fldiv@b+3,___fldiv@rem+3
 11323   002FC8  0E00               	movlw	0
 11324   002FCA  6E0F               	movwf	___fldiv@b^0,c
 11325   002FCC  0E00               	movlw	0
 11326   002FCE  6E10               	movwf	(___fldiv@b+1)^0,c
 11327   002FD0  0E00               	movlw	0
 11328   002FD2  6E11               	movwf	(___fldiv@b+2)^0,c
 11329   002FD4  0E00               	movlw	0
 11330   002FD6  6E12               	movwf	(___fldiv@b+3)^0,c
 11331   002FD8  0E00               	movlw	0
 11332   002FDA  6E22               	movwf	___fldiv@grs^0,c
 11333   002FDC  0E00               	movlw	0
 11334   002FDE  6E23               	movwf	(___fldiv@grs+1)^0,c
 11335   002FE0  0E00               	movlw	0
 11336   002FE2  6E24               	movwf	(___fldiv@grs+2)^0,c
 11337   002FE4  0E00               	movlw	0
 11338   002FE6  6E25               	movwf	(___fldiv@grs+3)^0,c
 11339   002FE8  0E00               	movlw	0
 11340   002FEA  6E27               	movwf	___fldiv@aexp^0,c
 11341   002FEC  EF30  F018         	goto	l1471
 11342   002FF0                     l4324:
 11343   002FF0  5027               	movf	___fldiv@aexp^0,w,c
 11344   002FF2  B4D8               	btfsc	status,2,c
 11345   002FF4  EFFE  F017         	goto	u3401
 11346   002FF8  EF00  F018         	goto	u3400
 11347   002FFC                     u3401:
 11348   002FFC  EF17  F018         	goto	l4332
 11349   003000                     u3400:
 11350   003000  90D8               	bcf	status,0,c
 11351   003002  361B               	rlcf	___fldiv@rem^0,f,c
 11352   003004  361C               	rlcf	(___fldiv@rem+1)^0,f,c
 11353   003006  361D               	rlcf	(___fldiv@rem+2)^0,f,c
 11354   003008  361E               	rlcf	(___fldiv@rem+3)^0,f,c
 11355   00300A  90D8               	bcf	status,0,c
 11356   00300C  360F               	rlcf	___fldiv@b^0,f,c
 11357   00300E  3610               	rlcf	(___fldiv@b+1)^0,f,c
 11358   003010  3611               	rlcf	(___fldiv@b+2)^0,f,c
 11359   003012  3612               	rlcf	(___fldiv@b+3)^0,f,c
 11360   003014  AE25               	btfss	(___fldiv@grs+3)^0,7,c
 11361   003016  EF0F  F018         	goto	u3411
 11362   00301A  EF11  F018         	goto	u3410
 11363   00301E                     u3411:
 11364   00301E  EF12  F018         	goto	l1474
 11365   003022                     u3410:
 11366   003022  800F               	bsf	___fldiv@b^0,0,c
 11367   003024                     l1474:
 11368   003024  90D8               	bcf	status,0,c
 11369   003026  3622               	rlcf	___fldiv@grs^0,f,c
 11370   003028  3623               	rlcf	(___fldiv@grs+1)^0,f,c
 11371   00302A  3624               	rlcf	(___fldiv@grs+2)^0,f,c
 11372   00302C  3625               	rlcf	(___fldiv@grs+3)^0,f,c
 11373   00302E                     l4332:
 11374   00302E  5013               	movf	___fldiv@a^0,w,c
 11375   003030  5C1B               	subwf	___fldiv@rem^0,w,c
 11376   003032  5014               	movf	(___fldiv@a+1)^0,w,c
 11377   003034  581C               	subwfb	(___fldiv@rem+1)^0,w,c
 11378   003036  5015               	movf	(___fldiv@a+2)^0,w,c
 11379   003038  581D               	subwfb	(___fldiv@rem+2)^0,w,c
 11380   00303A  5016               	movf	(___fldiv@a+3)^0,w,c
 11381   00303C  581E               	subwfb	(___fldiv@rem+3)^0,w,c
 11382   00303E  A0D8               	btfss	status,0,c
 11383   003040  EF24  F018         	goto	u3421
 11384   003044  EF26  F018         	goto	u3420
 11385   003048                     u3421:
 11386   003048  EF2F  F018         	goto	l4338
 11387   00304C                     u3420:
 11388   00304C  8C25               	bsf	(___fldiv@grs+3)^0,6,c
 11389   00304E  5013               	movf	___fldiv@a^0,w,c
 11390   003050  5E1B               	subwf	___fldiv@rem^0,f,c
 11391   003052  5014               	movf	(___fldiv@a+1)^0,w,c
 11392   003054  5A1C               	subwfb	(___fldiv@rem+1)^0,f,c
 11393   003056  5015               	movf	(___fldiv@a+2)^0,w,c
 11394   003058  5A1D               	subwfb	(___fldiv@rem+2)^0,f,c
 11395   00305A  5016               	movf	(___fldiv@a+3)^0,w,c
 11396   00305C  5A1E               	subwfb	(___fldiv@rem+3)^0,f,c
 11397   00305E                     l4338:
 11398   00305E  2A27               	incf	___fldiv@aexp^0,f,c
 11399   003060                     l1471:
 11400   003060  0E19               	movlw	25
 11401   003062  6427               	cpfsgt	___fldiv@aexp^0,c
 11402   003064  EF36  F018         	goto	u3431
 11403   003068  EF38  F018         	goto	u3430
 11404   00306C                     u3431:
 11405   00306C  EFF8  F017         	goto	l4324
 11406   003070                     u3430:
 11407   003070  501B               	movf	___fldiv@rem^0,w,c
 11408   003072  101C               	iorwf	(___fldiv@rem+1)^0,w,c
 11409   003074  101D               	iorwf	(___fldiv@rem+2)^0,w,c
 11410   003076  101E               	iorwf	(___fldiv@rem+3)^0,w,c
 11411   003078  B4D8               	btfsc	status,2,c
 11412   00307A  EF41  F018         	goto	u3441
 11413   00307E  EF43  F018         	goto	u3440
 11414   003082                     u3441:
 11415   003082  EF5B  F018         	goto	l4350
 11416   003086                     u3440:
 11417   003086  8022               	bsf	___fldiv@grs^0,0,c
 11418   003088  EF5B  F018         	goto	l4350
 11419   00308C                     l4344:
 11420   00308C  90D8               	bcf	status,0,c
 11421   00308E  360F               	rlcf	___fldiv@b^0,f,c
 11422   003090  3610               	rlcf	(___fldiv@b+1)^0,f,c
 11423   003092  3611               	rlcf	(___fldiv@b+2)^0,f,c
 11424   003094  3612               	rlcf	(___fldiv@b+3)^0,f,c
 11425   003096  AE25               	btfss	(___fldiv@grs+3)^0,7,c
 11426   003098  EF50  F018         	goto	u3451
 11427   00309C  EF52  F018         	goto	u3450
 11428   0030A0                     u3451:
 11429   0030A0  EF53  F018         	goto	l1480
 11430   0030A4                     u3450:
 11431   0030A4  800F               	bsf	___fldiv@b^0,0,c
 11432   0030A6                     l1480:
 11433   0030A6  90D8               	bcf	status,0,c
 11434   0030A8  3622               	rlcf	___fldiv@grs^0,f,c
 11435   0030AA  3623               	rlcf	(___fldiv@grs+1)^0,f,c
 11436   0030AC  3624               	rlcf	(___fldiv@grs+2)^0,f,c
 11437   0030AE  3625               	rlcf	(___fldiv@grs+3)^0,f,c
 11438   0030B0  0620               	decf	___fldiv@new_exp^0,f,c
 11439   0030B2  A0D8               	btfss	status,0,c
 11440   0030B4  0621               	decf	(___fldiv@new_exp+1)^0,f,c
 11441   0030B6                     l4350:
 11442   0030B6  AE11               	btfss	(___fldiv@b+2)^0,7,c
 11443   0030B8  EF60  F018         	goto	u3461
 11444   0030BC  EF62  F018         	goto	u3460
 11445   0030C0                     u3461:
 11446   0030C0  EF46  F018         	goto	l4344
 11447   0030C4                     u3460:
 11448   0030C4  0E00               	movlw	0
 11449   0030C6  6E27               	movwf	___fldiv@aexp^0,c
 11450   0030C8  AE25               	btfss	(___fldiv@grs+3)^0,7,c
 11451   0030CA  EF69  F018         	goto	u3471
 11452   0030CE  EF6B  F018         	goto	u3470
 11453   0030D2                     u3471:
 11454   0030D2  EF8F  F018         	goto	l1482
 11455   0030D6                     u3470:
 11456   0030D6  0EFF               	movlw	255
 11457   0030D8  1422               	andwf	___fldiv@grs^0,w,c
 11458   0030DA  6E17               	movwf	??___fldiv^0,c
 11459   0030DC  0EFF               	movlw	255
 11460   0030DE  1423               	andwf	(___fldiv@grs+1)^0,w,c
 11461   0030E0  6E18               	movwf	(??___fldiv+1)^0,c
 11462   0030E2  0EFF               	movlw	255
 11463   0030E4  1424               	andwf	(___fldiv@grs+2)^0,w,c
 11464   0030E6  6E19               	movwf	(??___fldiv+2)^0,c
 11465   0030E8  0E7F               	movlw	127
 11466   0030EA  1425               	andwf	(___fldiv@grs+3)^0,w,c
 11467   0030EC  6E1A               	movwf	(??___fldiv+3)^0,c
 11468   0030EE  5017               	movf	??___fldiv^0,w,c
 11469   0030F0  1018               	iorwf	(??___fldiv+1)^0,w,c
 11470   0030F2  1019               	iorwf	(??___fldiv+2)^0,w,c
 11471   0030F4  101A               	iorwf	(??___fldiv+3)^0,w,c
 11472   0030F6  B4D8               	btfsc	status,2,c
 11473   0030F8  EF80  F018         	goto	u3481
 11474   0030FC  EF82  F018         	goto	u3480
 11475   003100                     u3481:
 11476   003100  EF86  F018         	goto	l1483
 11477   003104                     u3480:
 11478   003104                     l4358:
 11479   003104  0E01               	movlw	1
 11480   003106  6E27               	movwf	___fldiv@aexp^0,c
 11481   003108  EF8F  F018         	goto	l1482
 11482   00310C                     l1483:
 11483   00310C  A00F               	btfss	___fldiv@b^0,0,c
 11484   00310E  EF8B  F018         	goto	u3491
 11485   003112  EF8D  F018         	goto	u3490
 11486   003116                     u3491:
 11487   003116  EF8F  F018         	goto	l1482
 11488   00311A                     u3490:
 11489   00311A  EF82  F018         	goto	l4358
 11490   00311E                     l1482:
 11491   00311E  5027               	movf	___fldiv@aexp^0,w,c
 11492   003120  B4D8               	btfsc	status,2,c
 11493   003122  EF95  F018         	goto	u3501
 11494   003126  EF97  F018         	goto	u3500
 11495   00312A                     u3501:
 11496   00312A  EFBB  F018         	goto	l4370
 11497   00312E                     u3500:
 11498   00312E  0E01               	movlw	1
 11499   003130  260F               	addwf	___fldiv@b^0,f,c
 11500   003132  0E00               	movlw	0
 11501   003134  2210               	addwfc	(___fldiv@b+1)^0,f,c
 11502   003136  2211               	addwfc	(___fldiv@b+2)^0,f,c
 11503   003138  2212               	addwfc	(___fldiv@b+3)^0,f,c
 11504   00313A  A012               	btfss	(___fldiv@b+3)^0,0,c
 11505   00313C  EFA2  F018         	goto	u3511
 11506   003140  EFA4  F018         	goto	u3510
 11507   003144                     u3511:
 11508   003144  EFBB  F018         	goto	l4370
 11509   003148                     u3510:
 11510   003148  C00F  F017         	movff	___fldiv@b,??___fldiv
 11511   00314C  C010  F018         	movff	___fldiv@b+1,??___fldiv+1
 11512   003150  C011  F019         	movff	___fldiv@b+2,??___fldiv+2
 11513   003154  C012  F01A         	movff	___fldiv@b+3,??___fldiv+3
 11514   003158  341A               	rlcf	(??___fldiv+3)^0,w,c
 11515   00315A  321A               	rrcf	(??___fldiv+3)^0,f,c
 11516   00315C  3219               	rrcf	(??___fldiv+2)^0,f,c
 11517   00315E  3218               	rrcf	(??___fldiv+1)^0,f,c
 11518   003160  3217               	rrcf	??___fldiv^0,f,c
 11519   003162  C017  F00F         	movff	??___fldiv,___fldiv@b
 11520   003166  C018  F010         	movff	??___fldiv+1,___fldiv@b+1
 11521   00316A  C019  F011         	movff	??___fldiv+2,___fldiv@b+2
 11522   00316E  C01A  F012         	movff	??___fldiv+3,___fldiv@b+3
 11523   003172  4A20               	infsnz	___fldiv@new_exp^0,f,c
 11524   003174  2A21               	incf	(___fldiv@new_exp+1)^0,f,c
 11525   003176                     l4370:
 11526   003176  BE21               	btfsc	(___fldiv@new_exp+1)^0,7,c
 11527   003178  EFC6  F018         	goto	u3521
 11528   00317C  5021               	movf	(___fldiv@new_exp+1)^0,w,c
 11529   00317E  E108               	bnz	u3520
 11530   003180  2820               	incf	___fldiv@new_exp^0,w,c
 11531   003182  A0D8               	btfss	status,0,c
 11532   003184  EFC6  F018         	goto	u3521
 11533   003188  EFC8  F018         	goto	u3520
 11534   00318C                     u3521:
 11535   00318C  EFD3  F018         	goto	l4374
 11536   003190                     u3520:
 11537   003190  0E00               	movlw	0
 11538   003192  6E21               	movwf	(___fldiv@new_exp+1)^0,c
 11539   003194  6820               	setf	___fldiv@new_exp^0,c
 11540   003196  0E00               	movlw	0
 11541   003198  6E0F               	movwf	___fldiv@b^0,c
 11542   00319A  0E00               	movlw	0
 11543   00319C  6E10               	movwf	(___fldiv@b+1)^0,c
 11544   00319E  0E00               	movlw	0
 11545   0031A0  6E11               	movwf	(___fldiv@b+2)^0,c
 11546   0031A2  0E00               	movlw	0
 11547   0031A4  6E12               	movwf	(___fldiv@b+3)^0,c
 11548   0031A6                     l4374:
 11549   0031A6  BE21               	btfsc	(___fldiv@new_exp+1)^0,7,c
 11550   0031A8  EFE0  F018         	goto	u3530
 11551   0031AC  5021               	movf	(___fldiv@new_exp+1)^0,w,c
 11552   0031AE  E106               	bnz	u3531
 11553   0031B0  0420               	decf	___fldiv@new_exp^0,w,c
 11554   0031B2  B0D8               	btfsc	status,0,c
 11555   0031B4  EFDE  F018         	goto	u3531
 11556   0031B8  EFE0  F018         	goto	u3530
 11557   0031BC                     u3531:
 11558   0031BC  EFEE  F018         	goto	l4378
 11559   0031C0                     u3530:
 11560   0031C0  0E00               	movlw	0
 11561   0031C2  6E21               	movwf	(___fldiv@new_exp+1)^0,c
 11562   0031C4  0E00               	movlw	0
 11563   0031C6  6E20               	movwf	___fldiv@new_exp^0,c
 11564   0031C8  0E00               	movlw	0
 11565   0031CA  6E0F               	movwf	___fldiv@b^0,c
 11566   0031CC  0E00               	movlw	0
 11567   0031CE  6E10               	movwf	(___fldiv@b+1)^0,c
 11568   0031D0  0E00               	movlw	0
 11569   0031D2  6E11               	movwf	(___fldiv@b+2)^0,c
 11570   0031D4  0E00               	movlw	0
 11571   0031D6  6E12               	movwf	(___fldiv@b+3)^0,c
 11572   0031D8  0E00               	movlw	0
 11573   0031DA  6E1F               	movwf	___fldiv@sign^0,c
 11574   0031DC                     l4378:
 11575   0031DC  C020  F026         	movff	___fldiv@new_exp,___fldiv@bexp
 11576   0031E0  A026               	btfss	___fldiv@bexp^0,0,c
 11577   0031E2  EFF5  F018         	goto	u3541
 11578   0031E6  EFF7  F018         	goto	u3540
 11579   0031EA                     u3541:
 11580   0031EA  EFFA  F018         	goto	l4384
 11581   0031EE                     u3540:
 11582   0031EE  8E11               	bsf	(___fldiv@b+2)^0,7,c
 11583   0031F0  EFFB  F018         	goto	l4386
 11584   0031F4                     l4384:
 11585   0031F4  9E11               	bcf	(___fldiv@b+2)^0,7,c
 11586   0031F6                     l4386:
 11587   0031F6  90D8               	bcf	status,0,c
 11588   0031F8  3026               	rrcf	___fldiv@bexp^0,w,c
 11589   0031FA  6E12               	movwf	(___fldiv@b+3)^0,c
 11590   0031FC  EFB1  F017         	goto	l4300
 11591   003200                     l1469:
 11592   003200  0012               	return		;funcret
 11593   003202                     __end_of___fldiv:
 11594                           	callstack 0
 11595                           
 11596 ;; *************** function _SYSTEM_Initialize *****************
 11597 ;; Defined at:
 11598 ;;		line 50 in file "mcc_generated_files/mcc.c"
 11599 ;; Parameters:    Size  Location     Type
 11600 ;;		None
 11601 ;; Auto vars:     Size  Location     Type
 11602 ;;		None
 11603 ;; Return value:  Size  Location     Type
 11604 ;;                  1    wreg      void 
 11605 ;; Registers used:
 11606 ;;		wreg, status,2, status,0, cstack
 11607 ;; Tracked objects:
 11608 ;;		On entry : 0/0
 11609 ;;		On exit  : 0/0
 11610 ;;		Unchanged: 0/0
 11611 ;; Data sizes:     COMRAM   BANK0   BANK1   BANK2   BANK3   BANK4   BANK5   BANK6   BANK7   BANK8   BANK9  BANK10  BANK1
      +1  BANK12  BANK13  BANK14  BANK15
 11612 ;;      Params:         0       0       0       0       0       0       0       0       0       0       0       0       
      +0       0       0       0       0
 11613 ;;      Locals:         0       0       0       0       0       0       0       0       0       0       0       0       
      +0       0       0       0       0
 11614 ;;      Temps:          0       0       0       0       0       0       0       0       0       0       0       0       
      +0       0       0       0       0
 11615 ;;      Totals:         0       0       0       0       0       0       0       0       0       0       0       0       
      +0       0       0       0       0
 11616 ;;Total ram usage:        0 bytes
 11617 ;; Hardware stack levels used: 1
 11618 ;; Hardware stack levels required when called: 4
 11619 ;; This function calls:
 11620 ;;		_INTERRUPT_Initialize
 11621 ;;		_OSCILLATOR_Initialize
 11622 ;;		_PIN_MANAGER_Initialize
 11623 ;;		_PMD_Initialize
 11624 ;;		_PWM5_Initialize
 11625 ;;		_PWM6_Initialize
 11626 ;;		_TMR2_Initialize
 11627 ;;		_TMR4_Initialize
 11628 ;;		_TMR6_Initialize
 11629 ;;		_UART1_Initialize
 11630 ;; This function is called by:
 11631 ;;		_main
 11632 ;; This function uses a non-reentrant model
 11633 ;;
 11634                           
 11635                           	psect	text48
 11636   005352                     __ptext48:
 11637                           	callstack 0
 11638   005352                     _SYSTEM_Initialize:
 11639                           	callstack 26
 11640   005352                     
 11641                           ;mcc_generated_files/mcc.c: 52:     INTERRUPT_Initialize();
 11642   005352  EC6A  F02A         	call	_INTERRUPT_Initialize	;wreg free
 11643   005356                     
 11644                           ;mcc_generated_files/mcc.c: 53:     PMD_Initialize();
 11645   005356  ECD3  F029         	call	_PMD_Initialize	;wreg free
 11646   00535A                     
 11647                           ;mcc_generated_files/mcc.c: 54:     PIN_MANAGER_Initialize();
 11648   00535A  EC91  F023         	call	_PIN_MANAGER_Initialize	;wreg free
 11649   00535E                     
 11650                           ;mcc_generated_files/mcc.c: 55:     OSCILLATOR_Initialize();
 11651   00535E  EC12  F02A         	call	_OSCILLATOR_Initialize	;wreg free
 11652   005362                     
 11653                           ;mcc_generated_files/mcc.c: 56:     PWM6_Initialize();
 11654   005362  EC29  F02A         	call	_PWM6_Initialize	;wreg free
 11655   005366                     
 11656                           ;mcc_generated_files/mcc.c: 57:     TMR6_Initialize();
 11657   005366  ECF6  F029         	call	_TMR6_Initialize	;wreg free
 11658   00536A                     
 11659                           ;mcc_generated_files/mcc.c: 58:     TMR4_Initialize();
 11660   00536A  EC68  F029         	call	_TMR4_Initialize	;wreg free
 11661   00536E                     
 11662                           ;mcc_generated_files/mcc.c: 59:     TMR2_Initialize();
 11663   00536E  EC7E  F029         	call	_TMR2_Initialize	;wreg free
 11664   005372                     
 11665                           ;mcc_generated_files/mcc.c: 60:     PWM5_Initialize();
 11666   005372  EC33  F02A         	call	_PWM5_Initialize	;wreg free
 11667   005376                     
 11668                           ;mcc_generated_files/mcc.c: 61:     UART1_Initialize();
 11669   005376  EC50  F027         	call	_UART1_Initialize	;wreg free
 11670   00537A  0012               	return		;funcret
 11671   00537C                     __end_of_SYSTEM_Initialize:
 11672                           	callstack 0
 11673                           
 11674 ;; *************** function _UART1_Initialize *****************
 11675 ;; Defined at:
 11676 ;;		line 66 in file "mcc_generated_files/uart1.c"
 11677 ;; Parameters:    Size  Location     Type
 11678 ;;		None
 11679 ;; Auto vars:     Size  Location     Type
 11680 ;;		None
 11681 ;; Return value:  Size  Location     Type
 11682 ;;                  1    wreg      void 
 11683 ;; Registers used:
 11684 ;;		wreg, status,2, status,0, cstack
 11685 ;; Tracked objects:
 11686 ;;		On entry : 0/0
 11687 ;;		On exit  : 0/0
 11688 ;;		Unchanged: 0/0
 11689 ;; Data sizes:     COMRAM   BANK0   BANK1   BANK2   BANK3   BANK4   BANK5   BANK6   BANK7   BANK8   BANK9  BANK10  BANK1
      +1  BANK12  BANK13  BANK14  BANK15
 11690 ;;      Params:         0       0       0       0       0       0       0       0       0       0       0       0       
      +0       0       0       0       0
 11691 ;;      Locals:         0       0       0       0       0       0       0       0       0       0       0       0       
      +0       0       0       0       0
 11692 ;;      Temps:          0       0       0       0       0       0       0       0       0       0       0       0       
      +0       0       0       0       0
 11693 ;;      Totals:         0       0       0       0       0       0       0       0       0       0       0       0       
      +0       0       0       0       0
 11694 ;;Total ram usage:        0 bytes
 11695 ;; Hardware stack levels used: 1
 11696 ;; Hardware stack levels required when called: 3
 11697 ;; This function calls:
 11698 ;;		_UART1_SetErrorHandler
 11699 ;;		_UART1_SetFramingErrorHandler
 11700 ;;		_UART1_SetOverrunErrorHandler
 11701 ;; This function is called by:
 11702 ;;		_SYSTEM_Initialize
 11703 ;; This function uses a non-reentrant model
 11704 ;;
 11705                           
 11706                           	psect	text49
 11707   004EA0                     __ptext49:
 11708                           	callstack 0
 11709   004EA0                     _UART1_Initialize:
 11710                           	callstack 26
 11711   004EA0                     
 11712                           ;mcc_generated_files/uart1.c: 73:     U1P1L = 0x00;
 11713   004EA0  0E00               	movlw	0
 11714   004EA2  013D               	movlb	61	; () banked
 11715   004EA4  6FEC               	movwf	236,b	;volatile
 11716                           
 11717                           ;mcc_generated_files/uart1.c: 76:     U1P1H = 0x00;
 11718   004EA6  0E00               	movlw	0
 11719   004EA8  6FED               	movwf	237,b	;volatile
 11720                           
 11721                           ;mcc_generated_files/uart1.c: 79:     U1P2L = 0x00;
 11722   004EAA  0E00               	movlw	0
 11723   004EAC  6FEE               	movwf	238,b	;volatile
 11724                           
 11725                           ;mcc_generated_files/uart1.c: 82:     U1P2H = 0x00;
 11726   004EAE  0E00               	movlw	0
 11727   004EB0  6FEF               	movwf	239,b	;volatile
 11728                           
 11729                           ;mcc_generated_files/uart1.c: 85:     U1P3L = 0x00;
 11730   004EB2  0E00               	movlw	0
 11731   004EB4  6FF0               	movwf	240,b	;volatile
 11732                           
 11733                           ;mcc_generated_files/uart1.c: 88:     U1P3H = 0x00;
 11734   004EB6  0E00               	movlw	0
 11735   004EB8  6FF1               	movwf	241,b	;volatile
 11736                           
 11737                           ;mcc_generated_files/uart1.c: 91:     U1CON0 = 0xB0;
 11738   004EBA  0EB0               	movlw	176
 11739   004EBC  6FF2               	movwf	242,b	;volatile
 11740                           
 11741                           ;mcc_generated_files/uart1.c: 94:     U1CON1 = 0x80;
 11742   004EBE  0E80               	movlw	128
 11743   004EC0  6FF3               	movwf	243,b	;volatile
 11744                           
 11745                           ;mcc_generated_files/uart1.c: 97:     U1CON2 = 0x00;
 11746   004EC2  0E00               	movlw	0
 11747   004EC4  6FF4               	movwf	244,b	;volatile
 11748                           
 11749                           ;mcc_generated_files/uart1.c: 100:     U1BRGL = 0xA0;
 11750   004EC6  0EA0               	movlw	160
 11751   004EC8  6FF5               	movwf	245,b	;volatile
 11752                           
 11753                           ;mcc_generated_files/uart1.c: 103:     U1BRGH = 0x01;
 11754   004ECA  0E01               	movlw	1
 11755   004ECC  6FF6               	movwf	246,b	;volatile
 11756                           
 11757                           ;mcc_generated_files/uart1.c: 106:     U1FIFO = 0x00;
 11758   004ECE  0E00               	movlw	0
 11759   004ED0  6FF7               	movwf	247,b	;volatile
 11760                           
 11761                           ;mcc_generated_files/uart1.c: 109:     U1UIR = 0x00;
 11762   004ED2  0E00               	movlw	0
 11763   004ED4  6FF8               	movwf	248,b	;volatile
 11764                           
 11765                           ;mcc_generated_files/uart1.c: 112:     U1ERRIR = 0x00;
 11766   004ED6  0E00               	movlw	0
 11767   004ED8  6FF9               	movwf	249,b	;volatile
 11768                           
 11769                           ;mcc_generated_files/uart1.c: 115:     U1ERRIE = 0x00;
 11770   004EDA  0E00               	movlw	0
 11771   004EDC  6FFA               	movwf	250,b	;volatile
 11772   004EDE                     
 11773                           ; BSR set to: 61
 11774                           ;mcc_generated_files/uart1.c: 118:     UART1_SetFramingErrorHandler(UART1_DefaultFraming
      +                          ErrorHandler);
 11775   004EDE  0EDE               	movlw	low _UART1_DefaultFramingErrorHandler
 11776   004EE0  6E01               	movwf	UART1_SetFramingErrorHandler@interruptHandler^0,c
 11777   004EE2  0E54               	movlw	high _UART1_DefaultFramingErrorHandler
 11778   004EE4  6E02               	movwf	(UART1_SetFramingErrorHandler@interruptHandler+1)^0,c
 11779   004EE6  EC56  F02A         	call	_UART1_SetFramingErrorHandler	;wreg free
 11780   004EEA                     
 11781                           ;mcc_generated_files/uart1.c: 119:     UART1_SetOverrunErrorHandler(UART1_DefaultOverrun
      +                          ErrorHandler);
 11782   004EEA  0EDC               	movlw	low _UART1_DefaultOverrunErrorHandler
 11783   004EEC  6E01               	movwf	UART1_SetOverrunErrorHandler@interruptHandler^0,c
 11784   004EEE  0E54               	movlw	high _UART1_DefaultOverrunErrorHandler
 11785   004EF0  6E02               	movwf	(UART1_SetOverrunErrorHandler@interruptHandler+1)^0,c
 11786   004EF2  EC51  F02A         	call	_UART1_SetOverrunErrorHandler	;wreg free
 11787   004EF6                     
 11788                           ;mcc_generated_files/uart1.c: 120:     UART1_SetErrorHandler(UART1_DefaultErrorHandler);
 11789   004EF6  0EE0               	movlw	low _UART1_DefaultErrorHandler
 11790   004EF8  6E01               	movwf	UART1_SetErrorHandler@interruptHandler^0,c
 11791   004EFA  0E54               	movlw	high _UART1_DefaultErrorHandler
 11792   004EFC  6E02               	movwf	(UART1_SetErrorHandler@interruptHandler+1)^0,c
 11793   004EFE  EC5B  F02A         	call	_UART1_SetErrorHandler	;wreg free
 11794   004F02                     
 11795                           ;mcc_generated_files/uart1.c: 122:     uart1RxLastError.status = 0;
 11796   004F02  0E00               	movlw	0
 11797   004F04  0100               	movlb	0	; () banked
 11798   004F06  6FF9               	movwf	_uart1RxLastError& (0+255),b	;volatile
 11799   004F08                     
 11800                           ; BSR set to: 0
 11801   004F08  0012               	return		;funcret
 11802   004F0A                     __end_of_UART1_Initialize:
 11803                           	callstack 0
 11804                           
 11805 ;; *************** function _UART1_SetOverrunErrorHandler *****************
 11806 ;; Defined at:
 11807 ;;		line 194 in file "mcc_generated_files/uart1.c"
 11808 ;; Parameters:    Size  Location     Type
 11809 ;;  interruptHan    2    0[COMRAM] PTR FTN()void 
 11810 ;;		 -> UART1_DefaultOverrunErrorHandler(1), 
 11811 ;; Auto vars:     Size  Location     Type
 11812 ;;		None
 11813 ;; Return value:  Size  Location     Type
 11814 ;;                  1    wreg      void 
 11815 ;; Registers used:
 11816 ;;		wreg, status,2, status,0
 11817 ;; Tracked objects:
 11818 ;;		On entry : 0/0
 11819 ;;		On exit  : 0/0
 11820 ;;		Unchanged: 0/0
 11821 ;; Data sizes:     COMRAM   BANK0   BANK1   BANK2   BANK3   BANK4   BANK5   BANK6   BANK7   BANK8   BANK9  BANK10  BANK1
      +1  BANK12  BANK13  BANK14  BANK15
 11822 ;;      Params:         2       0       0       0       0       0       0       0       0       0       0       0       
      +0       0       0       0       0
 11823 ;;      Locals:         0       0       0       0       0       0       0       0       0       0       0       0       
      +0       0       0       0       0
 11824 ;;      Temps:          0       0       0       0       0       0       0       0       0       0       0       0       
      +0       0       0       0       0
 11825 ;;      Totals:         2       0       0       0       0       0       0       0       0       0       0       0       
      +0       0       0       0       0
 11826 ;;Total ram usage:        2 bytes
 11827 ;; Hardware stack levels used: 1
 11828 ;; Hardware stack levels required when called: 2
 11829 ;; This function calls:
 11830 ;;		Nothing
 11831 ;; This function is called by:
 11832 ;;		_UART1_Initialize
 11833 ;; This function uses a non-reentrant model
 11834 ;;
 11835                           
 11836                           	psect	text50
 11837   0054A2                     __ptext50:
 11838                           	callstack 0
 11839   0054A2                     _UART1_SetOverrunErrorHandler:
 11840                           	callstack 26
 11841   0054A2                     
 11842                           ;mcc_generated_files/uart1.c: 195:     UART1_OverrunErrorHandler = interruptHandler;
 11843   0054A2  C001  F1FC         	movff	UART1_SetOverrunErrorHandler@interruptHandler,_UART1_OverrunErrorHandler
 11844   0054A6  C002  F1FD         	movff	UART1_SetOverrunErrorHandler@interruptHandler+1,_UART1_OverrunErrorHandler+1
 11845   0054AA  0012               	return		;funcret
 11846   0054AC                     __end_of_UART1_SetOverrunErrorHandler:
 11847                           	callstack 0
 11848                           
 11849 ;; *************** function _UART1_SetFramingErrorHandler *****************
 11850 ;; Defined at:
 11851 ;;		line 190 in file "mcc_generated_files/uart1.c"
 11852 ;; Parameters:    Size  Location     Type
 11853 ;;  interruptHan    2    0[COMRAM] PTR FTN()void 
 11854 ;;		 -> UART1_DefaultFramingErrorHandler(1), 
 11855 ;; Auto vars:     Size  Location     Type
 11856 ;;		None
 11857 ;; Return value:  Size  Location     Type
 11858 ;;                  1    wreg      void 
 11859 ;; Registers used:
 11860 ;;		wreg, status,2, status,0
 11861 ;; Tracked objects:
 11862 ;;		On entry : 0/0
 11863 ;;		On exit  : 0/0
 11864 ;;		Unchanged: 0/0
 11865 ;; Data sizes:     COMRAM   BANK0   BANK1   BANK2   BANK3   BANK4   BANK5   BANK6   BANK7   BANK8   BANK9  BANK10  BANK1
      +1  BANK12  BANK13  BANK14  BANK15
 11866 ;;      Params:         2       0       0       0       0       0       0       0       0       0       0       0       
      +0       0       0       0       0
 11867 ;;      Locals:         0       0       0       0       0       0       0       0       0       0       0       0       
      +0       0       0       0       0
 11868 ;;      Temps:          0       0       0       0       0       0       0       0       0       0       0       0       
      +0       0       0       0       0
 11869 ;;      Totals:         2       0       0       0       0       0       0       0       0       0       0       0       
      +0       0       0       0       0
 11870 ;;Total ram usage:        2 bytes
 11871 ;; Hardware stack levels used: 1
 11872 ;; Hardware stack levels required when called: 2
 11873 ;; This function calls:
 11874 ;;		Nothing
 11875 ;; This function is called by:
 11876 ;;		_UART1_Initialize
 11877 ;; This function uses a non-reentrant model
 11878 ;;
 11879                           
 11880                           	psect	text51
 11881   0054AC                     __ptext51:
 11882                           	callstack 0
 11883   0054AC                     _UART1_SetFramingErrorHandler:
 11884                           	callstack 26
 11885   0054AC                     
 11886                           ;mcc_generated_files/uart1.c: 191:     UART1_FramingErrorHandler = interruptHandler;
 11887   0054AC  C001  F1FE         	movff	UART1_SetFramingErrorHandler@interruptHandler,_UART1_FramingErrorHandler
 11888   0054B0  C002  F1FF         	movff	UART1_SetFramingErrorHandler@interruptHandler+1,_UART1_FramingErrorHandler+1
 11889   0054B4  0012               	return		;funcret
 11890   0054B6                     __end_of_UART1_SetFramingErrorHandler:
 11891                           	callstack 0
 11892                           
 11893 ;; *************** function _UART1_SetErrorHandler *****************
 11894 ;; Defined at:
 11895 ;;		line 198 in file "mcc_generated_files/uart1.c"
 11896 ;; Parameters:    Size  Location     Type
 11897 ;;  interruptHan    2    0[COMRAM] PTR FTN()void 
 11898 ;;		 -> UART1_DefaultErrorHandler(1), 
 11899 ;; Auto vars:     Size  Location     Type
 11900 ;;		None
 11901 ;; Return value:  Size  Location     Type
 11902 ;;                  1    wreg      void 
 11903 ;; Registers used:
 11904 ;;		wreg, status,2, status,0
 11905 ;; Tracked objects:
 11906 ;;		On entry : 0/0
 11907 ;;		On exit  : 0/0
 11908 ;;		Unchanged: 0/0
 11909 ;; Data sizes:     COMRAM   BANK0   BANK1   BANK2   BANK3   BANK4   BANK5   BANK6   BANK7   BANK8   BANK9  BANK10  BANK1
      +1  BANK12  BANK13  BANK14  BANK15
 11910 ;;      Params:         2       0       0       0       0       0       0       0       0       0       0       0       
      +0       0       0       0       0
 11911 ;;      Locals:         0       0       0       0       0       0       0       0       0       0       0       0       
      +0       0       0       0       0
 11912 ;;      Temps:          0       0       0       0       0       0       0       0       0       0       0       0       
      +0       0       0       0       0
 11913 ;;      Totals:         2       0       0       0       0       0       0       0       0       0       0       0       
      +0       0       0       0       0
 11914 ;;Total ram usage:        2 bytes
 11915 ;; Hardware stack levels used: 1
 11916 ;; Hardware stack levels required when called: 2
 11917 ;; This function calls:
 11918 ;;		Nothing
 11919 ;; This function is called by:
 11920 ;;		_UART1_Initialize
 11921 ;; This function uses a non-reentrant model
 11922 ;;
 11923                           
 11924                           	psect	text52
 11925   0054B6                     __ptext52:
 11926                           	callstack 0
 11927   0054B6                     _UART1_SetErrorHandler:
 11928                           	callstack 26
 11929   0054B6                     
 11930                           ;mcc_generated_files/uart1.c: 199:     UART1_ErrorHandler = interruptHandler;
 11931   0054B6  C001  F1FA         	movff	UART1_SetErrorHandler@interruptHandler,_UART1_ErrorHandler
 11932   0054BA  C002  F1FB         	movff	UART1_SetErrorHandler@interruptHandler+1,_UART1_ErrorHandler+1
 11933   0054BE  0012               	return		;funcret
 11934   0054C0                     __end_of_UART1_SetErrorHandler:
 11935                           	callstack 0
 11936                           
 11937 ;; *************** function _TMR6_Initialize *****************
 11938 ;; Defined at:
 11939 ;;		line 62 in file "mcc_generated_files/tmr6.c"
 11940 ;; Parameters:    Size  Location     Type
 11941 ;;		None
 11942 ;; Auto vars:     Size  Location     Type
 11943 ;;		None
 11944 ;; Return value:  Size  Location     Type
 11945 ;;                  1    wreg      void 
 11946 ;; Registers used:
 11947 ;;		wreg, status,2
 11948 ;; Tracked objects:
 11949 ;;		On entry : 0/0
 11950 ;;		On exit  : 0/0
 11951 ;;		Unchanged: 0/0
 11952 ;; Data sizes:     COMRAM   BANK0   BANK1   BANK2   BANK3   BANK4   BANK5   BANK6   BANK7   BANK8   BANK9  BANK10  BANK1
      +1  BANK12  BANK13  BANK14  BANK15
 11953 ;;      Params:         0       0       0       0       0       0       0       0       0       0       0       0       
      +0       0       0       0       0
 11954 ;;      Locals:         0       0       0       0       0       0       0       0       0       0       0       0       
      +0       0       0       0       0
 11955 ;;      Temps:          0       0       0       0       0       0       0       0       0       0       0       0       
      +0       0       0       0       0
 11956 ;;      Totals:         0       0       0       0       0       0       0       0       0       0       0       0       
      +0       0       0       0       0
 11957 ;;Total ram usage:        0 bytes
 11958 ;; Hardware stack levels used: 1
 11959 ;; Hardware stack levels required when called: 2
 11960 ;; This function calls:
 11961 ;;		Nothing
 11962 ;; This function is called by:
 11963 ;;		_SYSTEM_Initialize
 11964 ;; This function uses a non-reentrant model
 11965 ;;
 11966                           
 11967                           	psect	text53
 11968   0053EC                     __ptext53:
 11969                           	callstack 0
 11970   0053EC                     _TMR6_Initialize:
 11971                           	callstack 27
 11972   0053EC                     
 11973                           ;mcc_generated_files/tmr6.c: 67:     T6CLKCON = 0x01;
 11974   0053EC  0E01               	movlw	1
 11975   0053EE  6E96               	movwf	150,c	;volatile
 11976                           
 11977                           ;mcc_generated_files/tmr6.c: 70:     T6HLT = 0x00;
 11978   0053F0  0E00               	movlw	0
 11979   0053F2  6E95               	movwf	149,c	;volatile
 11980                           
 11981                           ;mcc_generated_files/tmr6.c: 73:     T6RST = 0x00;
 11982   0053F4  0E00               	movlw	0
 11983   0053F6  6E97               	movwf	151,c	;volatile
 11984                           
 11985                           ;mcc_generated_files/tmr6.c: 76:     T6PR = 0x63;
 11986   0053F8  0E63               	movlw	99
 11987   0053FA  6E93               	movwf	147,c	;volatile
 11988                           
 11989                           ;mcc_generated_files/tmr6.c: 79:     T6TMR = 0x00;
 11990   0053FC  0E00               	movlw	0
 11991   0053FE  6E92               	movwf	146,c	;volatile
 11992   005400                     
 11993                           ;mcc_generated_files/tmr6.c: 82:     PIR9bits.TMR6IF = 0;
 11994   005400  0139               	movlb	57	; () banked
 11995   005402  91A9               	bcf	169,0,b	;volatile
 11996                           
 11997                           ;mcc_generated_files/tmr6.c: 85:     T6CON = 0xA0;
 11998   005404  0EA0               	movlw	160
 11999   005406  6E94               	movwf	148,c	;volatile
 12000   005408                     
 12001                           ; BSR set to: 57
 12002   005408  0012               	return		;funcret
 12003   00540A                     __end_of_TMR6_Initialize:
 12004                           	callstack 0
 12005                           
 12006 ;; *************** function _TMR4_Initialize *****************
 12007 ;; Defined at:
 12008 ;;		line 66 in file "mcc_generated_files/tmr4.c"
 12009 ;; Parameters:    Size  Location     Type
 12010 ;;		None
 12011 ;; Auto vars:     Size  Location     Type
 12012 ;;		None
 12013 ;; Return value:  Size  Location     Type
 12014 ;;                  1    wreg      void 
 12015 ;; Registers used:
 12016 ;;		wreg, status,2, status,0, cstack
 12017 ;; Tracked objects:
 12018 ;;		On entry : 0/0
 12019 ;;		On exit  : 0/0
 12020 ;;		Unchanged: 0/0
 12021 ;; Data sizes:     COMRAM   BANK0   BANK1   BANK2   BANK3   BANK4   BANK5   BANK6   BANK7   BANK8   BANK9  BANK10  BANK1
      +1  BANK12  BANK13  BANK14  BANK15
 12022 ;;      Params:         0       0       0       0       0       0       0       0       0       0       0       0       
      +0       0       0       0       0
 12023 ;;      Locals:         0       0       0       0       0       0       0       0       0       0       0       0       
      +0       0       0       0       0
 12024 ;;      Temps:          0       0       0       0       0       0       0       0       0       0       0       0       
      +0       0       0       0       0
 12025 ;;      Totals:         0       0       0       0       0       0       0       0       0       0       0       0       
      +0       0       0       0       0
 12026 ;;Total ram usage:        0 bytes
 12027 ;; Hardware stack levels used: 1
 12028 ;; Hardware stack levels required when called: 3
 12029 ;; This function calls:
 12030 ;;		_TMR4_SetInterruptHandler
 12031 ;; This function is called by:
 12032 ;;		_SYSTEM_Initialize
 12033 ;; This function uses a non-reentrant model
 12034 ;;
 12035                           
 12036                           	psect	text54
 12037   0052D0                     __ptext54:
 12038                           	callstack 0
 12039   0052D0                     _TMR4_Initialize:
 12040                           	callstack 26
 12041   0052D0                     
 12042                           ;mcc_generated_files/tmr4.c: 71:     T4CLKCON = 0x01;
 12043   0052D0  0E01               	movlw	1
 12044   0052D2  6EA2               	movwf	162,c	;volatile
 12045                           
 12046                           ;mcc_generated_files/tmr4.c: 74:     T4HLT = 0x00;
 12047   0052D4  0E00               	movlw	0
 12048   0052D6  6EA1               	movwf	161,c	;volatile
 12049                           
 12050                           ;mcc_generated_files/tmr4.c: 77:     T4RST = 0x00;
 12051   0052D8  0E00               	movlw	0
 12052   0052DA  6EA3               	movwf	163,c	;volatile
 12053                           
 12054                           ;mcc_generated_files/tmr4.c: 80:     T4PR = 0x11;
 12055   0052DC  0E11               	movlw	17
 12056   0052DE  6E9F               	movwf	159,c	;volatile
 12057                           
 12058                           ;mcc_generated_files/tmr4.c: 83:     T4TMR = 0x00;
 12059   0052E0  0E00               	movlw	0
 12060   0052E2  6E9E               	movwf	158,c	;volatile
 12061   0052E4                     
 12062                           ;mcc_generated_files/tmr4.c: 86:     PIR7bits.TMR4IF = 0;
 12063   0052E4  0139               	movlb	57	; () banked
 12064   0052E6  91A7               	bcf	167,0,b	;volatile
 12065   0052E8                     
 12066                           ; BSR set to: 57
 12067                           ;mcc_generated_files/tmr4.c: 89:     PIE7bits.TMR4IE = 1;
 12068   0052E8  8197               	bsf	151,0,b	;volatile
 12069   0052EA                     
 12070                           ; BSR set to: 57
 12071                           ;mcc_generated_files/tmr4.c: 92:     TMR4_SetInterruptHandler(TMR4_DefaultInterruptHandl
      +                          er);
 12072   0052EA  0E00               	movlw	0
 12073   0052EC  6E01               	movwf	TMR4_SetInterruptHandler@InterruptHandler^0,c
 12074   0052EE  0E00               	movlw	0
 12075   0052F0  6E02               	movwf	(TMR4_SetInterruptHandler@InterruptHandler+1)^0,c
 12076   0052F2  EC60  F02A         	call	_TMR4_SetInterruptHandler	;wreg free
 12077   0052F6                     
 12078                           ;mcc_generated_files/tmr4.c: 95:     T4CON = 0xC2;
 12079   0052F6  0EC2               	movlw	194
 12080   0052F8  6EA0               	movwf	160,c	;volatile
 12081   0052FA  0012               	return		;funcret
 12082   0052FC                     __end_of_TMR4_Initialize:
 12083                           	callstack 0
 12084                           
 12085 ;; *************** function _TMR4_SetInterruptHandler *****************
 12086 ;; Defined at:
 12087 ;;		line 182 in file "mcc_generated_files/tmr4.c"
 12088 ;; Parameters:    Size  Location     Type
 12089 ;;  InterruptHan    2    0[COMRAM] PTR FTN()void 
 12090 ;;		 -> TMR4_DefaultInterruptHandler(1), 
 12091 ;; Auto vars:     Size  Location     Type
 12092 ;;		None
 12093 ;; Return value:  Size  Location     Type
 12094 ;;                  1    wreg      void 
 12095 ;; Registers used:
 12096 ;;		wreg, status,2, status,0
 12097 ;; Tracked objects:
 12098 ;;		On entry : 0/0
 12099 ;;		On exit  : 0/0
 12100 ;;		Unchanged: 0/0
 12101 ;; Data sizes:     COMRAM   BANK0   BANK1   BANK2   BANK3   BANK4   BANK5   BANK6   BANK7   BANK8   BANK9  BANK10  BANK1
      +1  BANK12  BANK13  BANK14  BANK15
 12102 ;;      Params:         2       0       0       0       0       0       0       0       0       0       0       0       
      +0       0       0       0       0
 12103 ;;      Locals:         0       0       0       0       0       0       0       0       0       0       0       0       
      +0       0       0       0       0
 12104 ;;      Temps:          0       0       0       0       0       0       0       0       0       0       0       0       
      +0       0       0       0       0
 12105 ;;      Totals:         2       0       0       0       0       0       0       0       0       0       0       0       
      +0       0       0       0       0
 12106 ;;Total ram usage:        2 bytes
 12107 ;; Hardware stack levels used: 1
 12108 ;; Hardware stack levels required when called: 2
 12109 ;; This function calls:
 12110 ;;		Nothing
 12111 ;; This function is called by:
 12112 ;;		_TMR4_Initialize
 12113 ;; This function uses a non-reentrant model
 12114 ;;
 12115                           
 12116                           	psect	text55
 12117   0054C0                     __ptext55:
 12118                           	callstack 0
 12119   0054C0                     _TMR4_SetInterruptHandler:
 12120                           	callstack 26
 12121   0054C0                     
 12122                           ;mcc_generated_files/tmr4.c: 183:     TMR4_InterruptHandler = InterruptHandler;
 12123   0054C0  C001  F235         	movff	TMR4_SetInterruptHandler@InterruptHandler,_TMR4_InterruptHandler
 12124   0054C4  C002  F236         	movff	TMR4_SetInterruptHandler@InterruptHandler+1,_TMR4_InterruptHandler+1
 12125   0054C8  0012               	return		;funcret
 12126   0054CA                     __end_of_TMR4_SetInterruptHandler:
 12127                           	callstack 0
 12128                           
 12129 ;; *************** function _TMR2_Initialize *****************
 12130 ;; Defined at:
 12131 ;;		line 66 in file "mcc_generated_files/tmr2.c"
 12132 ;; Parameters:    Size  Location     Type
 12133 ;;		None
 12134 ;; Auto vars:     Size  Location     Type
 12135 ;;		None
 12136 ;; Return value:  Size  Location     Type
 12137 ;;                  1    wreg      void 
 12138 ;; Registers used:
 12139 ;;		wreg, status,2, status,0, cstack
 12140 ;; Tracked objects:
 12141 ;;		On entry : 0/0
 12142 ;;		On exit  : 0/0
 12143 ;;		Unchanged: 0/0
 12144 ;; Data sizes:     COMRAM   BANK0   BANK1   BANK2   BANK3   BANK4   BANK5   BANK6   BANK7   BANK8   BANK9  BANK10  BANK1
      +1  BANK12  BANK13  BANK14  BANK15
 12145 ;;      Params:         0       0       0       0       0       0       0       0       0       0       0       0       
      +0       0       0       0       0
 12146 ;;      Locals:         0       0       0       0       0       0       0       0       0       0       0       0       
      +0       0       0       0       0
 12147 ;;      Temps:          0       0       0       0       0       0       0       0       0       0       0       0       
      +0       0       0       0       0
 12148 ;;      Totals:         0       0       0       0       0       0       0       0       0       0       0       0       
      +0       0       0       0       0
 12149 ;;Total ram usage:        0 bytes
 12150 ;; Hardware stack levels used: 1
 12151 ;; Hardware stack levels required when called: 3
 12152 ;; This function calls:
 12153 ;;		_TMR2_SetInterruptHandler
 12154 ;; This function is called by:
 12155 ;;		_SYSTEM_Initialize
 12156 ;; This function uses a non-reentrant model
 12157 ;;
 12158                           
 12159                           	psect	text56
 12160   0052FC                     __ptext56:
 12161                           	callstack 0
 12162   0052FC                     _TMR2_Initialize:
 12163                           	callstack 26
 12164   0052FC                     
 12165                           ;mcc_generated_files/tmr2.c: 71:     T2CLKCON = 0x01;
 12166   0052FC  0E01               	movlw	1
 12167   0052FE  6EAE               	movwf	174,c	;volatile
 12168                           
 12169                           ;mcc_generated_files/tmr2.c: 74:     T2HLT = 0x00;
 12170   005300  0E00               	movlw	0
 12171   005302  6EAD               	movwf	173,c	;volatile
 12172                           
 12173                           ;mcc_generated_files/tmr2.c: 77:     T2RST = 0x00;
 12174   005304  0E00               	movlw	0
 12175   005306  6EAF               	movwf	175,c	;volatile
 12176                           
 12177                           ;mcc_generated_files/tmr2.c: 80:     T2PR = 0xB2;
 12178   005308  0EB2               	movlw	178
 12179   00530A  6EAB               	movwf	171,c	;volatile
 12180                           
 12181                           ;mcc_generated_files/tmr2.c: 83:     T2TMR = 0x00;
 12182   00530C  0E00               	movlw	0
 12183   00530E  6EAA               	movwf	170,c	;volatile
 12184   005310                     
 12185                           ;mcc_generated_files/tmr2.c: 86:     PIR4bits.TMR2IF = 0;
 12186   005310  0139               	movlb	57	; () banked
 12187   005312  95A4               	bcf	164,2,b	;volatile
 12188   005314                     
 12189                           ; BSR set to: 57
 12190                           ;mcc_generated_files/tmr2.c: 89:     PIE4bits.TMR2IE = 1;
 12191   005314  8594               	bsf	148,2,b	;volatile
 12192   005316                     
 12193                           ; BSR set to: 57
 12194                           ;mcc_generated_files/tmr2.c: 92:     TMR2_SetInterruptHandler(TMR2_DefaultInterruptHandl
      +                          er);
 12195   005316  0E00               	movlw	0
 12196   005318  6E01               	movwf	TMR2_SetInterruptHandler@InterruptHandler^0,c
 12197   00531A  0E00               	movlw	0
 12198   00531C  6E02               	movwf	(TMR2_SetInterruptHandler@InterruptHandler+1)^0,c
 12199   00531E  EC65  F02A         	call	_TMR2_SetInterruptHandler	;wreg free
 12200   005322                     
 12201                           ;mcc_generated_files/tmr2.c: 95:     T2CON = 0xD6;
 12202   005322  0ED6               	movlw	214
 12203   005324  6EAC               	movwf	172,c	;volatile
 12204   005326  0012               	return		;funcret
 12205   005328                     __end_of_TMR2_Initialize:
 12206                           	callstack 0
 12207                           
 12208 ;; *************** function _TMR2_SetInterruptHandler *****************
 12209 ;; Defined at:
 12210 ;;		line 182 in file "mcc_generated_files/tmr2.c"
 12211 ;; Parameters:    Size  Location     Type
 12212 ;;  InterruptHan    2    0[COMRAM] PTR FTN()void 
 12213 ;;		 -> TMR2_DefaultInterruptHandler(1), 
 12214 ;; Auto vars:     Size  Location     Type
 12215 ;;		None
 12216 ;; Return value:  Size  Location     Type
 12217 ;;                  1    wreg      void 
 12218 ;; Registers used:
 12219 ;;		wreg, status,2, status,0
 12220 ;; Tracked objects:
 12221 ;;		On entry : 0/0
 12222 ;;		On exit  : 0/0
 12223 ;;		Unchanged: 0/0
 12224 ;; Data sizes:     COMRAM   BANK0   BANK1   BANK2   BANK3   BANK4   BANK5   BANK6   BANK7   BANK8   BANK9  BANK10  BANK1
      +1  BANK12  BANK13  BANK14  BANK15
 12225 ;;      Params:         2       0       0       0       0       0       0       0       0       0       0       0       
      +0       0       0       0       0
 12226 ;;      Locals:         0       0       0       0       0       0       0       0       0       0       0       0       
      +0       0       0       0       0
 12227 ;;      Temps:          0       0       0       0       0       0       0       0       0       0       0       0       
      +0       0       0       0       0
 12228 ;;      Totals:         2       0       0       0       0       0       0       0       0       0       0       0       
      +0       0       0       0       0
 12229 ;;Total ram usage:        2 bytes
 12230 ;; Hardware stack levels used: 1
 12231 ;; Hardware stack levels required when called: 2
 12232 ;; This function calls:
 12233 ;;		Nothing
 12234 ;; This function is called by:
 12235 ;;		_TMR2_Initialize
 12236 ;; This function uses a non-reentrant model
 12237 ;;
 12238                           
 12239                           	psect	text57
 12240   0054CA                     __ptext57:
 12241                           	callstack 0
 12242   0054CA                     _TMR2_SetInterruptHandler:
 12243                           	callstack 26
 12244   0054CA                     
 12245                           ;mcc_generated_files/tmr2.c: 183:     TMR2_InterruptHandler = InterruptHandler;
 12246   0054CA  C001  F237         	movff	TMR2_SetInterruptHandler@InterruptHandler,_TMR2_InterruptHandler
 12247   0054CE  C002  F238         	movff	TMR2_SetInterruptHandler@InterruptHandler+1,_TMR2_InterruptHandler+1
 12248   0054D2  0012               	return		;funcret
 12249   0054D4                     __end_of_TMR2_SetInterruptHandler:
 12250                           	callstack 0
 12251                           
 12252 ;; *************** function _PWM6_Initialize *****************
 12253 ;; Defined at:
 12254 ;;		line 58 in file "mcc_generated_files/pwm6.c"
 12255 ;; Parameters:    Size  Location     Type
 12256 ;;		None
 12257 ;; Auto vars:     Size  Location     Type
 12258 ;;		None
 12259 ;; Return value:  Size  Location     Type
 12260 ;;                  1    wreg      void 
 12261 ;; Registers used:
 12262 ;;		wreg, status,2
 12263 ;; Tracked objects:
 12264 ;;		On entry : 0/0
 12265 ;;		On exit  : 0/0
 12266 ;;		Unchanged: 0/0
 12267 ;; Data sizes:     COMRAM   BANK0   BANK1   BANK2   BANK3   BANK4   BANK5   BANK6   BANK7   BANK8   BANK9  BANK10  BANK1
      +1  BANK12  BANK13  BANK14  BANK15
 12268 ;;      Params:         0       0       0       0       0       0       0       0       0       0       0       0       
      +0       0       0       0       0
 12269 ;;      Locals:         0       0       0       0       0       0       0       0       0       0       0       0       
      +0       0       0       0       0
 12270 ;;      Temps:          0       0       0       0       0       0       0       0       0       0       0       0       
      +0       0       0       0       0
 12271 ;;      Totals:         0       0       0       0       0       0       0       0       0       0       0       0       
      +0       0       0       0       0
 12272 ;;Total ram usage:        0 bytes
 12273 ;; Hardware stack levels used: 1
 12274 ;; Hardware stack levels required when called: 2
 12275 ;; This function calls:
 12276 ;;		Nothing
 12277 ;; This function is called by:
 12278 ;;		_SYSTEM_Initialize
 12279 ;; This function uses a non-reentrant model
 12280 ;;
 12281                           
 12282                           	psect	text58
 12283   005452                     __ptext58:
 12284                           	callstack 0
 12285   005452                     _PWM6_Initialize:
 12286                           	callstack 27
 12287   005452                     
 12288                           ;mcc_generated_files/pwm6.c: 62:     PWM6CON = 0x90;
 12289   005452  0E90               	movlw	144
 12290   005454  6E6A               	movwf	106,c	;volatile
 12291                           
 12292                           ;mcc_generated_files/pwm6.c: 65:     PWM6DCH = 0x31;
 12293   005456  0E31               	movlw	49
 12294   005458  6E69               	movwf	105,c	;volatile
 12295                           
 12296                           ;mcc_generated_files/pwm6.c: 68:     PWM6DCL = 0xC0;
 12297   00545A  0EC0               	movlw	192
 12298   00545C  6E68               	movwf	104,c	;volatile
 12299                           
 12300                           ;mcc_generated_files/pwm6.c: 71:     CCPTMRS1bits.P6TSEL = 3;
 12301   00545E  0E0C               	movlw	12
 12302   005460  013F               	movlb	63	; () banked
 12303   005462  135F               	iorwf	95,f,b	;volatile
 12304   005464                     
 12305                           ; BSR set to: 63
 12306   005464  0012               	return		;funcret
 12307   005466                     __end_of_PWM6_Initialize:
 12308                           	callstack 0
 12309                           
 12310 ;; *************** function _PWM5_Initialize *****************
 12311 ;; Defined at:
 12312 ;;		line 58 in file "mcc_generated_files/pwm5.c"
 12313 ;; Parameters:    Size  Location     Type
 12314 ;;		None
 12315 ;; Auto vars:     Size  Location     Type
 12316 ;;		None
 12317 ;; Return value:  Size  Location     Type
 12318 ;;                  1    wreg      void 
 12319 ;; Registers used:
 12320 ;;		wreg, status,2
 12321 ;; Tracked objects:
 12322 ;;		On entry : 0/0
 12323 ;;		On exit  : 0/0
 12324 ;;		Unchanged: 0/0
 12325 ;; Data sizes:     COMRAM   BANK0   BANK1   BANK2   BANK3   BANK4   BANK5   BANK6   BANK7   BANK8   BANK9  BANK10  BANK1
      +1  BANK12  BANK13  BANK14  BANK15
 12326 ;;      Params:         0       0       0       0       0       0       0       0       0       0       0       0       
      +0       0       0       0       0
 12327 ;;      Locals:         0       0       0       0       0       0       0       0       0       0       0       0       
      +0       0       0       0       0
 12328 ;;      Temps:          0       0       0       0       0       0       0       0       0       0       0       0       
      +0       0       0       0       0
 12329 ;;      Totals:         0       0       0       0       0       0       0       0       0       0       0       0       
      +0       0       0       0       0
 12330 ;;Total ram usage:        0 bytes
 12331 ;; Hardware stack levels used: 1
 12332 ;; Hardware stack levels required when called: 2
 12333 ;; This function calls:
 12334 ;;		Nothing
 12335 ;; This function is called by:
 12336 ;;		_SYSTEM_Initialize
 12337 ;; This function uses a non-reentrant model
 12338 ;;
 12339                           
 12340                           	psect	text59
 12341   005466                     __ptext59:
 12342                           	callstack 0
 12343   005466                     _PWM5_Initialize:
 12344                           	callstack 27
 12345   005466                     
 12346                           ;mcc_generated_files/pwm5.c: 62:     PWM5CON = 0x80;
 12347   005466  0E80               	movlw	128
 12348   005468  6E6E               	movwf	110,c	;volatile
 12349                           
 12350                           ;mcc_generated_files/pwm5.c: 65:     PWM5DCH = 0x31;
 12351   00546A  0E31               	movlw	49
 12352   00546C  6E6D               	movwf	109,c	;volatile
 12353                           
 12354                           ;mcc_generated_files/pwm5.c: 68:     PWM5DCL = 0xC0;
 12355   00546E  0EC0               	movlw	192
 12356   005470  6E6C               	movwf	108,c	;volatile
 12357                           
 12358                           ;mcc_generated_files/pwm5.c: 71:     CCPTMRS1bits.P5TSEL = 3;
 12359   005472  0E03               	movlw	3
 12360   005474  013F               	movlb	63	; () banked
 12361   005476  135F               	iorwf	95,f,b	;volatile
 12362   005478                     
 12363                           ; BSR set to: 63
 12364   005478  0012               	return		;funcret
 12365   00547A                     __end_of_PWM5_Initialize:
 12366                           	callstack 0
 12367                           
 12368 ;; *************** function _PMD_Initialize *****************
 12369 ;; Defined at:
 12370 ;;		line 78 in file "mcc_generated_files/mcc.c"
 12371 ;; Parameters:    Size  Location     Type
 12372 ;;		None
 12373 ;; Auto vars:     Size  Location     Type
 12374 ;;		None
 12375 ;; Return value:  Size  Location     Type
 12376 ;;                  1    wreg      void 
 12377 ;; Registers used:
 12378 ;;		wreg, status,2
 12379 ;; Tracked objects:
 12380 ;;		On entry : 0/0
 12381 ;;		On exit  : 0/0
 12382 ;;		Unchanged: 0/0
 12383 ;; Data sizes:     COMRAM   BANK0   BANK1   BANK2   BANK3   BANK4   BANK5   BANK6   BANK7   BANK8   BANK9  BANK10  BANK1
      +1  BANK12  BANK13  BANK14  BANK15
 12384 ;;      Params:         0       0       0       0       0       0       0       0       0       0       0       0       
      +0       0       0       0       0
 12385 ;;      Locals:         0       0       0       0       0       0       0       0       0       0       0       0       
      +0       0       0       0       0
 12386 ;;      Temps:          0       0       0       0       0       0       0       0       0       0       0       0       
      +0       0       0       0       0
 12387 ;;      Totals:         0       0       0       0       0       0       0       0       0       0       0       0       
      +0       0       0       0       0
 12388 ;;Total ram usage:        0 bytes
 12389 ;; Hardware stack levels used: 1
 12390 ;; Hardware stack levels required when called: 2
 12391 ;; This function calls:
 12392 ;;		Nothing
 12393 ;; This function is called by:
 12394 ;;		_SYSTEM_Initialize
 12395 ;; This function uses a non-reentrant model
 12396 ;;
 12397                           
 12398                           	psect	text60
 12399   0053A6                     __ptext60:
 12400                           	callstack 0
 12401   0053A6                     _PMD_Initialize:
 12402                           	callstack 27
 12403   0053A6                     
 12404                           ;mcc_generated_files/mcc.c: 81:     PMD0 = 0x00;
 12405   0053A6  0E00               	movlw	0
 12406   0053A8  0139               	movlb	57	; () banked
 12407   0053AA  6FC0               	movwf	192,b	;volatile
 12408                           
 12409                           ;mcc_generated_files/mcc.c: 83:     PMD1 = 0x00;
 12410   0053AC  0E00               	movlw	0
 12411   0053AE  6FC1               	movwf	193,b	;volatile
 12412                           
 12413                           ;mcc_generated_files/mcc.c: 85:     PMD2 = 0x00;
 12414   0053B0  0E00               	movlw	0
 12415   0053B2  6FC2               	movwf	194,b	;volatile
 12416                           
 12417                           ;mcc_generated_files/mcc.c: 87:     PMD3 = 0x00;
 12418   0053B4  0E00               	movlw	0
 12419   0053B6  6FC3               	movwf	195,b	;volatile
 12420                           
 12421                           ;mcc_generated_files/mcc.c: 89:     PMD4 = 0x00;
 12422   0053B8  0E00               	movlw	0
 12423   0053BA  6FC4               	movwf	196,b	;volatile
 12424                           
 12425                           ;mcc_generated_files/mcc.c: 91:     PMD5 = 0x00;
 12426   0053BC  0E00               	movlw	0
 12427   0053BE  6FC5               	movwf	197,b	;volatile
 12428                           
 12429                           ;mcc_generated_files/mcc.c: 93:     PMD6 = 0x00;
 12430   0053C0  0E00               	movlw	0
 12431   0053C2  6FC6               	movwf	198,b	;volatile
 12432                           
 12433                           ;mcc_generated_files/mcc.c: 95:     PMD7 = 0x00;
 12434   0053C4  0E00               	movlw	0
 12435   0053C6  6FC7               	movwf	199,b	;volatile
 12436   0053C8                     
 12437                           ; BSR set to: 57
 12438   0053C8  0012               	return		;funcret
 12439   0053CA                     __end_of_PMD_Initialize:
 12440                           	callstack 0
 12441                           
 12442 ;; *************** function _PIN_MANAGER_Initialize *****************
 12443 ;; Defined at:
 12444 ;;		line 55 in file "mcc_generated_files/pin_manager.c"
 12445 ;; Parameters:    Size  Location     Type
 12446 ;;		None
 12447 ;; Auto vars:     Size  Location     Type
 12448 ;;		None
 12449 ;; Return value:  Size  Location     Type
 12450 ;;                  1    wreg      void 
 12451 ;; Registers used:
 12452 ;;		wreg, status,2
 12453 ;; Tracked objects:
 12454 ;;		On entry : 0/0
 12455 ;;		On exit  : 0/0
 12456 ;;		Unchanged: 0/0
 12457 ;; Data sizes:     COMRAM   BANK0   BANK1   BANK2   BANK3   BANK4   BANK5   BANK6   BANK7   BANK8   BANK9  BANK10  BANK1
      +1  BANK12  BANK13  BANK14  BANK15
 12458 ;;      Params:         0       0       0       0       0       0       0       0       0       0       0       0       
      +0       0       0       0       0
 12459 ;;      Locals:         0       0       0       0       0       0       0       0       0       0       0       0       
      +0       0       0       0       0
 12460 ;;      Temps:          0       0       0       0       0       0       0       0       0       0       0       0       
      +0       0       0       0       0
 12461 ;;      Totals:         0       0       0       0       0       0       0       0       0       0       0       0       
      +0       0       0       0       0
 12462 ;;Total ram usage:        0 bytes
 12463 ;; Hardware stack levels used: 1
 12464 ;; Hardware stack levels required when called: 2
 12465 ;; This function calls:
 12466 ;;		Nothing
 12467 ;; This function is called by:
 12468 ;;		_SYSTEM_Initialize
 12469 ;; This function uses a non-reentrant model
 12470 ;;
 12471                           
 12472                           	psect	text61
 12473   004722                     __ptext61:
 12474                           	callstack 0
 12475   004722                     _PIN_MANAGER_Initialize:
 12476                           	callstack 27
 12477   004722                     
 12478                           ;mcc_generated_files/pin_manager.c: 60:     LATE = 0x00;
 12479   004722  0E00               	movlw	0
 12480   004724  6EBE               	movwf	190,c	;volatile
 12481                           
 12482                           ;mcc_generated_files/pin_manager.c: 61:     LATD = 0x00;
 12483   004726  0E00               	movlw	0
 12484   004728  6EBD               	movwf	189,c	;volatile
 12485                           
 12486                           ;mcc_generated_files/pin_manager.c: 62:     LATA = 0x00;
 12487   00472A  0E00               	movlw	0
 12488   00472C  6EBA               	movwf	186,c	;volatile
 12489                           
 12490                           ;mcc_generated_files/pin_manager.c: 63:     LATB = 0x00;
 12491   00472E  0E00               	movlw	0
 12492   004730  6EBB               	movwf	187,c	;volatile
 12493                           
 12494                           ;mcc_generated_files/pin_manager.c: 64:     LATC = 0x00;
 12495   004732  0E00               	movlw	0
 12496   004734  6EBC               	movwf	188,c	;volatile
 12497                           
 12498                           ;mcc_generated_files/pin_manager.c: 69:     TRISE = 0x07;
 12499   004736  0E07               	movlw	7
 12500   004738  6EC6               	movwf	198,c	;volatile
 12501                           
 12502                           ;mcc_generated_files/pin_manager.c: 70:     TRISA = 0xED;
 12503   00473A  0EED               	movlw	237
 12504   00473C  6EC2               	movwf	194,c	;volatile
 12505   00473E                     
 12506                           ;mcc_generated_files/pin_manager.c: 71:     TRISB = 0xFF;
 12507   00473E  68C3               	setf	195,c	;volatile
 12508                           
 12509                           ;mcc_generated_files/pin_manager.c: 72:     TRISC = 0xBF;
 12510   004740  0EBF               	movlw	191
 12511   004742  6EC4               	movwf	196,c	;volatile
 12512                           
 12513                           ;mcc_generated_files/pin_manager.c: 73:     TRISD = 0x70;
 12514   004744  0E70               	movlw	112
 12515   004746  6EC5               	movwf	197,c	;volatile
 12516                           
 12517                           ;mcc_generated_files/pin_manager.c: 78:     ANSELD = 0x8F;
 12518   004748  0E8F               	movlw	143
 12519   00474A  013A               	movlb	58	; () banked
 12520   00474C  6F70               	movwf	112,b	;volatile
 12521                           
 12522                           ;mcc_generated_files/pin_manager.c: 79:     ANSELC = 0x7F;
 12523   00474E  0E7F               	movlw	127
 12524   004750  6F60               	movwf	96,b	;volatile
 12525   004752                     
 12526                           ; BSR set to: 58
 12527                           ;mcc_generated_files/pin_manager.c: 80:     ANSELB = 0xFF;
 12528   004752  6950               	setf	80,b	;volatile
 12529                           
 12530                           ;mcc_generated_files/pin_manager.c: 81:     ANSELE = 0x07;
 12531   004754  0E07               	movlw	7
 12532   004756  6F80               	movwf	128,b	;volatile
 12533                           
 12534                           ;mcc_generated_files/pin_manager.c: 82:     ANSELA = 0xFE;
 12535   004758  0EFE               	movlw	254
 12536   00475A  6F40               	movwf	64,b	;volatile
 12537                           
 12538                           ;mcc_generated_files/pin_manager.c: 87:     WPUD = 0x00;
 12539   00475C  0E00               	movlw	0
 12540   00475E  6F71               	movwf	113,b	;volatile
 12541                           
 12542                           ;mcc_generated_files/pin_manager.c: 88:     WPUE = 0x00;
 12543   004760  0E00               	movlw	0
 12544   004762  6F81               	movwf	129,b	;volatile
 12545                           
 12546                           ;mcc_generated_files/pin_manager.c: 89:     WPUB = 0x00;
 12547   004764  0E00               	movlw	0
 12548   004766  6F51               	movwf	81,b	;volatile
 12549                           
 12550                           ;mcc_generated_files/pin_manager.c: 90:     WPUA = 0x00;
 12551   004768  0E00               	movlw	0
 12552   00476A  6F41               	movwf	65,b	;volatile
 12553                           
 12554                           ;mcc_generated_files/pin_manager.c: 91:     WPUC = 0x00;
 12555   00476C  0E00               	movlw	0
 12556   00476E  6F61               	movwf	97,b	;volatile
 12557                           
 12558                           ;mcc_generated_files/pin_manager.c: 96:     RB1I2C = 0x00;
 12559   004770  0E00               	movlw	0
 12560   004772  6F5A               	movwf	90,b	;volatile
 12561                           
 12562                           ;mcc_generated_files/pin_manager.c: 97:     RB2I2C = 0x00;
 12563   004774  0E00               	movlw	0
 12564   004776  6F5B               	movwf	91,b	;volatile
 12565                           
 12566                           ;mcc_generated_files/pin_manager.c: 98:     RC3I2C = 0x00;
 12567   004778  0E00               	movlw	0
 12568   00477A  6F6A               	movwf	106,b	;volatile
 12569                           
 12570                           ;mcc_generated_files/pin_manager.c: 99:     RC4I2C = 0x00;
 12571   00477C  0E00               	movlw	0
 12572   00477E  6F6B               	movwf	107,b	;volatile
 12573                           
 12574                           ;mcc_generated_files/pin_manager.c: 100:     RD0I2C = 0x00;
 12575   004780  0E00               	movlw	0
 12576   004782  6F7A               	movwf	122,b	;volatile
 12577                           
 12578                           ;mcc_generated_files/pin_manager.c: 101:     RD1I2C = 0x00;
 12579   004784  0E00               	movlw	0
 12580   004786  6F7B               	movwf	123,b	;volatile
 12581                           
 12582                           ;mcc_generated_files/pin_manager.c: 106:     ODCONE = 0x00;
 12583   004788  0E00               	movlw	0
 12584   00478A  6F82               	movwf	130,b	;volatile
 12585                           
 12586                           ;mcc_generated_files/pin_manager.c: 107:     ODCONA = 0x00;
 12587   00478C  0E00               	movlw	0
 12588   00478E  6F42               	movwf	66,b	;volatile
 12589                           
 12590                           ;mcc_generated_files/pin_manager.c: 108:     ODCONB = 0x00;
 12591   004790  0E00               	movlw	0
 12592   004792  6F52               	movwf	82,b	;volatile
 12593                           
 12594                           ;mcc_generated_files/pin_manager.c: 109:     ODCONC = 0x00;
 12595   004794  0E00               	movlw	0
 12596   004796  6F62               	movwf	98,b	;volatile
 12597                           
 12598                           ;mcc_generated_files/pin_manager.c: 110:     ODCOND = 0x00;
 12599   004798  0E00               	movlw	0
 12600   00479A  6F72               	movwf	114,b	;volatile
 12601   00479C                     
 12602                           ; BSR set to: 58
 12603                           ;mcc_generated_files/pin_manager.c: 115:     SLRCONA = 0xFF;
 12604   00479C  6943               	setf	67,b	;volatile
 12605   00479E                     
 12606                           ; BSR set to: 58
 12607                           ;mcc_generated_files/pin_manager.c: 116:     SLRCONB = 0xFF;
 12608   00479E  6953               	setf	83,b	;volatile
 12609   0047A0                     
 12610                           ; BSR set to: 58
 12611                           ;mcc_generated_files/pin_manager.c: 117:     SLRCONC = 0xFF;
 12612   0047A0  6963               	setf	99,b	;volatile
 12613   0047A2                     
 12614                           ; BSR set to: 58
 12615                           ;mcc_generated_files/pin_manager.c: 118:     SLRCOND = 0xFF;
 12616   0047A2  6973               	setf	115,b	;volatile
 12617                           
 12618                           ;mcc_generated_files/pin_manager.c: 119:     SLRCONE = 0x07;
 12619   0047A4  0E07               	movlw	7
 12620   0047A6  6F83               	movwf	131,b	;volatile
 12621   0047A8                     
 12622                           ; BSR set to: 58
 12623                           ;mcc_generated_files/pin_manager.c: 124:     INLVLA = 0xFF;
 12624   0047A8  6944               	setf	68,b	;volatile
 12625   0047AA                     
 12626                           ; BSR set to: 58
 12627                           ;mcc_generated_files/pin_manager.c: 125:     INLVLB = 0xFF;
 12628   0047AA  6954               	setf	84,b	;volatile
 12629   0047AC                     
 12630                           ; BSR set to: 58
 12631                           ;mcc_generated_files/pin_manager.c: 126:     INLVLC = 0xFF;
 12632   0047AC  6964               	setf	100,b	;volatile
 12633   0047AE                     
 12634                           ; BSR set to: 58
 12635                           ;mcc_generated_files/pin_manager.c: 127:     INLVLD = 0xFF;
 12636   0047AE  6974               	setf	116,b	;volatile
 12637                           
 12638                           ;mcc_generated_files/pin_manager.c: 128:     INLVLE = 0x0F;
 12639   0047B0  0E0F               	movlw	15
 12640   0047B2  6F84               	movwf	132,b	;volatile
 12641                           
 12642                           ;mcc_generated_files/pin_manager.c: 137:     RA4PPS = 0x0E;
 12643   0047B4  0E0E               	movlw	14
 12644   0047B6  6F04               	movwf	4,b	;volatile
 12645                           
 12646                           ;mcc_generated_files/pin_manager.c: 138:     RA1PPS = 0x0D;
 12647   0047B8  0E0D               	movlw	13
 12648   0047BA  6F01               	movwf	1,b	;volatile
 12649                           
 12650                           ;mcc_generated_files/pin_manager.c: 139:     RC6PPS = 0x13;
 12651   0047BC  0E13               	movlw	19
 12652   0047BE  6F16               	movwf	22,b	;volatile
 12653                           
 12654                           ;mcc_generated_files/pin_manager.c: 140:     U1RXPPS = 0x17;
 12655   0047C0  0E17               	movlw	23
 12656   0047C2  6FE5               	movwf	229,b	;volatile
 12657   0047C4                     
 12658                           ; BSR set to: 58
 12659   0047C4  0012               	return		;funcret
 12660   0047C6                     __end_of_PIN_MANAGER_Initialize:
 12661                           	callstack 0
 12662                           
 12663 ;; *************** function _OSCILLATOR_Initialize *****************
 12664 ;; Defined at:
 12665 ;;		line 64 in file "mcc_generated_files/mcc.c"
 12666 ;; Parameters:    Size  Location     Type
 12667 ;;		None
 12668 ;; Auto vars:     Size  Location     Type
 12669 ;;		None
 12670 ;; Return value:  Size  Location     Type
 12671 ;;                  1    wreg      void 
 12672 ;; Registers used:
 12673 ;;		wreg, status,2
 12674 ;; Tracked objects:
 12675 ;;		On entry : 0/0
 12676 ;;		On exit  : 0/0
 12677 ;;		Unchanged: 0/0
 12678 ;; Data sizes:     COMRAM   BANK0   BANK1   BANK2   BANK3   BANK4   BANK5   BANK6   BANK7   BANK8   BANK9  BANK10  BANK1
      +1  BANK12  BANK13  BANK14  BANK15
 12679 ;;      Params:         0       0       0       0       0       0       0       0       0       0       0       0       
      +0       0       0       0       0
 12680 ;;      Locals:         0       0       0       0       0       0       0       0       0       0       0       0       
      +0       0       0       0       0
 12681 ;;      Temps:          0       0       0       0       0       0       0       0       0       0       0       0       
      +0       0       0       0       0
 12682 ;;      Totals:         0       0       0       0       0       0       0       0       0       0       0       0       
      +0       0       0       0       0
 12683 ;;Total ram usage:        0 bytes
 12684 ;; Hardware stack levels used: 1
 12685 ;; Hardware stack levels required when called: 2
 12686 ;; This function calls:
 12687 ;;		Nothing
 12688 ;; This function is called by:
 12689 ;;		_SYSTEM_Initialize
 12690 ;; This function uses a non-reentrant model
 12691 ;;
 12692                           
 12693                           	psect	text62
 12694   005424                     __ptext62:
 12695                           	callstack 0
 12696   005424                     _OSCILLATOR_Initialize:
 12697                           	callstack 27
 12698   005424                     
 12699                           ;mcc_generated_files/mcc.c: 67:     OSCCON1 = 0x70;
 12700   005424  0E70               	movlw	112
 12701   005426  0139               	movlb	57	; () banked
 12702   005428  6FD9               	movwf	217,b	;volatile
 12703                           
 12704                           ;mcc_generated_files/mcc.c: 69:     OSCCON3 = 0x00;
 12705   00542A  0E00               	movlw	0
 12706   00542C  6FDB               	movwf	219,b	;volatile
 12707                           
 12708                           ;mcc_generated_files/mcc.c: 71:     OSCEN = 0x00;
 12709   00542E  0E00               	movlw	0
 12710   005430  6FDD               	movwf	221,b	;volatile
 12711                           
 12712                           ;mcc_generated_files/mcc.c: 73:     OSCFRQ = 0x02;
 12713   005432  0E02               	movlw	2
 12714   005434  6FDF               	movwf	223,b	;volatile
 12715                           
 12716                           ;mcc_generated_files/mcc.c: 75:     OSCTUNE = 0x00;
 12717   005436  0E00               	movlw	0
 12718   005438  6FDE               	movwf	222,b	;volatile
 12719   00543A                     
 12720                           ; BSR set to: 57
 12721   00543A  0012               	return		;funcret
 12722   00543C                     __end_of_OSCILLATOR_Initialize:
 12723                           	callstack 0
 12724                           
 12725 ;; *************** function _INTERRUPT_Initialize *****************
 12726 ;; Defined at:
 12727 ;;		line 52 in file "mcc_generated_files/interrupt_manager.c"
 12728 ;; Parameters:    Size  Location     Type
 12729 ;;		None
 12730 ;; Auto vars:     Size  Location     Type
 12731 ;;		None
 12732 ;; Return value:  Size  Location     Type
 12733 ;;                  1    wreg      void 
 12734 ;; Registers used:
 12735 ;;		None
 12736 ;; Tracked objects:
 12737 ;;		On entry : 0/0
 12738 ;;		On exit  : 0/0
 12739 ;;		Unchanged: 0/0
 12740 ;; Data sizes:     COMRAM   BANK0   BANK1   BANK2   BANK3   BANK4   BANK5   BANK6   BANK7   BANK8   BANK9  BANK10  BANK1
      +1  BANK12  BANK13  BANK14  BANK15
 12741 ;;      Params:         0       0       0       0       0       0       0       0       0       0       0       0       
      +0       0       0       0       0
 12742 ;;      Locals:         0       0       0       0       0       0       0       0       0       0       0       0       
      +0       0       0       0       0
 12743 ;;      Temps:          0       0       0       0       0       0       0       0       0       0       0       0       
      +0       0       0       0       0
 12744 ;;      Totals:         0       0       0       0       0       0       0       0       0       0       0       0       
      +0       0       0       0       0
 12745 ;;Total ram usage:        0 bytes
 12746 ;; Hardware stack levels used: 1
 12747 ;; Hardware stack levels required when called: 2
 12748 ;; This function calls:
 12749 ;;		Nothing
 12750 ;; This function is called by:
 12751 ;;		_SYSTEM_Initialize
 12752 ;; This function uses a non-reentrant model
 12753 ;;
 12754                           
 12755                           	psect	text63
 12756   0054D4                     __ptext63:
 12757                           	callstack 0
 12758   0054D4                     _INTERRUPT_Initialize:
 12759                           	callstack 27
 12760   0054D4                     
 12761                           ;mcc_generated_files/interrupt_manager.c: 55:     INTCON0bits.IPEN = 0;
 12762   0054D4  9AD2               	bcf	210,5,c	;volatile
 12763   0054D6  0012               	return		;funcret
 12764   0054D8                     __end_of_INTERRUPT_Initialize:
 12765                           	callstack 0
 12766                           
 12767 ;; *************** function _PWM6_LoadDutyValue *****************
 12768 ;; Defined at:
 12769 ;;		line 74 in file "mcc_generated_files/pwm6.c"
 12770 ;; Parameters:    Size  Location     Type
 12771 ;;  dutyValue       2    0[COMRAM] unsigned short 
 12772 ;; Auto vars:     Size  Location     Type
 12773 ;;		None
 12774 ;; Return value:  Size  Location     Type
 12775 ;;                  1    wreg      void 
 12776 ;; Registers used:
 12777 ;;		wreg, status,2, status,0
 12778 ;; Tracked objects:
 12779 ;;		On entry : 0/0
 12780 ;;		On exit  : 0/0
 12781 ;;		Unchanged: 0/0
 12782 ;; Data sizes:     COMRAM   BANK0   BANK1   BANK2   BANK3   BANK4   BANK5   BANK6   BANK7   BANK8   BANK9  BANK10  BANK1
      +1  BANK12  BANK13  BANK14  BANK15
 12783 ;;      Params:         2       0       0       0       0       0       0       0       0       0       0       0       
      +0       0       0       0       0
 12784 ;;      Locals:         0       0       0       0       0       0       0       0       0       0       0       0       
      +0       0       0       0       0
 12785 ;;      Temps:          2       0       0       0       0       0       0       0       0       0       0       0       
      +0       0       0       0       0
 12786 ;;      Totals:         4       0       0       0       0       0       0       0       0       0       0       0       
      +0       0       0       0       0
 12787 ;;Total ram usage:        4 bytes
 12788 ;; Hardware stack levels used: 1
 12789 ;; Hardware stack levels required when called: 2
 12790 ;; This function calls:
 12791 ;;		Nothing
 12792 ;; This function is called by:
 12793 ;;		_main
 12794 ;; This function uses a non-reentrant model
 12795 ;;
 12796                           
 12797                           	psect	text64
 12798   00523C                     __ptext64:
 12799                           	callstack 0
 12800   00523C                     _PWM6_LoadDutyValue:
 12801                           	callstack 28
 12802   00523C                     
 12803                           ;mcc_generated_files/pwm6.c: 74:  void PWM6_LoadDutyValue(uint16_t dutyValue);mcc_genera
      +                          ted_files/pwm6.c: 75:  {;mcc_generated_files/pwm6.c: 77:      PWM6DCH = (dutyValue & 0x0
      +                          3FC)>>2;
 12804   00523C  C001  F003         	movff	PWM6_LoadDutyValue@dutyValue,??_PWM6_LoadDutyValue
 12805   005240  C002  F004         	movff	PWM6_LoadDutyValue@dutyValue+1,??_PWM6_LoadDutyValue+1
 12806   005244  90D8               	bcf	status,0,c
 12807   005246  3204               	rrcf	(??_PWM6_LoadDutyValue+1)^0,f,c
 12808   005248  3203               	rrcf	??_PWM6_LoadDutyValue^0,f,c
 12809   00524A  90D8               	bcf	status,0,c
 12810   00524C  3204               	rrcf	(??_PWM6_LoadDutyValue+1)^0,f,c
 12811   00524E  3203               	rrcf	??_PWM6_LoadDutyValue^0,f,c
 12812   005250  5003               	movf	??_PWM6_LoadDutyValue^0,w,c
 12813   005252  6E69               	movwf	105,c	;volatile
 12814                           
 12815                           ;mcc_generated_files/pwm6.c: 80:      PWM6DCL = (dutyValue & 0x0003)<<6;
 12816   005254  C001  F003         	movff	PWM6_LoadDutyValue@dutyValue,??_PWM6_LoadDutyValue
 12817   005258  0E03               	movlw	3
 12818   00525A  1603               	andwf	??_PWM6_LoadDutyValue^0,f,c
 12819   00525C  0E06               	movlw	6
 12820   00525E  6E04               	movwf	(??_PWM6_LoadDutyValue+1)^0,c
 12821   005260                     u5015:
 12822   005260  90D8               	bcf	status,0,c
 12823   005262  3603               	rlcf	??_PWM6_LoadDutyValue^0,f,c
 12824   005264  2E04               	decfsz	(??_PWM6_LoadDutyValue+1)^0,f,c
 12825   005266  EF30  F029         	goto	u5015
 12826   00526A  5003               	movf	??_PWM6_LoadDutyValue^0,w,c
 12827   00526C  6E68               	movwf	104,c	;volatile
 12828   00526E  0012               	return		;funcret
 12829   005270                     __end_of_PWM6_LoadDutyValue:
 12830                           	callstack 0
 12831                           
 12832 ;; *************** function _PWM5_LoadDutyValue *****************
 12833 ;; Defined at:
 12834 ;;		line 74 in file "mcc_generated_files/pwm5.c"
 12835 ;; Parameters:    Size  Location     Type
 12836 ;;  dutyValue       2    0[COMRAM] unsigned short 
 12837 ;; Auto vars:     Size  Location     Type
 12838 ;;		None
 12839 ;; Return value:  Size  Location     Type
 12840 ;;                  1    wreg      void 
 12841 ;; Registers used:
 12842 ;;		wreg, status,2, status,0
 12843 ;; Tracked objects:
 12844 ;;		On entry : 0/0
 12845 ;;		On exit  : 0/0
 12846 ;;		Unchanged: 0/0
 12847 ;; Data sizes:     COMRAM   BANK0   BANK1   BANK2   BANK3   BANK4   BANK5   BANK6   BANK7   BANK8   BANK9  BANK10  BANK1
      +1  BANK12  BANK13  BANK14  BANK15
 12848 ;;      Params:         2       0       0       0       0       0       0       0       0       0       0       0       
      +0       0       0       0       0
 12849 ;;      Locals:         0       0       0       0       0       0       0       0       0       0       0       0       
      +0       0       0       0       0
 12850 ;;      Temps:          2       0       0       0       0       0       0       0       0       0       0       0       
      +0       0       0       0       0
 12851 ;;      Totals:         4       0       0       0       0       0       0       0       0       0       0       0       
      +0       0       0       0       0
 12852 ;;Total ram usage:        4 bytes
 12853 ;; Hardware stack levels used: 1
 12854 ;; Hardware stack levels required when called: 2
 12855 ;; This function calls:
 12856 ;;		Nothing
 12857 ;; This function is called by:
 12858 ;;		_main
 12859 ;; This function uses a non-reentrant model
 12860 ;;
 12861                           
 12862                           	psect	text65
 12863   005270                     __ptext65:
 12864                           	callstack 0
 12865   005270                     _PWM5_LoadDutyValue:
 12866                           	callstack 28
 12867   005270                     
 12868                           ;mcc_generated_files/pwm5.c: 74:  void PWM5_LoadDutyValue(uint16_t dutyValue);mcc_genera
      +                          ted_files/pwm5.c: 75:  {;mcc_generated_files/pwm5.c: 77:      PWM5DCH = (dutyValue & 0x0
      +                          3FC)>>2;
 12869   005270  C001  F003         	movff	PWM5_LoadDutyValue@dutyValue,??_PWM5_LoadDutyValue
 12870   005274  C002  F004         	movff	PWM5_LoadDutyValue@dutyValue+1,??_PWM5_LoadDutyValue+1
 12871   005278  90D8               	bcf	status,0,c
 12872   00527A  3204               	rrcf	(??_PWM5_LoadDutyValue+1)^0,f,c
 12873   00527C  3203               	rrcf	??_PWM5_LoadDutyValue^0,f,c
 12874   00527E  90D8               	bcf	status,0,c
 12875   005280  3204               	rrcf	(??_PWM5_LoadDutyValue+1)^0,f,c
 12876   005282  3203               	rrcf	??_PWM5_LoadDutyValue^0,f,c
 12877   005284  5003               	movf	??_PWM5_LoadDutyValue^0,w,c
 12878   005286  6E6D               	movwf	109,c	;volatile
 12879                           
 12880                           ;mcc_generated_files/pwm5.c: 80:      PWM5DCL = (dutyValue & 0x0003)<<6;
 12881   005288  C001  F003         	movff	PWM5_LoadDutyValue@dutyValue,??_PWM5_LoadDutyValue
 12882   00528C  0E03               	movlw	3
 12883   00528E  1603               	andwf	??_PWM5_LoadDutyValue^0,f,c
 12884   005290  0E06               	movlw	6
 12885   005292  6E04               	movwf	(??_PWM5_LoadDutyValue+1)^0,c
 12886   005294                     u5005:
 12887   005294  90D8               	bcf	status,0,c
 12888   005296  3603               	rlcf	??_PWM5_LoadDutyValue^0,f,c
 12889   005298  2E04               	decfsz	(??_PWM5_LoadDutyValue+1)^0,f,c
 12890   00529A  EF4A  F029         	goto	u5005
 12891   00529E  5003               	movf	??_PWM5_LoadDutyValue^0,w,c
 12892   0052A0  6E6C               	movwf	108,c	;volatile
 12893   0052A2  0012               	return		;funcret
 12894   0052A4                     __end_of_PWM5_LoadDutyValue:
 12895                           	callstack 0
 12896                           
 12897 ;; *************** function _Lectura_Serial *****************
 12898 ;; Defined at:
 12899 ;;		line 444 in file "main.c"
 12900 ;; Parameters:    Size  Location     Type
 12901 ;;		None
 12902 ;; Auto vars:     Size  Location     Type
 12903 ;;  i               2   33[COMRAM] int 
 12904 ;;  arreglo_bit    12   18[COMRAM] int [6]
 12905 ;;  REF_grados      2   30[COMRAM] int 
 12906 ;;  rxData          1   32[COMRAM] unsigned char 
 12907 ;; Return value:  Size  Location     Type
 12908 ;;                  2    6[COMRAM] int 
 12909 ;; Registers used:
 12910 ;;		wreg, fsr2l, fsr2h, status,2, status,0, pcl, pclath, pclatu, tosl, prodl, prodh, cstack
 12911 ;; Tracked objects:
 12912 ;;		On entry : 0/0
 12913 ;;		On exit  : 0/0
 12914 ;;		Unchanged: 0/0
 12915 ;; Data sizes:     COMRAM   BANK0   BANK1   BANK2   BANK3   BANK4   BANK5   BANK6   BANK7   BANK8   BANK9  BANK10  BANK1
      +1  BANK12  BANK13  BANK14  BANK15
 12916 ;;      Params:         2       0       0       0       0       0       0       0       0       0       0       0       
      +0       0       0       0       0
 12917 ;;      Locals:        17       0       0       0       0       0       0       0       0       0       0       0       
      +0       0       0       0       0
 12918 ;;      Temps:         10       0       0       0       0       0       0       0       0       0       0       0       
      +0       0       0       0       0
 12919 ;;      Totals:        29       0       0       0       0       0       0       0       0       0       0       0       
      +0       0       0       0       0
 12920 ;;Total ram usage:       29 bytes
 12921 ;; Hardware stack levels used: 1
 12922 ;; Hardware stack levels required when called: 4
 12923 ;; This function calls:
 12924 ;;		_UART1_Read
 12925 ;;		_UART1_is_rx_ready
 12926 ;;		___wmul
 12927 ;; This function is called by:
 12928 ;;		_main
 12929 ;; This function uses a non-reentrant model
 12930 ;;
 12931                           
 12932                           	psect	text66
 12933   003D8C                     __ptext66:
 12934                           	callstack 0
 12935   003D8C                     _Lectura_Serial:
 12936                           	callstack 26
 12937   003D8C                     
 12938                           ;main.c: 447:     int arreglo_bit[6];;main.c: 449:     uint8_t rxData;;main.c: 451:     
      +                          if (UART1_is_rx_ready()) {
 12939   003D8C  EC1E  F02A         	call	_UART1_is_rx_ready	;wreg free
 12940   003D90  0900               	iorlw	0
 12941   003D92  B4D8               	btfsc	status,2,c
 12942   003D94  EFCE  F01E         	goto	u5061
 12943   003D98  EFD0  F01E         	goto	u5060
 12944   003D9C                     u5061:
 12945   003D9C  EFFA  F01E         	goto	l5494
 12946   003DA0                     u5060:
 12947   003DA0                     
 12948                           ;main.c: 452:         for (int i = 0; i < 6; i++) {
 12949   003DA0  0E00               	movlw	0
 12950   003DA2  6E23               	movwf	(Lectura_Serial@i+1)^0,c
 12951   003DA4  0E00               	movlw	0
 12952   003DA6  6E22               	movwf	Lectura_Serial@i^0,c
 12953   003DA8                     l5486:
 12954                           
 12955                           ;main.c: 453:             rxData = UART1_Read();
 12956   003DA8  ECE3  F023         	call	_UART1_Read	;wreg free
 12957   003DAC  6E21               	movwf	Lectura_Serial@rxData^0,c
 12958   003DAE                     
 12959                           ;main.c: 454:             arreglo_bit[i] = (rxData & 0x0F);
 12960   003DAE  5021               	movf	Lectura_Serial@rxData^0,w,c
 12961   003DB0  0B0F               	andlw	15
 12962   003DB2  6E09               	movwf	??_Lectura_Serial^0,c
 12963   003DB4  6A0A               	clrf	(??_Lectura_Serial+1)^0,c
 12964   003DB6  90D8               	bcf	status,0,c
 12965   003DB8  3422               	rlcf	Lectura_Serial@i^0,w,c
 12966   003DBA  6ED9               	movwf	fsr2l,c
 12967   003DBC  3423               	rlcf	(Lectura_Serial@i+1)^0,w,c
 12968   003DBE  6EDA               	movwf	fsr2h,c
 12969   003DC0  0E13               	movlw	low Lectura_Serial@arreglo_bit
 12970   003DC2  26D9               	addwf	fsr2l,f,c
 12971   003DC4  0E00               	movlw	high Lectura_Serial@arreglo_bit
 12972   003DC6  22DA               	addwfc	fsr2h,f,c
 12973   003DC8  0060  F027  FFDE   	movff	??_Lectura_Serial,postinc2
 12974   003DCE  0060  F02B  FFDD   	movff	??_Lectura_Serial+1,postdec2
 12975   003DD4                     
 12976                           ;main.c: 455:         }
 12977   003DD4  4A22               	infsnz	Lectura_Serial@i^0,f,c
 12978   003DD6  2A23               	incf	(Lectura_Serial@i+1)^0,f,c
 12979   003DD8  BE23               	btfsc	(Lectura_Serial@i+1)^0,7,c
 12980   003DDA  EFF8  F01E         	goto	u5071
 12981   003DDE  5023               	movf	(Lectura_Serial@i+1)^0,w,c
 12982   003DE0  E109               	bnz	u5070
 12983   003DE2  0E06               	movlw	6
 12984   003DE4  5C22               	subwf	Lectura_Serial@i^0,w,c
 12985   003DE6  A0D8               	btfss	status,0,c
 12986   003DE8  EFF8  F01E         	goto	u5071
 12987   003DEC  EFFA  F01E         	goto	u5070
 12988   003DF0                     u5071:
 12989   003DF0  EFD4  F01E         	goto	l5486
 12990   003DF4                     u5070:
 12991   003DF4                     l5494:
 12992                           
 12993                           ;main.c: 457:     REF_grados = (arreglo_bit[5] + (10 * arreglo_bit[4]) + (100 * arreglo_
      +                          bit[3])
 12994   003DF4  C015  F001         	movff	Lectura_Serial@arreglo_bit+2,___wmul@multiplier
 12995   003DF8  C016  F002         	movff	Lectura_Serial@arreglo_bit+3,___wmul@multiplier+1
 12996   003DFC  0E27               	movlw	39
 12997   003DFE  6E04               	movwf	(___wmul@multiplicand+1)^0,c
 12998   003E00  0E10               	movlw	16
 12999   003E02  6E03               	movwf	___wmul@multiplicand^0,c
 13000   003E04  ECBE  F029         	call	___wmul	;wreg free
 13001   003E08  C001  F009         	movff	?___wmul,??_Lectura_Serial
 13002   003E0C  C002  F00A         	movff	?___wmul+1,??_Lectura_Serial+1
 13003   003E10  C017  F001         	movff	Lectura_Serial@arreglo_bit+4,___wmul@multiplier
 13004   003E14  C018  F002         	movff	Lectura_Serial@arreglo_bit+5,___wmul@multiplier+1
 13005   003E18  0E03               	movlw	3
 13006   003E1A  6E04               	movwf	(___wmul@multiplicand+1)^0,c
 13007   003E1C  0EE8               	movlw	232
 13008   003E1E  6E03               	movwf	___wmul@multiplicand^0,c
 13009   003E20  ECBE  F029         	call	___wmul	;wreg free
 13010   003E24  5001               	movf	?___wmul^0,w,c
 13011   003E26  2409               	addwf	??_Lectura_Serial^0,w,c
 13012   003E28  6E0B               	movwf	(??_Lectura_Serial+2)^0,c
 13013   003E2A  5002               	movf	(?___wmul+1)^0,w,c
 13014   003E2C  200A               	addwfc	(??_Lectura_Serial+1)^0,w,c
 13015   003E2E  6E0C               	movwf	(??_Lectura_Serial+3)^0,c
 13016   003E30  C019  F001         	movff	Lectura_Serial@arreglo_bit+6,___wmul@multiplier
 13017   003E34  C01A  F002         	movff	Lectura_Serial@arreglo_bit+7,___wmul@multiplier+1
 13018   003E38  0E00               	movlw	0
 13019   003E3A  6E04               	movwf	(___wmul@multiplicand+1)^0,c
 13020   003E3C  0E64               	movlw	100
 13021   003E3E  6E03               	movwf	___wmul@multiplicand^0,c
 13022   003E40  ECBE  F029         	call	___wmul	;wreg free
 13023   003E44  5001               	movf	?___wmul^0,w,c
 13024   003E46  240B               	addwf	(??_Lectura_Serial+2)^0,w,c
 13025   003E48  6E0D               	movwf	(??_Lectura_Serial+4)^0,c
 13026   003E4A  5002               	movf	(?___wmul+1)^0,w,c
 13027   003E4C  200C               	addwfc	(??_Lectura_Serial+3)^0,w,c
 13028   003E4E  6E0E               	movwf	(??_Lectura_Serial+5)^0,c
 13029   003E50  C01B  F001         	movff	Lectura_Serial@arreglo_bit+8,___wmul@multiplier
 13030   003E54  C01C  F002         	movff	Lectura_Serial@arreglo_bit+9,___wmul@multiplier+1
 13031   003E58  0E00               	movlw	0
 13032   003E5A  6E04               	movwf	(___wmul@multiplicand+1)^0,c
 13033   003E5C  0E0A               	movlw	10
 13034   003E5E  6E03               	movwf	___wmul@multiplicand^0,c
 13035   003E60  ECBE  F029         	call	___wmul	;wreg free
 13036   003E64  5001               	movf	?___wmul^0,w,c
 13037   003E66  240D               	addwf	(??_Lectura_Serial+4)^0,w,c
 13038   003E68  6E0F               	movwf	(??_Lectura_Serial+6)^0,c
 13039   003E6A  5002               	movf	(?___wmul+1)^0,w,c
 13040   003E6C  200E               	addwfc	(??_Lectura_Serial+5)^0,w,c
 13041   003E6E  6E10               	movwf	(??_Lectura_Serial+7)^0,c
 13042   003E70  C013  F001         	movff	Lectura_Serial@arreglo_bit,___wmul@multiplier
 13043   003E74  C014  F002         	movff	Lectura_Serial@arreglo_bit+1,___wmul@multiplier+1
 13044   003E78  0E86               	movlw	134
 13045   003E7A  6E04               	movwf	(___wmul@multiplicand+1)^0,c
 13046   003E7C  0EA0               	movlw	160
 13047   003E7E  6E03               	movwf	___wmul@multiplicand^0,c
 13048   003E80  ECBE  F029         	call	___wmul	;wreg free
 13049   003E84  5001               	movf	?___wmul^0,w,c
 13050   003E86  240F               	addwf	(??_Lectura_Serial+6)^0,w,c
 13051   003E88  6E11               	movwf	(??_Lectura_Serial+8)^0,c
 13052   003E8A  5002               	movf	(?___wmul+1)^0,w,c
 13053   003E8C  2010               	addwfc	(??_Lectura_Serial+7)^0,w,c
 13054   003E8E  6E12               	movwf	(??_Lectura_Serial+9)^0,c
 13055   003E90  501D               	movf	(Lectura_Serial@arreglo_bit+10)^0,w,c
 13056   003E92  2411               	addwf	(??_Lectura_Serial+8)^0,w,c
 13057   003E94  6E1F               	movwf	Lectura_Serial@REF_grados^0,c
 13058   003E96  501E               	movf	(Lectura_Serial@arreglo_bit+11)^0,w,c
 13059   003E98  2012               	addwfc	(??_Lectura_Serial+9)^0,w,c
 13060   003E9A  6E20               	movwf	(Lectura_Serial@REF_grados+1)^0,c
 13061   003E9C                     
 13062                           ;main.c: 459:     return REF_grados;
 13063   003E9C  C01F  F007         	movff	Lectura_Serial@REF_grados,?_Lectura_Serial
 13064   003EA0  C020  F008         	movff	Lectura_Serial@REF_grados+1,?_Lectura_Serial+1
 13065   003EA4  0012               	return		;funcret
 13066   003EA6                     __end_of_Lectura_Serial:
 13067                           	callstack 0
 13068                           
 13069 ;; *************** function ___wmul *****************
 13070 ;; Defined at:
 13071 ;;		line 15 in file "C:\Program Files\Microchip\xc8\v2.41\pic\sources\c99\common\Umul16.c"
 13072 ;; Parameters:    Size  Location     Type
 13073 ;;  multiplier      2    0[COMRAM] unsigned int 
 13074 ;;  multiplicand    2    2[COMRAM] unsigned int 
 13075 ;; Auto vars:     Size  Location     Type
 13076 ;;  product         2    4[COMRAM] unsigned int 
 13077 ;; Return value:  Size  Location     Type
 13078 ;;                  2    0[COMRAM] unsigned int 
 13079 ;; Registers used:
 13080 ;;		wreg, status,2, status,0, prodl, prodh
 13081 ;; Tracked objects:
 13082 ;;		On entry : 0/0
 13083 ;;		On exit  : 0/0
 13084 ;;		Unchanged: 0/0
 13085 ;; Data sizes:     COMRAM   BANK0   BANK1   BANK2   BANK3   BANK4   BANK5   BANK6   BANK7   BANK8   BANK9  BANK10  BANK1
      +1  BANK12  BANK13  BANK14  BANK15
 13086 ;;      Params:         4       0       0       0       0       0       0       0       0       0       0       0       
      +0       0       0       0       0
 13087 ;;      Locals:         2       0       0       0       0       0       0       0       0       0       0       0       
      +0       0       0       0       0
 13088 ;;      Temps:          0       0       0       0       0       0       0       0       0       0       0       0       
      +0       0       0       0       0
 13089 ;;      Totals:         6       0       0       0       0       0       0       0       0       0       0       0       
      +0       0       0       0       0
 13090 ;;Total ram usage:        6 bytes
 13091 ;; Hardware stack levels used: 1
 13092 ;; Hardware stack levels required when called: 2
 13093 ;; This function calls:
 13094 ;;		Nothing
 13095 ;; This function is called by:
 13096 ;;		_main
 13097 ;;		_Lectura_Serial
 13098 ;; This function uses a non-reentrant model
 13099 ;;
 13100                           
 13101                           	psect	text67
 13102   00537C                     __ptext67:
 13103                           	callstack 0
 13104   00537C                     ___wmul:
 13105                           	callstack 28
 13106   00537C  5001               	movf	___wmul@multiplier^0,w,c
 13107   00537E  0203               	mulwf	___wmul@multiplicand^0,c
 13108   005380  006F FFCC  F005    	movff	prodl,___wmul@product
 13109   005386  006F FFD0  F006    	movff	prodh,___wmul@product+1
 13110   00538C  5001               	movf	___wmul@multiplier^0,w,c
 13111   00538E  0204               	mulwf	(___wmul@multiplicand+1)^0,c
 13112   005390  50F3               	movf	243,w,c
 13113   005392  2606               	addwf	(___wmul@product+1)^0,f,c
 13114   005394  5002               	movf	(___wmul@multiplier+1)^0,w,c
 13115   005396  0203               	mulwf	___wmul@multiplicand^0,c
 13116   005398  50F3               	movf	243,w,c
 13117   00539A  2606               	addwf	(___wmul@product+1)^0,f,c
 13118   00539C  C005  F001         	movff	___wmul@product,?___wmul
 13119   0053A0  C006  F002         	movff	___wmul@product+1,?___wmul+1
 13120   0053A4  0012               	return		;funcret
 13121   0053A6                     __end_of___wmul:
 13122                           	callstack 0
 13123                           
 13124 ;; *************** function _UART1_is_rx_ready *****************
 13125 ;; Defined at:
 13126 ;;		line 126 in file "mcc_generated_files/uart1.c"
 13127 ;; Parameters:    Size  Location     Type
 13128 ;;		None
 13129 ;; Auto vars:     Size  Location     Type
 13130 ;;		None
 13131 ;; Return value:  Size  Location     Type
 13132 ;;                  1    wreg      _Bool 
 13133 ;; Registers used:
 13134 ;;		wreg
 13135 ;; Tracked objects:
 13136 ;;		On entry : 0/0
 13137 ;;		On exit  : 0/0
 13138 ;;		Unchanged: 0/0
 13139 ;; Data sizes:     COMRAM   BANK0   BANK1   BANK2   BANK3   BANK4   BANK5   BANK6   BANK7   BANK8   BANK9  BANK10  BANK1
      +1  BANK12  BANK13  BANK14  BANK15
 13140 ;;      Params:         0       0       0       0       0       0       0       0       0       0       0       0       
      +0       0       0       0       0
 13141 ;;      Locals:         0       0       0       0       0       0       0       0       0       0       0       0       
      +0       0       0       0       0
 13142 ;;      Temps:          0       0       0       0       0       0       0       0       0       0       0       0       
      +0       0       0       0       0
 13143 ;;      Totals:         0       0       0       0       0       0       0       0       0       0       0       0       
      +0       0       0       0       0
 13144 ;;Total ram usage:        0 bytes
 13145 ;; Hardware stack levels used: 1
 13146 ;; Hardware stack levels required when called: 2
 13147 ;; This function calls:
 13148 ;;		Nothing
 13149 ;; This function is called by:
 13150 ;;		_recibir_numero
 13151 ;;		_Lectura_Serial
 13152 ;;		_recibir_caracter
 13153 ;; This function uses a non-reentrant model
 13154 ;;
 13155                           
 13156                           	psect	text68
 13157   00543C                     __ptext68:
 13158                           	callstack 0
 13159   00543C                     _UART1_is_rx_ready:
 13160                           	callstack 27
 13161   00543C                     
 13162                           ;mcc_generated_files/uart1.c: 128:     return (_Bool)(PIR3bits.U1RXIF);
 13163   00543C  0139               	movlb	57	; () banked
 13164   00543E  B7A3               	btfsc	163,3,b	;volatile
 13165   005440  EF24  F02A         	goto	u4761
 13166   005444  EF27  F02A         	goto	u4760
 13167   005448                     u4761:
 13168   005448  0E01               	movlw	1
 13169   00544A  EF28  F02A         	goto	u4766
 13170   00544E                     u4760:
 13171   00544E  0E00               	movlw	0
 13172   005450                     u4766:
 13173   005450                     
 13174                           ; BSR set to: 57
 13175   005450  0012               	return		;funcret
 13176   005452                     __end_of_UART1_is_rx_ready:
 13177                           	callstack 0
 13178                           
 13179 ;; *************** function _UART1_Read *****************
 13180 ;; Defined at:
 13181 ;;		line 145 in file "mcc_generated_files/uart1.c"
 13182 ;; Parameters:    Size  Location     Type
 13183 ;;		None
 13184 ;; Auto vars:     Size  Location     Type
 13185 ;;		None
 13186 ;; Return value:  Size  Location     Type
 13187 ;;                  1    wreg      unsigned char 
 13188 ;; Registers used:
 13189 ;;		wreg, status,2, pcl, pclath, pclatu, tosl, cstack
 13190 ;; Tracked objects:
 13191 ;;		On entry : 0/0
 13192 ;;		On exit  : 0/0
 13193 ;;		Unchanged: 0/0
 13194 ;; Data sizes:     COMRAM   BANK0   BANK1   BANK2   BANK3   BANK4   BANK5   BANK6   BANK7   BANK8   BANK9  BANK10  BANK1
      +1  BANK12  BANK13  BANK14  BANK15
 13195 ;;      Params:         0       0       0       0       0       0       0       0       0       0       0       0       
      +0       0       0       0       0
 13196 ;;      Locals:         0       0       0       0       0       0       0       0       0       0       0       0       
      +0       0       0       0       0
 13197 ;;      Temps:          0       0       0       0       0       0       0       0       0       0       0       0       
      +0       0       0       0       0
 13198 ;;      Totals:         0       0       0       0       0       0       0       0       0       0       0       0       
      +0       0       0       0       0
 13199 ;;Total ram usage:        0 bytes
 13200 ;; Hardware stack levels used: 1
 13201 ;; Hardware stack levels required when called: 3
 13202 ;; This function calls:
 13203 ;;		NULL
 13204 ;;		_UART1_DefaultErrorHandler
 13205 ;;		_UART1_DefaultFramingErrorHandler
 13206 ;;		_UART1_DefaultOverrunErrorHandler
 13207 ;; This function is called by:
 13208 ;;		_recibir_numero
 13209 ;;		_Lectura_Serial
 13210 ;;		_recibir_caracter
 13211 ;; This function uses a non-reentrant model
 13212 ;;
 13213                           
 13214                           	psect	text69
 13215   0047C6                     __ptext69:
 13216                           	callstack 0
 13217   0047C6                     _UART1_Read:
 13218                           	callstack 26
 13219   0047C6                     l80:
 13220                           
 13221                           ;mcc_generated_files/uart1.c: 147:     while(!PIR3bits.U1RXIF)
 13222   0047C6  0139               	movlb	57	; () banked
 13223   0047C8  A7A3               	btfss	163,3,b	;volatile
 13224   0047CA  EFE9  F023         	goto	u4791
 13225   0047CE  EFEB  F023         	goto	u4790
 13226   0047D2                     u4791:
 13227   0047D2  EFE3  F023         	goto	l80
 13228   0047D6                     u4790:
 13229   0047D6                     
 13230                           ; BSR set to: 57
 13231                           ;mcc_generated_files/uart1.c: 151:     uart1RxLastError.status = 0;
 13232   0047D6  0E00               	movlw	0
 13233   0047D8  0100               	movlb	0	; () banked
 13234   0047DA  6FF9               	movwf	_uart1RxLastError& (0+255),b	;volatile
 13235   0047DC                     
 13236                           ; BSR set to: 0
 13237                           ;mcc_generated_files/uart1.c: 153:     if(U1ERRIRbits.FERIF){
 13238   0047DC  013D               	movlb	61	; () banked
 13239   0047DE  A7F9               	btfss	249,3,b	;volatile
 13240   0047E0  EFF4  F023         	goto	u4801
 13241   0047E4  EFF6  F023         	goto	u4800
 13242   0047E8                     u4801:
 13243   0047E8  EF05  F024         	goto	l5236
 13244   0047EC                     u4800:
 13245   0047EC                     
 13246                           ; BSR set to: 61
 13247                           ;mcc_generated_files/uart1.c: 154:         uart1RxLastError.ferr = 1;
 13248   0047EC  0100               	movlb	0	; () banked
 13249   0047EE  83F9               	bsf	_uart1RxLastError& (0+255),1,b	;volatile
 13250   0047F0                     
 13251                           ; BSR set to: 0
 13252                           ;mcc_generated_files/uart1.c: 155:         UART1_FramingErrorHandler();
 13253   0047F0  D802               	call	u4818
 13254   0047F2  EF05  F024         	goto	u4819
 13255   0047F6                     u4818:
 13256   0047F6  0005               	push	
 13257   0047F8  6EFA               	movwf	pclath,c
 13258   0047FA  0101               	movlb	1	; () banked
 13259   0047FC  51FE               	movf	_UART1_FramingErrorHandler& (0+255),w,b
 13260   0047FE  6EFD               	movwf	tosl,c
 13261   004800  51FF               	movf	(_UART1_FramingErrorHandler+1)& (0+255),w,b
 13262   004802  6EFE               	movwf	tosh,c
 13263   004804  6AFF               	clrf	tosu,c
 13264   004806  50FA               	movf	pclath,w,c
 13265   004808  0012               	return		;indir
 13266   00480A                     u4819:
 13267   00480A                     l5236:
 13268                           
 13269                           ;mcc_generated_files/uart1.c: 158:     if(U1ERRIRbits.RXFOIF){
 13270   00480A  013D               	movlb	61	; () banked
 13271   00480C  A3F9               	btfss	249,1,b	;volatile
 13272   00480E  EF0B  F024         	goto	u4821
 13273   004812  EF0D  F024         	goto	u4820
 13274   004816                     u4821:
 13275   004816  EF1C  F024         	goto	l5242
 13276   00481A                     u4820:
 13277   00481A                     
 13278                           ; BSR set to: 61
 13279                           ;mcc_generated_files/uart1.c: 159:         uart1RxLastError.oerr = 1;
 13280   00481A  0100               	movlb	0	; () banked
 13281   00481C  85F9               	bsf	_uart1RxLastError& (0+255),2,b	;volatile
 13282   00481E                     
 13283                           ; BSR set to: 0
 13284                           ;mcc_generated_files/uart1.c: 160:         UART1_OverrunErrorHandler();
 13285   00481E  D802               	call	u4838
 13286   004820  EF1C  F024         	goto	u4839
 13287   004824                     u4838:
 13288   004824  0005               	push	
 13289   004826  6EFA               	movwf	pclath,c
 13290   004828  0101               	movlb	1	; () banked
 13291   00482A  51FC               	movf	_UART1_OverrunErrorHandler& (0+255),w,b
 13292   00482C  6EFD               	movwf	tosl,c
 13293   00482E  51FD               	movf	(_UART1_OverrunErrorHandler+1)& (0+255),w,b
 13294   004830  6EFE               	movwf	tosh,c
 13295   004832  6AFF               	clrf	tosu,c
 13296   004834  50FA               	movf	pclath,w,c
 13297   004836  0012               	return		;indir
 13298   004838                     u4839:
 13299   004838                     l5242:
 13300                           
 13301                           ;mcc_generated_files/uart1.c: 163:     if(uart1RxLastError.status){
 13302   004838  0100               	movlb	0	; () banked
 13303   00483A  51F9               	movf	_uart1RxLastError& (0+255),w,b	;volatile
 13304   00483C  B4D8               	btfsc	status,2,c
 13305   00483E  EF23  F024         	goto	u4841
 13306   004842  EF25  F024         	goto	u4840
 13307   004846                     u4841:
 13308   004846  EF32  F024         	goto	l5246
 13309   00484A                     u4840:
 13310   00484A                     
 13311                           ; BSR set to: 0
 13312                           ;mcc_generated_files/uart1.c: 164:         UART1_ErrorHandler();
 13313   00484A  D802               	call	u4858
 13314   00484C  EF32  F024         	goto	u4859
 13315   004850                     u4858:
 13316   004850  0005               	push	
 13317   004852  6EFA               	movwf	pclath,c
 13318   004854  0101               	movlb	1	; () banked
 13319   004856  51FA               	movf	_UART1_ErrorHandler& (0+255),w,b
 13320   004858  6EFD               	movwf	tosl,c
 13321   00485A  51FB               	movf	(_UART1_ErrorHandler+1)& (0+255),w,b
 13322   00485C  6EFE               	movwf	tosh,c
 13323   00485E  6AFF               	clrf	tosu,c
 13324   004860  50FA               	movf	pclath,w,c
 13325   004862  0012               	return		;indir
 13326   004864                     u4859:
 13327   004864                     l5246:
 13328                           
 13329                           ;mcc_generated_files/uart1.c: 167:     return U1RXB;
 13330   004864  013D               	movlb	61	; () banked
 13331   004866  51E8               	movf	232,w,b	;volatile
 13332   004868                     
 13333                           ; BSR set to: 61
 13334   004868  0012               	return		;funcret
 13335   00486A                     __end_of_UART1_Read:
 13336                           	callstack 0
 13337                           
 13338 ;; *************** function _UART1_DefaultOverrunErrorHandler *****************
 13339 ;; Defined at:
 13340 ;;		line 185 in file "mcc_generated_files/uart1.c"
 13341 ;; Parameters:    Size  Location     Type
 13342 ;;		None
 13343 ;; Auto vars:     Size  Location     Type
 13344 ;;		None
 13345 ;; Return value:  Size  Location     Type
 13346 ;;                  1    wreg      void 
 13347 ;; Registers used:
 13348 ;;		None
 13349 ;; Tracked objects:
 13350 ;;		On entry : 0/0
 13351 ;;		On exit  : 0/0
 13352 ;;		Unchanged: 0/0
 13353 ;; Data sizes:     COMRAM   BANK0   BANK1   BANK2   BANK3   BANK4   BANK5   BANK6   BANK7   BANK8   BANK9  BANK10  BANK1
      +1  BANK12  BANK13  BANK14  BANK15
 13354 ;;      Params:         0       0       0       0       0       0       0       0       0       0       0       0       
      +0       0       0       0       0
 13355 ;;      Locals:         0       0       0       0       0       0       0       0       0       0       0       0       
      +0       0       0       0       0
 13356 ;;      Temps:          0       0       0       0       0       0       0       0       0       0       0       0       
      +0       0       0       0       0
 13357 ;;      Totals:         0       0       0       0       0       0       0       0       0       0       0       0       
      +0       0       0       0       0
 13358 ;;Total ram usage:        0 bytes
 13359 ;; Hardware stack levels used: 1
 13360 ;; Hardware stack levels required when called: 2
 13361 ;; This function calls:
 13362 ;;		Nothing
 13363 ;; This function is called by:
 13364 ;;		_UART1_Initialize
 13365 ;;		_UART1_Read
 13366 ;; This function uses a non-reentrant model
 13367 ;;
 13368                           
 13369                           	psect	text70
 13370   0054DC                     __ptext70:
 13371                           	callstack 0
 13372   0054DC                     _UART1_DefaultOverrunErrorHandler:
 13373                           	callstack 26
 13374   0054DC  0012               	return		;funcret
 13375   0054DE                     __end_of_UART1_DefaultOverrunErrorHandler:
 13376                           	callstack 0
 13377                           
 13378 ;; *************** function _UART1_DefaultFramingErrorHandler *****************
 13379 ;; Defined at:
 13380 ;;		line 183 in file "mcc_generated_files/uart1.c"
 13381 ;; Parameters:    Size  Location     Type
 13382 ;;		None
 13383 ;; Auto vars:     Size  Location     Type
 13384 ;;		None
 13385 ;; Return value:  Size  Location     Type
 13386 ;;                  1    wreg      void 
 13387 ;; Registers used:
 13388 ;;		None
 13389 ;; Tracked objects:
 13390 ;;		On entry : 0/0
 13391 ;;		On exit  : 0/0
 13392 ;;		Unchanged: 0/0
 13393 ;; Data sizes:     COMRAM   BANK0   BANK1   BANK2   BANK3   BANK4   BANK5   BANK6   BANK7   BANK8   BANK9  BANK10  BANK1
      +1  BANK12  BANK13  BANK14  BANK15
 13394 ;;      Params:         0       0       0       0       0       0       0       0       0       0       0       0       
      +0       0       0       0       0
 13395 ;;      Locals:         0       0       0       0       0       0       0       0       0       0       0       0       
      +0       0       0       0       0
 13396 ;;      Temps:          0       0       0       0       0       0       0       0       0       0       0       0       
      +0       0       0       0       0
 13397 ;;      Totals:         0       0       0       0       0       0       0       0       0       0       0       0       
      +0       0       0       0       0
 13398 ;;Total ram usage:        0 bytes
 13399 ;; Hardware stack levels used: 1
 13400 ;; Hardware stack levels required when called: 2
 13401 ;; This function calls:
 13402 ;;		Nothing
 13403 ;; This function is called by:
 13404 ;;		_UART1_Initialize
 13405 ;;		_UART1_Read
 13406 ;; This function uses a non-reentrant model
 13407 ;;
 13408                           
 13409                           	psect	text71
 13410   0054DE                     __ptext71:
 13411                           	callstack 0
 13412   0054DE                     _UART1_DefaultFramingErrorHandler:
 13413                           	callstack 26
 13414   0054DE  0012               	return		;funcret
 13415   0054E0                     __end_of_UART1_DefaultFramingErrorHandler:
 13416                           	callstack 0
 13417                           
 13418 ;; *************** function _UART1_DefaultErrorHandler *****************
 13419 ;; Defined at:
 13420 ;;		line 187 in file "mcc_generated_files/uart1.c"
 13421 ;; Parameters:    Size  Location     Type
 13422 ;;		None
 13423 ;; Auto vars:     Size  Location     Type
 13424 ;;		None
 13425 ;; Return value:  Size  Location     Type
 13426 ;;                  1    wreg      void 
 13427 ;; Registers used:
 13428 ;;		None
 13429 ;; Tracked objects:
 13430 ;;		On entry : 0/0
 13431 ;;		On exit  : 0/0
 13432 ;;		Unchanged: 0/0
 13433 ;; Data sizes:     COMRAM   BANK0   BANK1   BANK2   BANK3   BANK4   BANK5   BANK6   BANK7   BANK8   BANK9  BANK10  BANK1
      +1  BANK12  BANK13  BANK14  BANK15
 13434 ;;      Params:         0       0       0       0       0       0       0       0       0       0       0       0       
      +0       0       0       0       0
 13435 ;;      Locals:         0       0       0       0       0       0       0       0       0       0       0       0       
      +0       0       0       0       0
 13436 ;;      Temps:          0       0       0       0       0       0       0       0       0       0       0       0       
      +0       0       0       0       0
 13437 ;;      Totals:         0       0       0       0       0       0       0       0       0       0       0       0       
      +0       0       0       0       0
 13438 ;;Total ram usage:        0 bytes
 13439 ;; Hardware stack levels used: 1
 13440 ;; Hardware stack levels required when called: 2
 13441 ;; This function calls:
 13442 ;;		Nothing
 13443 ;; This function is called by:
 13444 ;;		_UART1_Initialize
 13445 ;;		_UART1_Read
 13446 ;; This function uses a non-reentrant model
 13447 ;;
 13448                           
 13449                           	psect	text72
 13450   0054E0                     __ptext72:
 13451                           	callstack 0
 13452   0054E0                     _UART1_DefaultErrorHandler:
 13453                           	callstack 26
 13454   0054E0  0012               	return		;funcret
 13455   0054E2                     __end_of_UART1_DefaultErrorHandler:
 13456                           	callstack 0
 13457                           
 13458 ;; *************** function _INTERRUPT_InterruptManager *****************
 13459 ;; Defined at:
 13460 ;;		line 58 in file "mcc_generated_files/interrupt_manager.c"
 13461 ;; Parameters:    Size  Location     Type
 13462 ;;		None
 13463 ;; Auto vars:     Size  Location     Type
 13464 ;;		None
 13465 ;; Return value:  Size  Location     Type
 13466 ;;                  1    wreg      void 
 13467 ;; Registers used:
 13468 ;;		wreg, status,2, cstack
 13469 ;; Tracked objects:
 13470 ;;		On entry : 0/0
 13471 ;;		On exit  : 0/0
 13472 ;;		Unchanged: 0/0
 13473 ;; Data sizes:     COMRAM   BANK0   BANK1   BANK2   BANK3   BANK4   BANK5   BANK6   BANK7   BANK8   BANK9  BANK10  BANK1
      +1  BANK12  BANK13  BANK14  BANK15
 13474 ;;      Params:         0       0       0       0       0       0       0       0       0       0       0       0       
      +0       0       0       0       0
 13475 ;;      Locals:         0       0       0       0       0       0       0       0       0       0       0       0       
      +0       0       0       0       0
 13476 ;;      Temps:          0       0       0       0       0       0       0       0       0       0       0       0       
      +0       0       0       0       0
 13477 ;;      Totals:         0       0       0       0       0       0       0       0       0       0       0       0       
      +0       0       0       0       0
 13478 ;;Total ram usage:        0 bytes
 13479 ;; Hardware stack levels used: 1
 13480 ;; Hardware stack levels required when called: 1
 13481 ;; This function calls:
 13482 ;;		_TMR2_ISR
 13483 ;;		_TMR4_ISR
 13484 ;; This function is called by:
 13485 ;;		Interrupt level 2
 13486 ;; This function uses a non-reentrant model
 13487 ;;
 13488                           
 13489                           	psect	text73
 13490   0050BC                     __ptext73:
 13491                           	callstack 0
 13492   0050BC                     _INTERRUPT_InterruptManager:
 13493                           	callstack 20
 13494   0050BC                     
 13495                           ;mcc_generated_files/interrupt_manager.c: 61:     if(PIE7bits.TMR4IE == 1 && PIR7bits.TM
      +                          R4IF == 1)
 13496   0050BC  0139               	movlb	57	; () banked
 13497   0050BE  A197               	btfss	151,0,b	;volatile
 13498   0050C0  EF64  F028         	goto	i2u538_41
 13499   0050C4  EF66  F028         	goto	i2u538_40
 13500   0050C8                     i2u538_41:
 13501   0050C8  EF71  F028         	goto	i2l392
 13502   0050CC                     i2u538_40:
 13503   0050CC                     
 13504                           ; BSR set to: 57
 13505   0050CC  A1A7               	btfss	167,0,b	;volatile
 13506   0050CE  EF6B  F028         	goto	i2u539_41
 13507   0050D2  EF6D  F028         	goto	i2u539_40
 13508   0050D6                     i2u539_41:
 13509   0050D6  EF71  F028         	goto	i2l392
 13510   0050DA                     i2u539_40:
 13511   0050DA                     
 13512                           ; BSR set to: 57
 13513                           ;mcc_generated_files/interrupt_manager.c: 62:     {;mcc_generated_files/interrupt_manage
      +                          r.c: 63:         TMR4_ISR();
 13514   0050DA  EC45  F02A         	call	_TMR4_ISR	;wreg free
 13515                           
 13516                           ;mcc_generated_files/interrupt_manager.c: 64:     }
 13517   0050DE  EF81  F028         	goto	i2l396
 13518   0050E2                     i2l392:
 13519                           
 13520                           ; BSR set to: 57
 13521   0050E2  A594               	btfss	148,2,b	;volatile
 13522   0050E4  EF76  F028         	goto	i2u540_41
 13523   0050E8  EF78  F028         	goto	i2u540_40
 13524   0050EC                     i2u540_41:
 13525   0050EC  EF81  F028         	goto	i2l396
 13526   0050F0                     i2u540_40:
 13527   0050F0                     
 13528                           ; BSR set to: 57
 13529   0050F0  A5A4               	btfss	164,2,b	;volatile
 13530   0050F2  EF7D  F028         	goto	i2u541_41
 13531   0050F6  EF7F  F028         	goto	i2u541_40
 13532   0050FA                     i2u541_41:
 13533   0050FA  EF81  F028         	goto	i2l396
 13534   0050FE                     i2u541_40:
 13535   0050FE                     
 13536                           ; BSR set to: 57
 13537                           ;mcc_generated_files/interrupt_manager.c: 66:     {;mcc_generated_files/interrupt_manage
      +                          r.c: 67:         TMR2_ISR();
 13538   0050FE  EC4B  F02A         	call	_TMR2_ISR	;wreg free
 13539   005102                     i2l396:
 13540   005102  0011               	retfie		f
 13541   005104                     __end_of_INTERRUPT_InterruptManager:
 13542                           	callstack 0
 13543                           
 13544 ;; *************** function _TMR4_ISR *****************
 13545 ;; Defined at:
 13546 ;;		line 167 in file "mcc_generated_files/tmr4.c"
 13547 ;; Parameters:    Size  Location     Type
 13548 ;;		None
 13549 ;; Auto vars:     Size  Location     Type
 13550 ;;		None
 13551 ;; Return value:  Size  Location     Type
 13552 ;;                  1    wreg      void 
 13553 ;; Registers used:
 13554 ;;		wreg, status,2
 13555 ;; Tracked objects:
 13556 ;;		On entry : 0/0
 13557 ;;		On exit  : 0/0
 13558 ;;		Unchanged: 0/0
 13559 ;; Data sizes:     COMRAM   BANK0   BANK1   BANK2   BANK3   BANK4   BANK5   BANK6   BANK7   BANK8   BANK9  BANK10  BANK1
      +1  BANK12  BANK13  BANK14  BANK15
 13560 ;;      Params:         0       0       0       0       0       0       0       0       0       0       0       0       
      +0       0       0       0       0
 13561 ;;      Locals:         0       0       0       0       0       0       0       0       0       0       0       0       
      +0       0       0       0       0
 13562 ;;      Temps:          0       0       0       0       0       0       0       0       0       0       0       0       
      +0       0       0       0       0
 13563 ;;      Totals:         0       0       0       0       0       0       0       0       0       0       0       0       
      +0       0       0       0       0
 13564 ;;Total ram usage:        0 bytes
 13565 ;; Hardware stack levels used: 1
 13566 ;; This function calls:
 13567 ;;		Nothing
 13568 ;; This function is called by:
 13569 ;;		_INTERRUPT_InterruptManager
 13570 ;; This function uses a non-reentrant model
 13571 ;;
 13572                           
 13573                           	psect	text74
 13574   00548A                     __ptext74:
 13575                           	callstack 0
 13576   00548A                     _TMR4_ISR:
 13577                           	callstack 20
 13578   00548A                     
 13579                           ;mcc_generated_files/tmr4.c: 171:     PIR7bits.TMR4IF = 0;
 13580   00548A  0139               	movlb	57	; () banked
 13581   00548C  91A7               	bcf	167,0,b	;volatile
 13582   00548E                     
 13583                           ; BSR set to: 57
 13584                           ;mcc_generated_files/tmr4.c: 173:     TMR4_flag = 1;
 13585   00548E  0E01               	movlw	1
 13586   005490  0100               	movlb	0	; () banked
 13587   005492  6FF7               	movwf	_TMR4_flag& (0+255),b
 13588   005494                     
 13589                           ; BSR set to: 0
 13590   005494  0012               	return		;funcret
 13591   005496                     __end_of_TMR4_ISR:
 13592                           	callstack 0
 13593                           
 13594 ;; *************** function _TMR2_ISR *****************
 13595 ;; Defined at:
 13596 ;;		line 167 in file "mcc_generated_files/tmr2.c"
 13597 ;; Parameters:    Size  Location     Type
 13598 ;;		None
 13599 ;; Auto vars:     Size  Location     Type
 13600 ;;		None
 13601 ;; Return value:  Size  Location     Type
 13602 ;;                  1    wreg      void 
 13603 ;; Registers used:
 13604 ;;		wreg, status,2
 13605 ;; Tracked objects:
 13606 ;;		On entry : 0/0
 13607 ;;		On exit  : 0/0
 13608 ;;		Unchanged: 0/0
 13609 ;; Data sizes:     COMRAM   BANK0   BANK1   BANK2   BANK3   BANK4   BANK5   BANK6   BANK7   BANK8   BANK9  BANK10  BANK1
      +1  BANK12  BANK13  BANK14  BANK15
 13610 ;;      Params:         0       0       0       0       0       0       0       0       0       0       0       0       
      +0       0       0       0       0
 13611 ;;      Locals:         0       0       0       0       0       0       0       0       0       0       0       0       
      +0       0       0       0       0
 13612 ;;      Temps:          0       0       0       0       0       0       0       0       0       0       0       0       
      +0       0       0       0       0
 13613 ;;      Totals:         0       0       0       0       0       0       0       0       0       0       0       0       
      +0       0       0       0       0
 13614 ;;Total ram usage:        0 bytes
 13615 ;; Hardware stack levels used: 1
 13616 ;; This function calls:
 13617 ;;		Nothing
 13618 ;; This function is called by:
 13619 ;;		_INTERRUPT_InterruptManager
 13620 ;; This function uses a non-reentrant model
 13621 ;;
 13622                           
 13623                           	psect	text75
 13624   005496                     __ptext75:
 13625                           	callstack 0
 13626   005496                     _TMR2_ISR:
 13627                           	callstack 20
 13628   005496                     
 13629                           ;mcc_generated_files/tmr2.c: 171:     PIR4bits.TMR2IF = 0;
 13630   005496  0139               	movlb	57	; () banked
 13631   005498  95A4               	bcf	164,2,b	;volatile
 13632   00549A                     
 13633                           ; BSR set to: 57
 13634                           ;mcc_generated_files/tmr2.c: 173:     TMR2_flag = 1;
 13635   00549A  0E01               	movlw	1
 13636   00549C  0100               	movlb	0	; () banked
 13637   00549E  6FF8               	movwf	_TMR2_flag& (0+255),b
 13638   0054A0                     
 13639                           ; BSR set to: 0
 13640   0054A0  0012               	return		;funcret
 13641   0054A2                     __end_of_TMR2_ISR:
 13642                           	callstack 0
 13643                           
 13644                           ;
 13645                           ; Interrupt Vector Table @ 0x8
 13646                           ;
 13647                           
 13648                           	psect	ivt0x8
 13649   000008                     __pivt0x8:
 13650                           	callstack 0
 13651   000008                     ivt0x8_base:
 13652                           	callstack 0
 13653                           
 13654                           ; high-priority vector
 13655   000008  EF5E  F028         	goto	_INTERRUPT_InterruptManager
 13656   000018                     	org	16
 13657                           
 13658                           ; low-priority vector
 13659   000018  00FF               	reset	
 13660                           
 13661                           	psect	text76
 13662   000000                     __ptext76:
 13663                           	callstack 0
 13664   000000                     
 13665                           	psect	rparam
 13666   000000                     
 13667                           	psect	idloc
 13668                           
 13669                           ;Config register IDLOC0 @ 0x200000
 13670                           ;	unspecified, using default values
 13671   200000                     	org	2097152
 13672   200000  0FFF               	dw	4095
 13673                           
 13674                           ;Config register IDLOC1 @ 0x200002
 13675                           ;	unspecified, using default values
 13676   200002                     	org	2097154
 13677   200002  0FFF               	dw	4095
 13678                           
 13679                           ;Config register IDLOC2 @ 0x200004
 13680                           ;	unspecified, using default values
 13681   200004                     	org	2097156
 13682   200004  0FFF               	dw	4095
 13683                           
 13684                           ;Config register IDLOC3 @ 0x200006
 13685                           ;	unspecified, using default values
 13686   200006                     	org	2097158
 13687   200006  0FFF               	dw	4095
 13688                           
 13689                           ;Config register IDLOC4 @ 0x200008
 13690                           ;	unspecified, using default values
 13691   200008                     	org	2097160
 13692   200008  0FFF               	dw	4095
 13693                           
 13694                           ;Config register IDLOC5 @ 0x20000A
 13695                           ;	unspecified, using default values
 13696   20000A                     	org	2097162
 13697   20000A  0FFF               	dw	4095
 13698                           
 13699                           ;Config register IDLOC6 @ 0x20000C
 13700                           ;	unspecified, using default values
 13701   20000C                     	org	2097164
 13702   20000C  0FFF               	dw	4095
 13703                           
 13704                           ;Config register IDLOC7 @ 0x20000E
 13705                           ;	unspecified, using default values
 13706   20000E                     	org	2097166
 13707   20000E  0FFF               	dw	4095
 13708                           
 13709                           	psect	config
 13710                           
 13711                           ;Config register CONFIG1L @ 0x300000
 13712                           ;	External Oscillator Selection
 13713                           ;	FEXTOSC = HS, HS (crystal oscillator) above 8 MHz; PFM set to high power
 13714                           ;	Reset Oscillator Selection
 13715                           ;	RSTOSC = EXTOSC, EXTOSC operating per FEXTOSC bits (device manufacturing default)
 13716   300000                     	org	3145728
 13717   300000  FA                 	db	250
 13718                           
 13719                           ;Config register CONFIG1H @ 0x300001
 13720                           ;	Clock out Enable bit
 13721                           ;	CLKOUTEN = OFF, CLKOUT function is disabled
 13722                           ;	PRLOCKED One-Way Set Enable bit
 13723                           ;	PR1WAY = ON, PRLOCK bit can be cleared and set only once
 13724                           ;	Clock Switch Enable bit
 13725                           ;	CSWEN = ON, Writing to NOSC and NDIV is allowed
 13726                           ;	Fail-Safe Clock Monitor Enable bit
 13727                           ;	FCMEN = ON, Fail-Safe Clock Monitor enabled
 13728   300001                     	org	3145729
 13729   300001  FF                 	db	255
 13730                           
 13731                           ;Config register CONFIG2L @ 0x300002
 13732                           ;	MCLR Enable bit
 13733                           ;	MCLRE = EXTMCLR, If LVP = 0, MCLR pin is MCLR; If LVP = 1, RE3 pin function is MCLR
 13734                           ;	Power-up timer selection bits
 13735                           ;	PWRTS = PWRT_OFF, PWRT is disabled
 13736                           ;	Multi-vector enable bit
 13737                           ;	MVECEN = OFF, Interrupt contoller does not use vector table to prioritze interrupts
 13738                           ;	IVTLOCK bit One-way set enable bit
 13739                           ;	IVT1WAY = ON, IVTLOCK bit can be cleared and set only once
 13740                           ;	Low Power BOR Enable bit
 13741                           ;	LPBOREN = OFF, ULPBOR disabled
 13742                           ;	Brown-out Reset Enable bits
 13743                           ;	BOREN = SBORDIS, Brown-out Reset enabled , SBOREN bit is ignored
 13744   300002                     	org	3145730
 13745   300002  F7                 	db	247
 13746                           
 13747                           ;Config register CONFIG2H @ 0x300003
 13748                           ;	Brown-out Reset Voltage Selection bits
 13749                           ;	BORV = VBOR_2P45, Brown-out Reset Voltage (VBOR) set to 2.45V
 13750                           ;	ZCD Disable bit
 13751                           ;	ZCD = OFF, ZCD disabled. ZCD can be enabled by setting the ZCDSEN bit of ZCDCON
 13752                           ;	PPSLOCK bit One-Way Set Enable bit
 13753                           ;	PPS1WAY = ON, PPSLOCK bit can be cleared and set only once; PPS registers remain locke
      +                          d after one clear/set cycle
 13754                           ;	Stack Full/Underflow Reset Enable bit
 13755                           ;	STVREN = ON, Stack full/underflow will cause Reset
 13756                           ;	Debugger Enable bit
 13757                           ;	DEBUG = OFF, Background debugger disabled
 13758                           ;	Extended Instruction Set Enable bit
 13759                           ;	XINST = OFF, Extended Instruction Set and Indexed Addressing Mode disabled
 13760   300003                     	org	3145731
 13761   300003  FF                 	db	255
 13762                           
 13763                           ;Config register CONFIG3L @ 0x300004
 13764                           ;	WDT Period selection bits
 13765                           ;	WDTCPS = WDTCPS_31, Divider ratio 1:65536; software control of WDTPS
 13766                           ;	WDT operating mode
 13767                           ;	WDTE = OFF, WDT Disabled; SWDTEN is ignored
 13768   300004                     	org	3145732
 13769   300004  9F                 	db	159
 13770                           
 13771                           ;Config register CONFIG3H @ 0x300005
 13772                           ;	WDT Window Select bits
 13773                           ;	WDTCWS = WDTCWS_7, window always open (100%); software control; keyed access not requi
      +                          red
 13774                           ;	WDT input clock selector
 13775                           ;	WDTCCS = SC, Software Control
 13776   300005                     	org	3145733
 13777   300005  FF                 	db	255
 13778                           
 13779                           ;Config register CONFIG4L @ 0x300006
 13780                           ;	Boot Block Size selection bits
 13781                           ;	BBSIZE = BBSIZE_512, Boot Block size is 512 words
 13782                           ;	Boot Block enable bit
 13783                           ;	BBEN = OFF, Boot block disabled
 13784                           ;	Storage Area Flash enable bit
 13785                           ;	SAFEN = OFF, SAF disabled
 13786                           ;	Application Block write protection bit
 13787                           ;	WRTAPP = OFF, Application Block not write protected
 13788   300006                     	org	3145734
 13789   300006  FF                 	db	255
 13790                           
 13791                           ;Config register CONFIG4H @ 0x300007
 13792                           ;	Boot Block Write Protection bit
 13793                           ;	WRTB = OFF, Boot Block not write-protected
 13794                           ;	Configuration Register Write Protection bit
 13795                           ;	WRTC = OFF, Configuration registers not write-protected
 13796                           ;	Data EEPROM Write Protection bit
 13797                           ;	WRTD = OFF, Data EEPROM not write-protected
 13798                           ;	SAF Write protection bit
 13799                           ;	WRTSAF = OFF, SAF not Write Protected
 13800                           ;	Low Voltage Programming Enable bit
 13801                           ;	LVP = ON, Low voltage programming enabled. MCLR/VPP pin function is MCLR. MCLRE config
      +                          uration bit is ignored
 13802   300007                     	org	3145735
 13803   300007  FF                 	db	255
 13804                           
 13805                           ;Config register CONFIG5L @ 0x300008
 13806                           ;	PFM and Data EEPROM Code Protection bit
 13807                           ;	CP = OFF, PFM and Data EEPROM code protection disabled
 13808   300008                     	org	3145736
 13809   300008  FF                 	db	255
 13810                           
 13811                           ;Config register CONFIG5H @ 0x300009
 13812                           ;	unspecified, using default values
 13813   300009                     	org	3145737
 13814   300009  FF                 	db	255
 13815                           tosu	equ	0x3FFF
 13816                           tosh	equ	0x3FFE
 13817                           tosl	equ	0x3FFD
 13818                           stkptr	equ	0x3FFC
 13819                           pclatu	equ	0x3FFB
 13820                           pclath	equ	0x3FFA
 13821                           pcl	equ	0x3FF9
 13822                           tblptru	equ	0x3FF8
 13823                           tblptrh	equ	0x3FF7
 13824                           tblptrl	equ	0x3FF6
 13825                           tablat	equ	0x3FF5
 13826                           prodh	equ	0x3FF4
 13827                           prodl	equ	0x3FF3
 13828                           indf0	equ	0x3FEF
 13829                           postinc0	equ	0x3FEE
 13830                           postdec0	equ	0x3FED
 13831                           preinc0	equ	0x3FEC
 13832                           plusw0	equ	0x3FEB
 13833                           fsr0h	equ	0x3FEA
 13834                           fsr0l	equ	0x3FE9
 13835                           wreg	equ	0x3FE8
 13836                           indf1	equ	0x3FE7
 13837                           postinc1	equ	0x3FE6
 13838                           postdec1	equ	0x3FE5
 13839                           preinc1	equ	0x3FE4
 13840                           plusw1	equ	0x3FE3
 13841                           fsr1h	equ	0x3FE2
 13842                           fsr1l	equ	0x3FE1
 13843                           bsr	equ	0x3FE0
 13844                           indf2	equ	0x3FDF
 13845                           postinc2	equ	0x3FDE
 13846                           postdec2	equ	0x3FDD
 13847                           preinc2	equ	0x3FDC
 13848                           plusw2	equ	0x3FDB
 13849                           fsr2h	equ	0x3FDA
 13850                           fsr2l	equ	0x3FD9
 13851                           status	equ	0x3FD8

Data Sizes:
    Strings     14
    Constant    0
    Data        163
    BSS         169
    Persistent  22
    Stack       0

Auto Spaces:
    Space          Size  Autos    Used
    COMRAM           95     95      95
    BANK0           160    119     160
    BANK1           256      0     256
    BANK2           256      0      57
    BANK3           256      0       0
    BANK4           256      0       0
    BANK5           256      0       0
    BANK6           256      0       0
    BANK7           256      0       0
    BANK8           256      0       0
    BANK9           256      0       0
    BANK10          256      0       0
    BANK11          256      0       0
    BANK12          256      0       0
    BANK13          256      0       0
    BANK14          256      0       0
    BANK15          256      0       0

Pointer List with Targets:

    strcpy@dest	PTR unsigned char  size(2) Largest target is 80
		 -> dbuf(BANK1[80]), 

    strcpy@d	PTR unsigned char  size(2) Largest target is 80
		 -> dbuf(BANK1[80]), 

    strcpy@src	PTR const unsigned char  size(2) Largest target is 4
		 -> STR_6(CODE[4]), STR_3(CODE[4]), 

    strcpy@s	PTR const unsigned char  size(2) Largest target is 4
		 -> STR_6(CODE[4]), STR_3(CODE[4]), 

    fputs@s	PTR const unsigned char  size(2) Largest target is 80
		 -> dbuf(BANK1[80]), 

    fputs@fp	PTR struct _IO_FILE size(2) Largest target is 12
		 -> sprintf@f(BANK0[12]), 

    fputc@fp...source	PTR const unsigned char  size(2) Largest target is 0

    fputc@fp...buffer	PTR unsigned char  size(2) Largest target is 0

    fputc@fp	PTR struct _IO_FILE size(2) Largest target is 12
		 -> sprintf@f(BANK0[12]), 

    memcpy@d1	PTR void  size(2) Largest target is 80
		 -> dbuf(BANK1[80]), 

    memcpy@d	PTR unsigned char  size(2) Largest target is 80
		 -> dbuf(BANK1[80]), 

    memcpy@s1	PTR const void  size(2) Largest target is 80
		 -> dbuf(BANK1[80]), 

    memcpy@s	PTR const unsigned char  size(2) Largest target is 80
		 -> dbuf(BANK1[80]), 

    vfprintf@ap	PTR PTR void  size(2) Largest target is 2
		 -> sprintf@ap(BANK0[2]), 

    vfprintf@fp	PTR struct _IO_FILE size(2) Largest target is 12
		 -> sprintf@f(BANK0[12]), 

    vfprintf@fmt	PTR const unsigned char  size(2) Largest target is 3
		 -> STR_2(CODE[3]), STR_1(CODE[3]), 

    vfprintf@cfmt	PTR unsigned char  size(2) Largest target is 3
		 -> STR_2(CODE[3]), STR_1(CODE[3]), 

    vfpfcnvrt@fp	PTR struct _IO_FILE size(2) Largest target is 12
		 -> sprintf@f(BANK0[12]), 

    vfpfcnvrt@ap	PTR PTR void  size(2) Largest target is 2
		 -> sprintf@ap(BANK0[2]), 

    vfpfcnvrt@cp	PTR unsigned char  size(2) Largest target is 3
		 -> STR_2(CODE[3]), STR_1(CODE[3]), 

    vfpfcnvrt@fmt	PTR PTR unsigned char  size(2) Largest target is 2
		 -> vfprintf@cfmt(COMRAM[2]), 

    S2234$vp	PTR void  size(2) Largest target is 0

    convarg.vp	PTR void  size(2) Largest target is 0

    sp__memcpy	PTR void  size(2) Largest target is 80
		 -> dbuf(BANK1[80]), 

    efgtoa@fp	PTR struct _IO_FILE size(2) Largest target is 12
		 -> sprintf@f(BANK0[12]), 

    sp__strcpy	PTR unsigned char  size(2) Largest target is 80
		 -> dbuf(BANK1[80]), 

    dtoa@fp	PTR struct _IO_FILE size(2) Largest target is 12
		 -> sprintf@f(BANK0[12]), 

    pad@buf	PTR unsigned char  size(2) Largest target is 80
		 -> dbuf(BANK1[80]), 

    pad@fp	PTR struct _IO_FILE size(2) Largest target is 12
		 -> sprintf@f(BANK0[12]), 

    sprintf@fmt	PTR const unsigned char  size(2) Largest target is 3
		 -> STR_2(CODE[3]), STR_1(CODE[3]), 

    sprintf@s	PTR unsigned char  size(2) Largest target is 6
		 -> send_t@mensaje(BANK0[5]), print_num@mensaje(COMRAM[6]), 

    sprintf@ap	PTR void [1] size(2) Largest target is 2
		 -> ?_sprintf(BANK0[2]), 

    S2150$source	PTR const unsigned char  size(2) Largest target is 0

    f...source	PTR const unsigned char  size(2) Largest target is 0

    S2150$buffer	PTR unsigned char  size(2) Largest target is 0

    f...buffer	PTR unsigned char  size(2) Largest target is 0

    TMR4_SetInterruptHandler@InterruptHandler	PTR FTN()void  size(2) Largest target is 1
		 -> TMR4_DefaultInterruptHandler(), 

    TMR4_InterruptHandler	PTR FTN()void  size(2) Largest target is 1
		 -> NULL(), TMR4_DefaultInterruptHandler(), 

    TMR2_SetInterruptHandler@InterruptHandler	PTR FTN()void  size(2) Largest target is 1
		 -> TMR2_DefaultInterruptHandler(), 

    TMR2_InterruptHandler	PTR FTN()void  size(2) Largest target is 1
		 -> NULL(), TMR2_DefaultInterruptHandler(), 

    UART1_SetErrorHandler@interruptHandler	PTR FTN()void  size(2) Largest target is 1
		 -> UART1_DefaultErrorHandler(), 

    UART1_SetOverrunErrorHandler@interruptHandler	PTR FTN()void  size(2) Largest target is 1
		 -> UART1_DefaultOverrunErrorHandler(), 

    UART1_SetFramingErrorHandler@interruptHandler	PTR FTN()void  size(2) Largest target is 1
		 -> UART1_DefaultFramingErrorHandler(), 

    UART1_ErrorHandler	PTR FTN()void  size(2) Largest target is 1
		 -> NULL(), UART1_DefaultErrorHandler(), 

    UART1_OverrunErrorHandler	PTR FTN()void  size(2) Largest target is 1
		 -> NULL(), UART1_DefaultOverrunErrorHandler(), 

    UART1_FramingErrorHandler	PTR FTN()void  size(2) Largest target is 1
		 -> NULL(), UART1_DefaultFramingErrorHandler(), 


Critical Paths under _main in COMRAM

    _sprintf->_vfprintf
    _vfprintf->_vfpfcnvrt
    _vfpfcnvrt->_efgtoa
    _efgtoa->___flge
    _floorf->___fldiv
    ___flsub->___flmul
    ___flge->___flmul
    _dtoa->_pad
    _pad->_fputs
    _fputs->_fputc
    _abs->___awmod
    _mensaje_vels->_UART1_Write
    _mensaje_vels->_UART1_is_tx_ready
    _mensaje_terminado->_UART1_Write
    _mensaje_terminado->_UART1_is_tx_ready
    _mensaje_final->_UART1_Write
    _mensaje_final->_UART1_is_tx_ready
    _mensaje_capas->_UART1_Write
    _mensaje_capas->_UART1_is_tx_ready
    _mensaje_capa2->_UART1_Write
    _mensaje_capa2->_UART1_is_tx_ready
    _mensaje_boton->_UART1_Write
    _mensaje_boton->_UART1_is_tx_ready
    _mensaje_L->_UART1_Write
    _mensaje_L->_UART1_is_tx_ready
    _mensaje_AWG->_UART1_Write
    _mensaje_AWG->_UART1_is_tx_ready
    _init_hx->_set_gain
    _set_gain->_hx711_read
    _get_average->___lldiv
    _T_tmr4->___flmul
    _T_tmr2->___flmul
    ___flmul->___fldiv
    ___fldiv->___xxtofl
    _UART1_Initialize->_UART1_SetErrorHandler
    _UART1_Initialize->_UART1_SetFramingErrorHandler
    _UART1_Initialize->_UART1_SetOverrunErrorHandler
    _TMR4_Initialize->_TMR4_SetInterruptHandler
    _TMR2_Initialize->_TMR2_SetInterruptHandler
    _Lectura_Serial->___wmul

Critical Paths under _INTERRUPT_InterruptManager in COMRAM

    None.

Critical Paths under _main in BANK0

    _main->_send_t
    _send_t->_sprintf
    _sprintf->_vfprintf
    _vfprintf->_vfpfcnvrt
    _vfpfcnvrt->_efgtoa

Critical Paths under _INTERRUPT_InterruptManager in BANK0

    None.

Critical Paths under _main in BANK1

    None.

Critical Paths under _INTERRUPT_InterruptManager in BANK1

    None.

Critical Paths under _main in BANK2

    None.

Critical Paths under _INTERRUPT_InterruptManager in BANK2

    None.

Critical Paths under _main in BANK3

    None.

Critical Paths under _INTERRUPT_InterruptManager in BANK3

    None.

Critical Paths under _main in BANK4

    None.

Critical Paths under _INTERRUPT_InterruptManager in BANK4

    None.

Critical Paths under _main in BANK5

    None.

Critical Paths under _INTERRUPT_InterruptManager in BANK5

    None.

Critical Paths under _main in BANK6

    None.

Critical Paths under _INTERRUPT_InterruptManager in BANK6

    None.

Critical Paths under _main in BANK7

    None.

Critical Paths under _INTERRUPT_InterruptManager in BANK7

    None.

Critical Paths under _main in BANK8

    None.

Critical Paths under _INTERRUPT_InterruptManager in BANK8

    None.

Critical Paths under _main in BANK9

    None.

Critical Paths under _INTERRUPT_InterruptManager in BANK9

    None.

Critical Paths under _main in BANK10

    None.

Critical Paths under _INTERRUPT_InterruptManager in BANK10

    None.

Critical Paths under _main in BANK11

    None.

Critical Paths under _INTERRUPT_InterruptManager in BANK11

    None.

Critical Paths under _main in BANK12

    None.

Critical Paths under _INTERRUPT_InterruptManager in BANK12

    None.

Critical Paths under _main in BANK13

    None.

Critical Paths under _INTERRUPT_InterruptManager in BANK13

    None.

Critical Paths under _main in BANK14

    None.

Critical Paths under _INTERRUPT_InterruptManager in BANK14

    None.

Critical Paths under _main in BANK15

    None.

Critical Paths under _INTERRUPT_InterruptManager in BANK15

    None.

Call Graph Tables:

 ---------------------------------------------------------------------------------
 (Depth) Function   	        Calls       Base Space   Used Autos Params    Refs
 ---------------------------------------------------------------------------------
 (0) _main                                                 4     4      0   61325
                                            115 BANK0      4     4      0
                     _Lectura_Serial
                 _PWM5_LoadDutyValue
                 _PWM6_LoadDutyValue
                  _SYSTEM_Initialize
                             _T_tmr2
                             _T_tmr4
                            ___awdiv
                            ___fldiv
                            ___flmul
                            ___fltol
                             ___lmul
                             ___wmul
                           ___xxtofl
                        _get_average
                            _init_hx
                        _mensaje_AWG
                          _mensaje_L
                      _mensaje_boton
                      _mensaje_capa2
                      _mensaje_capas
                      _mensaje_final
                  _mensaje_terminado
                       _mensaje_vels
                   _recibir_caracter
                     _recibir_numero
                             _send_t
 ---------------------------------------------------------------------------------
 (1) _send_t                                              36    28      8   29037
                                             79 BANK0     36    28      8
                        _UART1_Write
                  _UART1_is_tx_ready
                            _sprintf
 ---------------------------------------------------------------------------------
 (2) _sprintf                                             24    16      8   28608
                                             57 BANK0     22    14      8
                           _vfprintf
 ---------------------------------------------------------------------------------
 (3) _vfprintf                                             8     2      6   28101
                                             93 COMRAM     2     2      0
                                             51 BANK0      6     0      6
                          _vfpfcnvrt
 ---------------------------------------------------------------------------------
 (4) _vfpfcnvrt                                           19    13      6   27748
                                             85 COMRAM     8     2      6
                                             44 BANK0      7     7      0
                               _dtoa
                             _efgtoa
                              _fputc
 ---------------------------------------------------------------------------------
 (5) _efgtoa                                              54    47      7   21621
                                             76 COMRAM     9     2      7
                                              0 BANK0     44    44      0
                            ___fladd
                            ___fldiv
                             ___fleq
                             ___flge
                            ___flmul
                            ___flneg
                            ___flsub
                            ___fltol
                      ___fpclassifyf
                             _floorf
                               _labs
                             _memcpy
                                _pad
                             _strcpy
 ---------------------------------------------------------------------------------
 (6) _strcpy                                               8     4      4     400
                                              0 COMRAM     8     4      4
 ---------------------------------------------------------------------------------
 (6) _memcpy                                              11     5      6     371
                                              0 COMRAM    11     5      6
 ---------------------------------------------------------------------------------
 (6) _labs                                                 8     4      4     294
                                              0 COMRAM     8     4      4
 ---------------------------------------------------------------------------------
 (6) _floorf                                              20    16      4     490
                                             39 COMRAM    20    16      4
                            ___fldiv (ARG)
 ---------------------------------------------------------------------------------
 (6) ___fpclassifyf                                       14    10      4     287
                                              0 COMRAM    14    10      4
 ---------------------------------------------------------------------------------
 (6) ___flsub                                              8     0      8    2889
                                             64 COMRAM     8     0      8
                            ___fladd
                            ___flmul (ARG)
 ---------------------------------------------------------------------------------
 (7) ___fladd                                             16     8      8    2414
                                              0 COMRAM    16     8      8
 ---------------------------------------------------------------------------------
 (6) ___flneg                                              4     0      4     121
                                              0 COMRAM     4     0      4
 ---------------------------------------------------------------------------------
 (6) ___flge                                              12     4      8     790
                                             64 COMRAM    12     4      8
                            ___flmul (ARG)
 ---------------------------------------------------------------------------------
 (6) ___fleq                                              12     4      8     646
                                              0 COMRAM    12     4      8
 ---------------------------------------------------------------------------------
 (5) _dtoa                                                13     9      4    4614
                                             27 COMRAM    13     9      4
                            ___awdiv
                            ___awmod
                                _abs
                                _pad
 ---------------------------------------------------------------------------------
 (6) _pad                                                 11     5      6    2683
                                             16 COMRAM    11     5      6
                              _fputc
                              _fputs
 ---------------------------------------------------------------------------------
 (7) _fputs                                                7     3      4     931
                                              9 COMRAM     7     3      4
                              _fputc
 ---------------------------------------------------------------------------------
 (5) _fputc                                                9     5      4     682
                                              0 COMRAM     9     5      4
                              _putch
 ---------------------------------------------------------------------------------
 (6) _putch                                                1     1      0       0
 ---------------------------------------------------------------------------------
 (6) _abs                                                  4     2      2     142
                                              6 COMRAM     4     2      2
                            ___awmod (ARG)
 ---------------------------------------------------------------------------------
 (6) ___awmod                                              6     2      4     448
                                              0 COMRAM     6     2      4
 ---------------------------------------------------------------------------------
 (6) ___awdiv                                              8     4      4     756
                                              0 COMRAM     8     4      4
 ---------------------------------------------------------------------------------
 (1) _recibir_numero                                       5     3      2      46
                                              0 COMRAM     5     3      2
                         _UART1_Read
                  _UART1_is_rx_ready
 ---------------------------------------------------------------------------------
 (1) _recibir_caracter                                     2     2      0      46
                                              0 COMRAM     2     2      0
                         _UART1_Read
                  _UART1_is_rx_ready
 ---------------------------------------------------------------------------------
 (1) _mensaje_vels                                        29    29      0     138
                                              1 COMRAM    29    29      0
                        _UART1_Write
                  _UART1_is_tx_ready
 ---------------------------------------------------------------------------------
 (1) _mensaje_terminado                                   19    19      0     138
                                              1 COMRAM    19    19      0
                        _UART1_Write
                  _UART1_is_tx_ready
 ---------------------------------------------------------------------------------
 (1) _mensaje_final                                       22    22      0     138
                                              1 COMRAM    22    22      0
                        _UART1_Write
                  _UART1_is_tx_ready
 ---------------------------------------------------------------------------------
 (1) _mensaje_capas                                       11    11      0     138
                                              1 COMRAM    11    11      0
                        _UART1_Write
                  _UART1_is_tx_ready
 ---------------------------------------------------------------------------------
 (1) _mensaje_capa2                                       30    30      0     138
                                              1 COMRAM    30    30      0
                        _UART1_Write
                  _UART1_is_tx_ready
 ---------------------------------------------------------------------------------
 (1) _mensaje_boton                                       23    23      0     138
                                              1 COMRAM    23    23      0
                        _UART1_Write
                  _UART1_is_tx_ready
 ---------------------------------------------------------------------------------
 (1) _mensaje_L                                           20    20      0     138
                                              1 COMRAM    20    20      0
                        _UART1_Write
                  _UART1_is_tx_ready
 ---------------------------------------------------------------------------------
 (1) _mensaje_AWG                                          9     9      0     138
                                              1 COMRAM     9     9      0
                        _UART1_Write
                  _UART1_is_tx_ready
 ---------------------------------------------------------------------------------
 (2) _UART1_is_tx_ready                                    1     1      0      24
                                              0 COMRAM     1     1      0
 ---------------------------------------------------------------------------------
 (2) _UART1_Write                                          1     1      0      22
                                              0 COMRAM     1     1      0
 ---------------------------------------------------------------------------------
 (1) _init_hx                                              2     0      2     336
                                             16 COMRAM     2     0      2
                           _set_gain
 ---------------------------------------------------------------------------------
 (2) _set_gain                                             4     2      2     238
                                             12 COMRAM     4     2      2
                         _hx711_read
 ---------------------------------------------------------------------------------
 (1) _get_average                                         11     7      4     644
                                             13 COMRAM    11     7      4
                            ___lldiv
                         _hx711_read
 ---------------------------------------------------------------------------------
 (3) _hx711_read                                          12     8      4     140
                                              0 COMRAM    12     8      4
 ---------------------------------------------------------------------------------
 (2) ___lldiv                                             13     5      8     314
                                              0 COMRAM    13     5      8
 ---------------------------------------------------------------------------------
 (1) ___lmul                                              12     4      8     826
                                              0 COMRAM    12     4      8
 ---------------------------------------------------------------------------------
 (1) _T_tmr4                                              18    16      2    8600
                                             64 COMRAM    18    16      2
                            ___fldiv
                            ___flmul
                            ___fltol
                           ___xxtofl
 ---------------------------------------------------------------------------------
 (1) ___xxtofl                                            14    10      4     626
                                              0 COMRAM    14    10      4
 ---------------------------------------------------------------------------------
 (1) _T_tmr2                                              20    16      4    8049
                                             64 COMRAM    20    16      4
                            ___fldiv
                            ___flmul
                            ___fltol
 ---------------------------------------------------------------------------------
 (6) ___fltol                                             10     6      4     685
                                              0 COMRAM    10     6      4
 ---------------------------------------------------------------------------------
 (6) ___flmul                                             25    17      8    3872
                                             39 COMRAM    25    17      8
                            ___fldiv (ARG)
                           ___xxtofl (ARG)
 ---------------------------------------------------------------------------------
 (6) ___fldiv                                             25    17      8    3223
                                             14 COMRAM    25    17      8
                           ___xxtofl (ARG)
 ---------------------------------------------------------------------------------
 (1) _SYSTEM_Initialize                                    0     0      0     490
               _INTERRUPT_Initialize
              _OSCILLATOR_Initialize
             _PIN_MANAGER_Initialize
                     _PMD_Initialize
                    _PWM5_Initialize
                    _PWM6_Initialize
                    _TMR2_Initialize
                    _TMR4_Initialize
                    _TMR6_Initialize
                   _UART1_Initialize
 ---------------------------------------------------------------------------------
 (2) _UART1_Initialize                                     0     0      0     294
              _UART1_SetErrorHandler
       _UART1_SetFramingErrorHandler
       _UART1_SetOverrunErrorHandler
 ---------------------------------------------------------------------------------
 (3) _UART1_SetOverrunErrorHandler                         2     0      2      98
                                              0 COMRAM     2     0      2
 ---------------------------------------------------------------------------------
 (3) _UART1_SetFramingErrorHandler                         2     0      2      98
                                              0 COMRAM     2     0      2
 ---------------------------------------------------------------------------------
 (3) _UART1_SetErrorHandler                                2     0      2      98
                                              0 COMRAM     2     0      2
 ---------------------------------------------------------------------------------
 (2) _TMR6_Initialize                                      0     0      0       0
 ---------------------------------------------------------------------------------
 (2) _TMR4_Initialize                                      0     0      0      98
           _TMR4_SetInterruptHandler
 ---------------------------------------------------------------------------------
 (3) _TMR4_SetInterruptHandler                             2     0      2      98
                                              0 COMRAM     2     0      2
 ---------------------------------------------------------------------------------
 (2) _TMR2_Initialize                                      0     0      0      98
           _TMR2_SetInterruptHandler
 ---------------------------------------------------------------------------------
 (3) _TMR2_SetInterruptHandler                             2     0      2      98
                                              0 COMRAM     2     0      2
 ---------------------------------------------------------------------------------
 (2) _PWM6_Initialize                                      0     0      0       0
 ---------------------------------------------------------------------------------
 (2) _PWM5_Initialize                                      0     0      0       0
 ---------------------------------------------------------------------------------
 (2) _PMD_Initialize                                       0     0      0       0
 ---------------------------------------------------------------------------------
 (2) _PIN_MANAGER_Initialize                               0     0      0       0
 ---------------------------------------------------------------------------------
 (2) _OSCILLATOR_Initialize                                0     0      0       0
 ---------------------------------------------------------------------------------
 (2) _INTERRUPT_Initialize                                 0     0      0       0
 ---------------------------------------------------------------------------------
 (1) _PWM6_LoadDutyValue                                   4     2      2     272
                                              0 COMRAM     4     2      2
 ---------------------------------------------------------------------------------
 (1) _PWM5_LoadDutyValue                                   4     2      2     272
                                              0 COMRAM     4     2      2
 ---------------------------------------------------------------------------------
 (1) _Lectura_Serial                                      29    27      2    1347
                                              6 COMRAM    29    27      2
                         _UART1_Read
                  _UART1_is_rx_ready
                             ___wmul
 ---------------------------------------------------------------------------------
 (1) ___wmul                                               6     2      4    1071
                                              0 COMRAM     6     2      4
 ---------------------------------------------------------------------------------
 (2) _UART1_is_rx_ready                                    0     0      0       0
 ---------------------------------------------------------------------------------
 (2) _UART1_Read                                           0     0      0       0
                                NULL *
          _UART1_DefaultErrorHandler *
   _UART1_DefaultFramingErrorHandler *
   _UART1_DefaultOverrunErrorHandler *
 ---------------------------------------------------------------------------------
 (3) _UART1_DefaultOverrunErrorHandler                     0     0      0       0
 ---------------------------------------------------------------------------------
 (3) _UART1_DefaultFramingErrorHandler                     0     0      0       0
 ---------------------------------------------------------------------------------
 (3) _UART1_DefaultErrorHandler                            0     0      0       0
 ---------------------------------------------------------------------------------
 (3) NULL(Fake)                                            0     0      0       0
 ---------------------------------------------------------------------------------
 Estimated maximum stack depth 7
 ---------------------------------------------------------------------------------
 (Depth) Function   	        Calls       Base Space   Used Autos Params    Refs
 ---------------------------------------------------------------------------------
 (10) _INTERRUPT_InterruptManager                          0     0      0       0
                           _TMR2_ISR
                           _TMR4_ISR
 ---------------------------------------------------------------------------------
 (11) _TMR4_ISR                                            0     0      0       0
 ---------------------------------------------------------------------------------
 (11) _TMR2_ISR                                            0     0      0       0
 ---------------------------------------------------------------------------------
 Estimated maximum stack depth 11
 ---------------------------------------------------------------------------------

 Call Graph Graphs:

 _main (ROOT)
   _Lectura_Serial
     _UART1_Read
       NULL(Fake) *
       _UART1_DefaultErrorHandler *
       _UART1_DefaultFramingErrorHandler *
       _UART1_DefaultOverrunErrorHandler *
     _UART1_is_rx_ready
     ___wmul
   _PWM5_LoadDutyValue
   _PWM6_LoadDutyValue
   _SYSTEM_Initialize
     _INTERRUPT_Initialize
     _OSCILLATOR_Initialize
     _PIN_MANAGER_Initialize
     _PMD_Initialize
     _PWM5_Initialize
     _PWM6_Initialize
     _TMR2_Initialize
       _TMR2_SetInterruptHandler
     _TMR4_Initialize
       _TMR4_SetInterruptHandler
     _TMR6_Initialize
     _UART1_Initialize
       _UART1_SetErrorHandler
       _UART1_SetFramingErrorHandler
       _UART1_SetOverrunErrorHandler
   _T_tmr2
     ___fldiv
       ___xxtofl (ARG)
     ___flmul
       ___fldiv (ARG)
       ___xxtofl (ARG)
     ___fltol
   _T_tmr4
     ___fldiv
     ___flmul
     ___fltol
     ___xxtofl
   ___awdiv
   ___fldiv
   ___flmul
   ___fltol
   ___lmul
   ___wmul
   ___xxtofl
   _get_average
     ___lldiv
     _hx711_read
   _init_hx
     _set_gain
       _hx711_read
   _mensaje_AWG
     _UART1_Write
     _UART1_is_tx_ready
   _mensaje_L
     _UART1_Write
     _UART1_is_tx_ready
   _mensaje_boton
     _UART1_Write
     _UART1_is_tx_ready
   _mensaje_capa2
     _UART1_Write
     _UART1_is_tx_ready
   _mensaje_capas
     _UART1_Write
     _UART1_is_tx_ready
   _mensaje_final
     _UART1_Write
     _UART1_is_tx_ready
   _mensaje_terminado
     _UART1_Write
     _UART1_is_tx_ready
   _mensaje_vels
     _UART1_Write
     _UART1_is_tx_ready
   _recibir_caracter
     _UART1_Read
     _UART1_is_rx_ready
   _recibir_numero
     _UART1_Read
     _UART1_is_rx_ready
   _send_t
     _UART1_Write
     _UART1_is_tx_ready
     _sprintf
       _vfprintf
         _vfpfcnvrt
           _dtoa
             ___awdiv
             ___awmod
             _abs
               ___awmod (ARG)
             _pad
               _fputc
                 _putch
               _fputs
                 _fputc
           _efgtoa
             ___fladd
             ___fldiv
             ___fleq
             ___flge
               ___flmul (ARG)
             ___flmul
             ___flneg
             ___flsub
               ___fladd
               ___flmul (ARG)
             ___fltol
             ___fpclassifyf
             _floorf
               ___fldiv (ARG)
             _labs
             _memcpy
             _pad
             _strcpy
           _fputc

 _INTERRUPT_InterruptManager (ROOT)
   _TMR2_ISR
   _TMR4_ISR

 Address spaces:
Name               Size   Autos  Total    Cost      Usage
BIGRAM             FFF      0       0      73        0.0%
EEDATA             400      0       0       0        0.0%
BITBIGSFRlhlhhh    302      0       0      50        0.0%
BITBIGSFRlll       194      0       0      71        0.0%
BITBIGSFRhlllll    164      0       0      47        0.0%
BITBANK15          100      0       0      34        0.0%
BANK15             100      0       0      35        0.0%
BITBANK14          100      0       0      32        0.0%
BANK14             100      0       0      33        0.0%
BITBANK13          100      0       0      30        0.0%
BANK13             100      0       0      31        0.0%
BITBANK12          100      0       0      28        0.0%
BANK12             100      0       0      29        0.0%
BITBANK11          100      0       0      26        0.0%
BANK11             100      0       0      27        0.0%
BITBANK10          100      0       0      24        0.0%
BANK10             100      0       0      25        0.0%
BITBANK9           100      0       0      22        0.0%
BANK9              100      0       0      23        0.0%
BITBANK8           100      0       0      20        0.0%
BANK8              100      0       0      21        0.0%
BITBANK7           100      0       0      18        0.0%
BANK7              100      0       0      19        0.0%
BITBANK6           100      0       0      16        0.0%
BANK6              100      0       0      17        0.0%
BITBANK5           100      0       0      14        0.0%
BANK5              100      0       0      15        0.0%
BITBANK4           100      0       0      12        0.0%
BANK4              100      0       0      13        0.0%
BITBANK3           100      0       0      10        0.0%
BANK3              100      0       0      11        0.0%
BITBANK2           100      0       0       8        0.0%
BANK2              100      0      39       9       22.3%
BITBANK1           100      0       0       6        0.0%
BANK1              100      0     100       7      100.0%
BITBANK0            A0      0       0       4        0.0%
BANK0               A0     77      A0       5      100.0%
BITBIGSFRlhlhhl     60      0       0      51        0.0%
BITCOMRAM           5F      0       0       0        0.0%
COMRAM              5F     5F      5F       1      100.0%
BITBIGSFRhhhh       2D      0       0      36        0.0%
BITBIGSFRlhllll     29      0       0      59        0.0%
BITBIGSFRhlllll     23      0       0      44        0.0%
BITBIGSFRlhllll     21      0       0      62        0.0%
BITBIGSFRlhllll     16      0       0      66        0.0%
BITBIGSFRlhllll     11      0       0      65        0.0%
BITBIGSFRlhllll     11      0       0      60        0.0%
BITBIGSFRllhh        B      0       0      69        0.0%
BITBIGSFRlhllll      B      0       0      58        0.0%
BITBIGSFRhllh        A      0       0      41        0.0%
BITBIGSFRhlllll      8      0       0      46        0.0%
BITBIGSFRhlllll      6      0       0      43        0.0%
BITBIGSFRhllllh      6      0       0      42        0.0%
BITBIGSFRlhlllh      5      0       0      57        0.0%
BITBIGSFRlhllhl      5      0       0      55        0.0%
BITBIGSFRlhlhll      5      0       0      53        0.0%
BITBIGSFRhhhlh       4      0       0      37        0.0%
BITBIGSFRlhlhlh      4      0       0      52        0.0%
BITBIGSFRlhllhh      4      0       0      54        0.0%
BITBIGSFRlhlllh      4      0       0      56        0.0%
BITBIGSFRhhhlll      3      0       0      39        0.0%
BITBIGSFRhhll        3      0       0      40        0.0%
BITBIGSFRhhhllh      2      0       0      38        0.0%
BITBIGSFRllhl        2      0       0      70        0.0%
BITBIGSFRlhllll      2      0       0      61        0.0%
BITBIGSFRlhllll      2      0       0      68        0.0%
BITBIGSFRhlllll      1      0       0      45        0.0%
BITBIGSFRlhllll      1      0       0      63        0.0%
BITBIGSFRlhllll      1      0       0      64        0.0%
BITBIGSFRlhllll      1      0       0      67        0.0%
BITBIGSFRlhhh        1      0       0      48        0.0%
BITBIGSFRlhhl        1      0       0      49        0.0%
BIGSFR               0      0       0     200        0.0%
BITSFR_8             0      0       0     200        0.0%
SFR_8                0      0       0     200        0.0%
BITSFR_7             0      0       0     200        0.0%
SFR_7                0      0       0     200        0.0%
BITSFR_6             0      0       0     200        0.0%
SFR_6                0      0       0     200        0.0%
BITSFR_5             0      0       0     200        0.0%
SFR_5                0      0       0     200        0.0%
BITSFR_4             0      0       0     200        0.0%
SFR_4                0      0       0     200        0.0%
BITSFR_3             0      0       0     200        0.0%
SFR_3                0      0       0     200        0.0%
BITSFR_2             0      0       0     200        0.0%
SFR_2                0      0       0     200        0.0%
BITSFR_1             0      0       0     200        0.0%
SFR_1                0      0       0     200        0.0%
BITSFR               0      0       0     200        0.0%
SFR                  0      0       0     200        0.0%
STACK                0      0       0       2        0.0%
NULL                 0      0       0       0        0.0%
ABS                  0      0     238      72        0.0%
DATA                 0      0     238       3        0.0%
CODE                 0      0       0       0        0.0%


Microchip Technology PIC18 Macro Assembler V2.41 build 20230208172133 
Symbol Table                                                                                   Sat Jun 03 23:51:14 2023

            __end_of_TMR2_SetInterruptHandler 54D4                                             _L 00F1  
                                ___fldiv@aexp 0027                                  ___fldiv@bexp 0026  
                                ___fldiv@sign 001F                                            l70 52CC  
                                          l63 4F08                                            l71 52CE  
                                          l80 47C6                                            l66 5450  
                                          l92 5422                                            l86 4868  
                                          l95 54DE                                            l89 540C  
                                          l98 54DC                                  ___awdiv@sign 0006  
                         ___wmul@multiplicand 0003                            mensaje_vels@F16502 021B  
                                         l101 54E0                                           l110 54BE  
                                         l104 54B4                                           l203 47C4  
                                         l107 54AA                                           l243 5326  
                                         l325 52FA                                           l506 5408  
                                         l451 53C8                                           l285 54D2  
                                         l445 537A                                           l701 1410  
                                         l462 5478                                           l367 54C8  
                                         l448 543A                                           l465 52A2  
                                         l387 54D6                                           l707 1560  
                                         l812 3EA4                                           l476 5464  
                                         l716 171C                                           l733 1A08  
                                         l806 5350                                           l479 526E  
                                         l719 1760                                           l816 53EA  
                                         l841 3C34                                           l921 4720  
                                         l914 4710                                           l851 42D0  
                                         l835 4CF2                                           l827 42A6  
                                         l860 432C                                           l756 4DCA  
                                         l748 4D5E                                           l764 4C1A  
                                         l780 4B42                                           l772 4AD6  
                                         l676 1AEE                                           l861 432E  
                                         l838 3D8A                                           l846 42BE  
                                         l863 4386                                           l871 4E2E  
                                         l873 4E34                                           l858 4326  
                                         l859 4328                                           l884 48FA  
                                         l876 547A                                           l788 4C86  
                                         l796 4BAE                                           l878 5488  
                                         l887 53A4                                           l898 4E8E  
                                         l899 4E9E                                           _AWG 00EF  
                                         _PR2 3FAB                                           _PR4 3F9F  
                                         _PR6 3F93                                           _RPM 01F2  
                                         _adc 011C                                           _abs 518E  
                                         _aux 0118                                           _pad 4986  
                                         _pwm 00E3                                  ___awmod@sign 0006  
                             _TMR2_Initialize 52FC                                           tosl 3FFD  
                                         wreg 3FE8                                  ___flmul@aexp 0039  
                                ___flmul@bexp 003A                                  ___flmul@sign 0034  
                                ___flmul@temp 003F                                  ___flmul@prod 003B  
                                get_average@i 0013                                  ___fltol@exp1 000A  
                                        l1131 45D2                                          ?_abs 0007  
                                        l1118 4522                                          l1152 4068  
                                        l1161 5204                                          l1146 467C  
                                        l1501 2ADE                                          l1157 40AE  
                                        l1510 2D70                                          l1511 2D5E  
                                        l1415 2748                                          l1184 3FAA  
                                        l1432 2862                                          l1424 2A18  
                                        l1416 2736                                          l1505 2E66  
                                        l1601 49FE                                          l1441 2932  
                                        l1417 26FC                                          l1442 2920  
                                        l1508 2CF8                                          l1620 3AB6  
                                        l4100 266A                                          l1701 501E  
                                        l1518 2E28                                          l1542 37C2  
                                        l1606 3968                                          l4110 267E  
                                        l4102 266E                                          l1471 3060  
                                        l1711 41AC                                          l1631 2558  
                                        l1480 30A6                                          l4040 43D4  
                                        l4032 4388                                          l1608 3970  
                                        l4200 28D0                                          l4120 2692  
                                        l4112 2682                                          l4104 2672  
                                        l5000 2330                                          l1545 391E  
                                        l1609 39B6                                          l1457 5148  
                                        l1482 311E                                          l1474 3024  
                                        l4042 440A                                          l4034 439A  
                                        l4210 2902                                          l4202 28E0  
                                        l4130 26E4                                          l4122 2696  
                                        l4114 2686                                          l4106 2676  
                                        l4050 2574                                          l5010 2374  
                                        l5002 234C                                          l1634 1EF2  
                                        l1483 310C                                          l4300 2F62  
                                        l1556 38B6                                          l1716 51C4  
                                        l4036 43AC                                          l4220 295C  
                                        l4212 2918                                          l4204 28E2  
                                        l4140 2728                                          l4132 26F4  
                                        l4116 268A                                          l4108 267A  
                                        l4124 269A                                          l4060 25A8  
                                        l4052 2576                                          l5012 237C  
                                        l5004 235A                                          l5020 239C  
                                        l1636 1D38                                          l1469 3200  
                                        l1549 385A                                          l1725 376A  
                                        l1565 506E                                          l4310 2F8A  
                                        l4302 2F66                                          l4038 43B6  
                                        l4230 29D8                                          l4222 2996  
                                        l4206 28F0                                          l4142 272A  
                                        l4134 270A                                          l4126 269E  
                                        l4118 268E                                          l4070 25DA  
                                        l4054 2586                                          l4062 25B0  
                                        l4046 255A                                          l5030 2422  
                                        l5022 23AE                                          l5014 238C  
                                        l5006 236A                                          l5102 3456  
                                        l1719 51CC                                          l4320 2FD8  
                                        l4400 2A36                                          l4240 29F8  
                                        l4232 29DC                                          l4216 2942  
                                        l4224 2998                                          l4208 28F4  
                                        l4160 27B2                                          l4152 277A  
                                        l4144 2734                                          l4136 2716  
                                        l4128 26C8                                          l4080 2610  
                                        l4072 25E0                                          l4064 25C0  
                                        l4056 2596                                          l4048 2566  
                                        l1728 36AE                                          l1736 4F5E  
                                        l5040 249C                                          l5032 2456  
                                        l5024 23C0                                          l5016 2390  
                                        l5008 236E                                          l1664 233A  
                                        l5112 34DE                                          l5104 3480  
                                        l6000 1A62                                          l1745 4FC8  
                                        l5210 4F02                                          l5202 4EA0  
                                        l4330 3022                                          l4322 2FE8  
                                        l4314 2F9E                                          l4306 2F7A  
                                        l4410 2A7C                                          l4402 2A46  
                                        l4250 5156                                          l4242 2A06  
                                        l4234 29EA                                          l4226 29A8  
                                        l4218 294E                                          l4162 27B6  
                                        l4154 278A                                          l4146 2756  
                                        l4170 27D6                                          l4138 271A  
                                        l4090 264C                                          l4082 2620  
                                        l4074 25EE                                          l4066 25C6  
                                        l4058 25A6                                          l5050 2508  
                                        l5042 24A4                                          l5034 245E  
                                        l5026 23C4                                          l5018 2396  
                                        l5106 34A8                                          l5114 3510  
                                        l6010 1AB0                                          l6002 1A6A  
                                        l1739 4F6E                                          l5212 543C  
                                        l5300 5424                                          l5204 4EDE  
                                        l4340 3070                                          l4332 302E  
                                        l4324 2FF0                                          l4316 2FB8  
                                        l4308 2F8A                                          l4260 2E82  
                                        l4500 2DC4                                          l4420 2AA8  
                                        l4412 2A82                                          l4404 2A56  
                                        l5220 52B8                                          l4252 5168  
                                        l4244 2A08                                          l4236 29F0  
                                        l4228 29B8                                          l4172 27FC  
                                        l4180 2852                                          l4164 27C4  
                                        l4156 2798                                          l4148 2766  
                                        l4092 265A                                          l4084 2622  
                                        l4076 25F0                                          l4068 25D8  
                                        l5052 2518                                          l5044 24B2  
                                        l5028 23CA                                          l5036 2462  
                                        l5060 3202                                          l6012 1AC0  
                                        l6004 1A7C                                          l6020 1AEE  
                                        l1757 445E                                          l1765 518C  
                                        l1597 49A8                                          l5230 47DC  
                                        l5302 5452                                          l5150 54C0  
                                        l5142 54AC                                          l5206 4EEA  
                                        l4342 3086                                          l4350 30B6  
                                        l4334 304C                                          l4326 3000  
                                        l4318 2FC8                                          l4270 2EB6  
                                        l4262 2E84                                          l4510 2E2C  
                                        l4502 2DC8                                          l4430 2AFE  
                                        l4422 2AB8                                          l4414 2A88  
                                        l4406 2A66                                          l5222 52C8  
                                        l4254 516C                                          l4238 29F2  
                                        l4190 28A6                                          l4182 2878  
                                        l4174 2830                                          l4166 27C6  
                                        l4158 27A6                                          l4094 265E  
                                        l4078 2600                                          l4086 262A  
                                        l1774 50BA                                          l5054 2530  
                                        l5046 24E2                                          l5038 2480  
                                        l5070 326C                                          l5062 3230  
                                        l5118 3526                                          l5310 5020  
                                        l6014 1AD0                                          l6006 1A8C  
                                        l1679 3558                                          l5240 481E  
                                        l5232 47EC                                          l5304 53EC  
                                        l5144 54A2                                          l5208 4EF6  
                                        l4352 30C4                                          l4344 308C  
                                        l4336 304E                                          l4328 3014  
                                        l4280 2EE8                                          l4264 2E94  
                                        l4272 2EBE                                          l4256 2E68  
                                        l4520 2E56                                          l4512 2E3C  
                                        l4504 2DE2                                          l4440 2B46  
                                        l4424 2AC8                                          l4416 2A96  
                                        l4408 2A6C                                          l5400 38C6  
                                        l5152 42A8                                          l5216 52A4  
                                        l4600 45AC                                          l1768 54DA  
                                        l4248 514A                                          l4192 28B4  
                                        l4184 2888                                          l4176 2832  
                                        l4168 27D0                                          l4096 2662  
                                        l4088 263A                                          l5056 2538  
                                        l5048 24F0                                          l5080 3324  
                                        l5072 328E                                          l5064 3242  
                                        l5312 5032                                          l6016 1AE0  
                                        l6008 1A9E                                          l5242 4838  
                                        l5234 47F0                                          l5226 47C6  
                                        l5306 5400                                          l5146 54B6  
                                        l4362 312E                                          l4370 3176  
                                        l4354 30C8                                          l4346 3096  
                                        l4338 305E                                          l4290 2F1C  
                                        l4282 2EEA                                          l4274 2ECE  
                                        l4266 2EA4                                          l4258 2E74  
                                        l4514 2E4A                                          l4506 2DF6  
                                        l4450 2B94                                          l4442 2B52  
                                        l4434 2B12                                          l4426 2ACE  
                                        l4418 2A98                                          l5410 390E  
                                        l5402 38CA                                          l5170 42EA  
                                        l5154 42B8                                          l5322 4DCC  
                                        l5250 540C                                          l5218 52A8  
                                        l4530 4460                                          l4602 45B2  
                                        l4610 45D4                                          l4194 28B6  
                                        l4178 2842                                          l4098 2666  
                                        l5082 333C                                          l5074 32B0  
                                        l5066 3250                                          l5314 503A  
                                        l5244 484A                                          l5236 480A  
                                        l5228 47D6                                          l5340 537C  
                                        l5260 479C                                          l5308 5466  
                                        l5148 54CA                                          l4380 31E0  
                                        l4372 3190                                          l4364 313A  
                                        l4356 30D6                                          l4348 30A4  
                                        l4284 2EFA                                          l4292 2F24  
                                        l4276 2ED4                                          l4268 2EB4  
                                        l4516 2E4C                                          l4508 2E10  
                                        l4460 2BF2                                          l4452 2BA4  
                                        l4444 2B6E                                          l4436 2B22  
                                        l4428 2AEE                                          l5404 38EE  
                                        l5180 431E                                          l5172 42EE  
                                        l5164 42D2                                          l5156 42BA  
                                        l5324 4DD0                                          l5332 4DFA  
                                        l5252 541C                                          l5500 4D60  
                                        l4540 448C                                          l4532 4464  
                                        l4604 45C2                                          l4700 4986  
                                        l4620 4674                                          l4612 4602  
                                        l4196 28C4                                          l4188 289C  
                                        l4524 5104                                          l5084 3356  
                                        l5092 336E                                          l5076 330C  
                                        l5068 3254                                          l5316 5042  
                                        l5246 4864                                          l5238 481A  
                                        l5342 539C                                          l5270 47AA  
                                        l5262 479E                                          l5254 4722  
                                        l5430 5362                                          l5422 5352  
                                        l4382 31EE                                          l4374 31A6  
                                        l4366 3148                                          l4358 3104  
                                        l4294 2F34                                          l4286 2F0A  
                                        l4278 2EDA                                          l4518 2E52  
                                        l4470 2C7C                                          l4462 2C02  
                                        l4454 2BB4                                          l4446 2B7A  
                                        l4438 2B2C                                          l5406 38FE  
                                        l5350 46A4                                          l5182 4332  
                                        l5174 42FC                                          l5166 42E4  
                                        l5158 42CC                                          l5334 4E30  
                                        l5326 4DDE                                          l5510 4D90  
                                        l5502 4D74                                          l4550 44BA  
                                        l4542 4494                                          l4534 4472  
                                        l4606 45CA                                          l4710 49CC  
                                        l4702 4994                                          l4622 467A  
                                        l4614 4612                                          l4630 3FEA  
                                        l4198 28CC                                          l4526 5114  
                                        l5086 335E                                          l5094 33A0  
                                        l5318 505E                                          ?_pad 0011  
                                        l5272 47AC                                          l5264 47A0  
                                        l5256 473E                                          l5280 5314  
                                        l5440 5376                                          l5432 5366  
                                        l5424 5356                                          l4384 31F4  
                                        l4376 31C0                                          l4368 3172  
                                        l4296 2F4A                                          l4288 2F1A  
                                        l4480 2CF6                                          l4472 2CB2  
                                        l4464 2C22                                          l4456 2BC4  
                                        l4448 2B86                                          l5408 390C  
                                        l5360 46EE                                          l5352 46AC  
                                        l5184 4334                                          l5176 4308  
                                        l5168 42E8                                          l5328 4DEC  
                                        l5512 4DA2                                          l5520 533C  
                                        l4560 44F4                                          l4552 44C2  
                                        l4544 4498                                          l4536 447A  
                                        l4712 49EA                                          l4704 49A0  
                                        l4800 3988                                          l4616 4640  
                                        l4640 4056                                          l4632 4018  
                                        l4720 40D0                                          l5096 33C6  
                                        l5088 3366                                          l5192 4FCA  
                                        l5442 5270                                          l5274 47AE  
                                        l5266 47A2                                          l5258 4752  
                                        l5282 5316                                          l5290 52E8  
                                        l5434 536A                                          l5426 535A  
                                        l4386 31F6                                          l4378 31DC  
                                        l4298 2F5A                                          l4490 2D56  
                                        l4482 2D08                                          l4474 2CC0  
                                        l4466 2C32                                          l4458 2BD4  
                                        l4394 2A1A                                          l5370 377E  
                                        l5362 46FE                                          l5354 46B8  
                                        l5346 467E                                          l5186 435E  
                                        l5178 430A                                          l5514 4DB0  
                                        l5530 4BC4                                          l5450 53DE  
                                        l5522 5342                                          l4570 451A  
                                        l4562 44F6                                          l4554 44D0  
                                        l4546 44A0                                          l4538 447E  
                                        l4714 518E                                          l4706 49B4  
                                        l4810 39BE                                          l4802 398E  
                                        l4618 4650                                          l4642 40A6  
                                        l4634 4028                                          l4626 3FAC  
                                        l4650 51E4                                          l4722 410E  
                                        l4730 414E                                          l5098 340E  
                                        l5194 4FD6                                          l5610 428A  
                                        l5444 523C                                          l5268 47A8  
                                        l5284 5322                                          l5276 52FC  
                                        l5292 52EA                                          l5436 536E  
                                        l5428 535E                                          l4484 2D16  
                                        l4476 2CDE                                          l4468 2C52  
                                        l4396 2A26                                          l5380 37FC  
                                        l5372 378C                                          l5364 4700  
                                        l5356 46C6                                          l5348 468E  
                                        l5188 4376                                          l5516 4DB4  
                                        l5508 4D7C                                          l5460 4D08  
                                        l5540 4BF2                                          l5452 53E4  
                                        l5524 5348                                          l4564 44FC  
                                        l4556 44D6                                          l4548 44B2  
                                        l4580 453E                                          l4716 51A8  
                                        l4708 49C8                                          l4820 3A0C  
                                        l4812 39C8                                          l4804 399E  
                                        l4644 40AC                                          l4636 4036  
                                        l4628 3FDA                                          l4652 51F4  
                                        l4732 4160                                          l4724 4136  
                                        l4740 5070                                          l4900 1D02  
                                        l5196 4FF2                                          l5612 4290  
                                        l5604 4250                                          l6260 13F2  
                                        l5278 5310                                          l5294 52F6  
                                        l5286 52D0                                          l5438 5372  
                                        l4494 2D80                                          l4486 2D1A  
                                        l4478 2CE8                                          l4398 2A34  
                                        l4670 3F10                                          l4662 3ED0  
                                        l5390 3850                                          l5382 3804  
                                        l5374 37D2                                          l5366 470A  
                                        l5358 46D0                                          l6270 4E10  
                                        l5446 547C                                          l5470 4D36  
                                        l5630 4CDC                                          l5622 4CA4  
                                        l5614 4C88                                          l5542 4C00  
                                        l5710 4B98                                          l5702 4B60  
                                        l5454 53E8                                          l5518 5328  
                                        l4558 44EC                                          l4566 4502  
                                        l4590 4572                                          l4582 4542  
                                        l4574 4524                                          l4830 3A7E  
                                        l4814 39CE                                          l4822 3A28  
                                        l4806 39AA                                          l4638 4048  
                                        l4726 4142                                          l4718 40B0  
                                        l4750 357A                                          l4742 5080  
                                        l4910 1DC0                                          l5198 5014  
                                        l5606 4264                                          l6262 1B06  
                                        l5480 3DA0                                          l5296 54D4  
                                        l5288 52E4                                          l4496 2D8C  
                                        l4488 2D28                                          l4680 3F40  
                                        l4672 3F1E                                          l4664 3EFA  
                                        l4656 3EA6                                          l5392 388C  
                                        l5384 3810                                          l5376 37E8  
                                        l5368 376E                                          l5640 3BC0  
                                        l5632 3AB8                                          l5720 4E6E  
                                        l5712 4E36                                          l5472 4D44  
                                        l5624 4CB8                                          l5616 4C9C  
                                        l5544 4C04                                          l5536 4BCC  
                                        l5528 4BB0                                          l5704 4B74  
                                        l5560 4ABC                                          l5448 53CA  
                                        l4568 4512                                          l4592 457A  
                                        l4584 4550                                          l4576 4528  
                                        l4832 3A84                                          l4824 3A42  
                                        l4816 3A00                                          l4808 39B2  
                                        l4648 51CE                                          l4736 41A4  
                                        l4760 3662                                          l4752 35D0  
                                        l4744 4F0A                                          l4920 1E80  
                                        l4912 1DF2                                          l4904 1D48  
                                        l4840 1B66                                          l6264 3382  
                                        l5608 4278                                          l5800 11D6  
                                        l5490 3DD4                                          l5298 53A6  
                                        l4498 2D9A                                          l4690 3F6A  
                                        l4682 3F4A                                          l4666 3EFC  
                                        l4658 3EBC                                          l5570 3CE2  
                                        l5394 3898                                          l5386 3842  
                                        l5642 3C18                                          l5634 3AE8  
                                        l5714 4E46                                          l5650 48A2  
                                        l5474 4D48                                          l5466 4D10  
                                        l5458 4CF4                                          l5626 4CCA  
                                        l5538 4BE0                                          l5706 4B86  
                                        l5562 4AC0                                          l5554 4A88  
                                        l5546 4A6C                                          l4594 4588  
                                        l4586 4558                                          l4578 4536  
                                        l4834 3A96                                          l4826 3A54  
                                        l4818 3A06                                          l4770 374A  
                                        l4762 369E                                          l4754 35E4  
                                        l4746 4F28                                          l4930 1F16  
                                        l4914 1E30                                          l4906 1D4E  
                                        l4850 1BB6                                          l4842 1B76  
                                        l6266 346A                                          l6258 12D0  
                                        l5810 1286                                          l5802 11E6  
                                        l5492 3DD8                                          l5476 3D8C  
                                        l4692 3F7A                                          l4668 3F0C  
                                        l5572 3D16                                          l5564 3C36  
                                        l5396 38A6                                          l5388 3844  
                                        l5636 3B34                                          l5716 4E54  
                                        l5652 48A6                                          l5468 4D24  
                                        l5628 4CD8                                          l5708 4B94  
                                        l5660 4AEC                                          l5556 4A9C  
                                        l5548 4A80                                          l4596 459E  
                                        l4588 456A                                          l4828 3A6E  
                                        l4772 375A                                          l4756 35F2  
                                        l4764 36D2                                          l4748 355A  
                                        l4780 4F94                                          l4940 1F4A  
                                        l4932 1F1E                                          l4916 1E44  
                                        l4924 1EC0                                          l4908 1D82  
                                        l4860 1BF2                                          l4852 1BBE  
                                        l4844 1B84                                          l6268 3502  
                                        l5580 41C2                                          l5900 16B4  
                                        l5812 1290                                          l5804 11FC  
                                        l5740 1028                                          l5732 1010  
                                        l5486 3DA8                                          l5494 3DF4  
                                        l5478 3D8C                                          l4694 3F8A  
                                        l4678 3F36                                          l5574 3D6E  
                                        l5566 3C56                                          l5398 38C4  
                                        l5638 3B8C                                          l5718 4E64  
                                        l5654 48C4                                          l5646 486A  
                                        l5670 4B1A                                          l5558 4AAE  
                                        l4598 45A6                                          l4790 3934  
                                        l4766 370E                                          l4782 4F98  
                                        l4950 1F94                                          l4942 1F62  
                                        l4934 1F26                                          l4926 1EFA  
                                        l4918 1E78                                          l4870 1C38  
                                        l4854 1BCE                                          l4862 1BF6  
                                        l4846 1B88                                          l4838 1B60  
                                        l5590 41F4                                          l5910 16FA  
                                        l5902 16C4                                          l5830 12E6  
                                        l5814 129C                                          l5806 123A  
                                        l5750 1062                                          l5742 1030  
                                        l5734 1014                                          l5496 3E9C  
                                        l5488 3DAE                                          l4696 3F9A  
                                        l4688 3F5E                                          l5568 3C8A  
                                        l5648 4886                                          l5672 4B28  
                                        l4792 3944                                          l4768 3722  
                                        l4784 4FAA                                          l4776 4F70  
                                        l4952 1FA8                                          l4960 209E  
                                        l4944 1F74                                          l4936 1F2A  
                                        l4928 1F0A                                          l4872 1C40  
                                        l4864 1C1C                                          l4880 1C82  
                                        l4856 1BDE                                          l4848 1BAC  
                                        l5592 4206                                          l5920 1774  
                                        l5912 172A                                          l5904 16D0  
                                        l5840 1346                                          l5832 12F2  
                                        l5808 1282                                          l5760 10C2  
                                        l5752 1074                                          l5744 1038  
                                        l5736 1016                                          l5690 4C6C  
                                        l5674 4B2C                                          l5666 4AF4  
                                        l5658 4AD8                                          l4794 394C  
                                        l4778 4F84                                          l4786 4FAE  
                                        l4970 216A                                          l4962 20BC  
                                        l4954 200C                                          l4938 1F3C  
                                        l4946 1F7C                                          l4890 1CCC  
                                        l4882 1CA8                                          l4874 1C58  
                                        l4866 1C2E                                          l4858 1BEA  
                                        l5594 420C                                          l5586 41CC  
                                        l5578 41AE                                          l5930 17EE  
                                        l5922 1780                                          l5914 1730  
                                        l5906 16DC                                          l5850 1392  
                                        l5842 1348                                          l5834 130E  
                                        l5770 1110                                          l5762 10D4  
                                        l5754 1086                                          l5746 1040  
                                        l5738 1020                                          l5692 4C70  
                                        l5684 4C38                                          l5676 4C1C  
                                        l5668 4B08                                          l4796 395C  
                                        l4788 3920                                          l4980 221A  
                                        l4972 217A                                          l4964 20F0  
                                        l4956 2064                                          l4948 1F84  
                                        l4884 1CBA                                          l4876 1C62  
                                        l4868 1C32                                          l5596 4222  
                                        l5588 41E0                                          l5940 183E  
                                        l5924 178C                                          l5916 1740  
                                        l5908 16EA                                          l5860 142E  
                                        l5852 13B6                                          l5844 1352  
                                        l5836 132A                                          l5828 12B8  
                                        l5780 1148                                          l5772 111A  
                                        l5764 10E6                                          l5756 1096  
                                        l5748 1052                                          l5686 4C4C  
                                        l5678 4C30                                          l5694 4B44  
                                        l4798 3978                                          l4990 227E  
                                        l4982 224E                                          l4974 218A  
                                        l4966 2122                                          l4958 2098  
                                        l4886 1CBE                                          l5598 4246  
                                        l5950 18AE                                          l5942 185A  
                                        l5934 17F8                                          l5926 17A8  
                                        l5918 176E                                          l5870 152A  
                                        l5846 135E                                          l5838 132E  
                                        l5790 1182                                          l5782 115C  
                                        l5774 111E                                          l5766 10F8  
                                        l5758 10A6                                          l5688 4C5E  
                                        l5696 4B58                                          l4992 2284  
                                        l4984 2262                                          l4976 21BE  
                                        l4968 2138                                          l4888 1CC4  
                                        l5960 190E                                          l5952 18BC  
                                        l5936 182A                                          l5944 1862  
                                        l5928 17DE                                          l5880 159A  
                                        l5872 154E                                          l5864 1452  
                                        l5848 136E                                          l5856 13DA  
                                        l5792 11A0                                          l5784 1160  
                                        l5776 1126                                          l5768 1108  
                                        l4994 228C                                          l4978 2214  
                                        l4986 2266                                          l4898 1CE8  
                                        l5970 196E                                          l5962 192A  
                                        l5946 1898                                          l5954 18C8  
                                        l5938 183A                                          l5890 165E  
                                        l5882 159C                                          l5874 1552  
                                        l5866 146E                                          l5858 141E  
                                        l5794 11BC                                          l5786 116A  
                                        l5778 1134                                          l4996 2298  
                                        l4988 2276                                          l5980 19BA  
                                        l5972 197A                                          l5956 18FA  
                                        l5964 192E                                          l5948 18A8  
                                        l5892 1660                                          l5884 15C4  
                                        l5876 156E                                          l5868 14DE  
                                        l5796 11C0                                          l5788 1176  
                                        l4998 2310                                          l5982 19CA  
                                        l5974 1986                                          l5966 1960  
                                        l5958 190A                                          l5894 169A  
                                        l5886 15D6                                          l5878 158A  
                                        l5798 11CA                                          l5992 1A44  
                                        l5976 19A4                                          l5984 19D8  
                                        l5968 1964                                          l5896 169E  
                                        l5888 1646                                          l5994 1A48  
                                        l5986 1A16                                          l5978 19A8  
                                        l5898 16A2                                          l5996 1A52  
                                        l5988 1A3A                                          l5998 1A5A  
                                        STR_1 1009                                          STR_2 100C  
                                        STR_3 1001                                          STR_6 1005  
                                        _GAIN 00FE                                          u3000 265A  
                                        u3001 2656                                          u3010 26C8  
                                        u3011 26C4                                          u3100 27A6  
                                        u3020 26E0                                          u3101 27A2  
                                        u3021 26DA                                          _LATA 3FBA  
                                        u3110 27C4                                          u3030 26E2  
                                        _LATB 3FBB                                          u3111 27C0  
                                        _LATC 3FBC                                          u4000 3F7A  
                                        u3200 2902                                          u3120 27FC  
                                        u3040 270A                                          _LATD 3FBD  
                                        u4001 3F76                                          u3201 28FE  
                                        u3121 27F8                                          u3041 2706  
                                        _LATE 3FBE                                          u4010 3F8A  
                                        u3210 2918                                          u3130 2842  
                                        u3050 2728                                          u4011 3F86  
                                        u3211 2914                                          u3131 283E  
                                        u3051 2724                                          u4020 4994  
                                        u3300 2A06                                          u3220 292E  
                                        u3140 2878                                          u3060 2748  
                                        u4100 419A                                          u4021 4990  
                                        u3301 2A02                                          u3221 292A  
                                        u3141 2874                                          u3061 2744  
                                        u4101 4194                                          u3310 518C  
                                        u4030 49EA                                          u3230 2942  
                                        u3150 2888                                          u3070 2756  
                                        u4110 419C                                          u3311 5188  
                                        u4031 49E6                                          u3231 293E  
                                        u3151 2884                                          u3071 2752  
                                        u3400 3000                                          u3320 2E82  
                                        u4040 51A8                                          u3240 295C  
                                        u3160 28B4                                          u3080 2766  
                                        u4200 369E                                          u4120 50BA  
                                        u3401 2FFC                                          u3321 2E7E  
                                        u4041 51A4                                          u3241 2958  
                                        u3161 28B0                                          u3081 2762  
                                        u4201 369A                                          u4121 50B6  
                                        u3410 3022                                          u3330 2E94  
                                        u3250 2996                                          u3170 28C4  
                                        u3090 2798                                          u4050 40F0  
                                        u4210 36F2                                          u4130 4F28  
                                        _T2PR 3FAB                                          u3411 301E  
                                        u3331 2E90                                          u3251 2992  
                                        u3171 28C0                                          u3091 2794  
                                        u4131 4F24                                          u3500 312E  
                                        u3420 304C                                          u3340 2EA4  
                                        u5100 4DCA                                          u5020 53DE  
                                        u4300 399E                                          u3260 29A8  
                                        u3180 28E0                                          u4060 410E  
                                        u4220 370E                                          u4140 35A2  
                                        u5005 5294                                          u3501 312A  
                                        u3421 3048                                          u3341 2EA0  
                                        u5101 4DC6                                          u5021 53DA  
                                        u4301 399A                                          u3261 29A4  
                                        u3181 28DC                                          u4061 410A  
                                        u4221 370A                                          u3510 3148  
                                        u3430 3070                                          u3350 2EE8  
                                        u5110 533C                                          u4310 3A42  
                                        u3270 29B8                                          u3190 28F0  
                                        u4070 4136                                          u4230 374A  
                                        u4150 35D0                                          u5015 5260  
                                        u3511 3144                                          u3431 306C  
                                        u3351 2EE4                                          u5031 4CFE  
                                        u5111 5338                                          u4311 3A3E  
                                        u3271 29B4                                          u3191 28EC  
                                        u4071 4132                                          u4055 40E6  
                                        u4231 3746                                          u4215 36E8  
                                        u4151 35CC                                          u3520 3190  
                                        u3440 3086                                          u3360 2EFA  
                                        u3600 2AB8                                          u5040 4D24  
                                        u4320 3A54                                          u3280 29D8  
                                        u4080 4160                                          u4160 35F2  
                                        u4240 4FC8                                          u4400 1CA8  
                                        u5200 4222                                          u3521 318C  
                                        u3441 3082                                          u3361 2EF6  
                                        u3601 2AB4                                          u5041 4D20  
                                        u5121 4BBA                                          u4321 3A50  
                                        u3281 29D4                                          u4081 415C  
                                        u4161 35EE                                          u4145 3598  
                                        u4241 4FC4                                          u4401 1CA4  
                                        u5201 421E                                          u3530 31C0  
                                        u3450 30A4                                          u3370 2F0A  
                                        u3610 2AEE                                          u5050 4D5E  
                                        u5130 4BE0                                          u4330 3A6E  
                                        u4250 3930                                          u3290 29EA  
                                        u4410 1CBA                                          u5210 4264  
                                        _T4PR 3F9F                                          u3531 31BC  
                                        u3451 30A0                                          u3371 2F06  
                                        u3611 2AEA                                          u5051 4D5A  
                                        u5131 4BDC                                          u4331 3A6A  
                                        u4251 392A                                          u3291 29E6  
                                        u4411 1CB6                                          u5211 4260  
                                        u5060 3DA0                                          u3540 31EE  
                                        u3460 30C4                                          u3380 2F4A  
                                        u3700 2D9A                                          u3620 2AFE  
                                        u5140 4C1A                                          u2900 43D4  
                                        u4340 3A7E                                          u4260 3932  
                                        u4180 365E                                          u4500 1F4A  
                                        u4420 1D34                                          u5220 42A6  
                                        u5061 3D9C                                          u3541 31EA  
                                        u3461 30C0                                          u3381 2F46  
                                        u3701 2D96                                          u3621 2AFA  
                                        u5301 4C26                                          u5141 4C16  
                                        u2901 43D0                                          u4341 3A7A  
                                        u4181 365A                                          u4501 1F46  
                                        u4421 1D30                                          u5221 42A2  
                                        u5070 3DF4                                          u3470 30D6  
                                        u3390 2F8A                                          u3710 2DE2  
                                        u3630 2C9C                                          u3550 2A34  
                                        u5310 4C4C                                          u2910 440A  
                                        u4270 3944                                          u4190 3682  
                                        u4510 1F74                                          u4430 1DC0  
                                        u4350 1B84                                          u5071 3DF0  
                                        u3471 30D2                                          u3391 2F86  
                                        u3711 2DDE                                          u3551 2A30  
                                        u5231 4C92                                          u5311 4C48  
                                        u5151 4A76                                          u2911 4406  
                                        u4271 3940                                          u4095 4172  
                                        u4175 3606                                          u4511 1F70  
                                        u4431 1DBC                                          u4351 1B80  
                                        u3480 3104                                          u3720 2E10  
                                        u3640 2CF6                                          u3560 2A46  
                                        u5240 4CB8                                          u5320 4C86  
                                        u5160 4A9C                                          u3800 4536  
                                        u4280 395C                                          u2920 2574  
                                        u4176 3610                                          u4600 235A  
                                        u4520 20BC                                          u4440 1DF2  
                                        u4360 1BCE                                          u3481 3100  
                                        u3721 2E0C                                          u3641 2CF2  
                                        u3561 2A42                                          u5081 4D6A  
                                        u5241 4CB4                                          u5321 4C82  
                                        u5161 4A98                                          u3801 4532  
                                        u4281 3958                                          u2921 2570  
                                        u4177 3620                                          u4601 2356  
                                        u4521 20B8                                          u4441 1DEE  
                                        u4361 1BCA                                          u3490 311A  
                                        u3730 2E4A                                          u3650 2D16  
                                        u3570 2A56                                          u5090 4D90  
                                        u5250 4CF2                                          u5170 4AD6  
                                        u3810 4550                                          u4290 3988  
                                        u2930 2586                                          u4610 23AE  
                                        u4530 2122                                          u4450 1E30  
                                        u4370 1BDE                                          _T6PR 3F93  
                                        u3491 3116                                          u3731 2E46  
                                        u3651 2D12                                          u3635 2C92  
                                        u3571 2A52                                          u5091 4D8C  
                                        u5251 4CEE                                          u5331 4B4E  
                                        u5171 4AD2                                          u3811 454C  
                                        u4291 3984                                          u2931 2582  
                                        u4195 3678                                          u4611 23AA  
                                        u4531 211E                                          u4451 1E2C  
                                        u4371 1BDA                                          u3660 2D28  
                                        u3580 2A96                                          u5260 48C4  
                                        u5340 4B74                                          u3740 4472  
                                        u3820 456A                                          u3900 4018  
                                        u2940 2596                                          u4620 2480  
                                        u4540 216A                                          u4460 1EBC  
                                        u4380 1C1C                                          u4700 33C2  
                                        u5500 143E                                          u5420 1148  
                                        _PMD0 39C0                                          u3661 2D24  
                                        u3581 2A92                                          u5261 48C0  
                                        u5341 4B70                                          u3741 446E  
                                        u3821 4566                                          u3901 4014  
                                        u2941 2592                                          u4621 247C  
                                        u4541 2166                                          u4461 1EB8  
                                        u4381 1C18                                          u4701 33BE  
                                        u5181 41B8                                          u5501 1438  
                                        u5421 1144                                          _PMD1 39C1  
                                        u3670 2D56                                          u3590 2AA8  
                                        u4710 42CC                                          u5350 4BAE  
                                        u3750 448C                                          u3830 4588  
                                        u3910 4036                                          u2950 25D8  
                                        u4630 249C                                          u4550 217A  
                                        u4470 1EF2                                          u4390 1C2E  
                                        u5190 41E0                                          u5510 156E  
                                        u5430 115C                                          _PMD2 39C2  
                                        u3671 2D52                                          u3591 2AA4  
                                        u4711 42C8                                          u5351 4BAA  
                                        u5271 4AE2                                          u3751 4488  
                                        u3831 4584                                          u3911 4032  
                                        u2951 25D4                                          u4631 2498  
                                        u4551 2176                                          u4471 1EEE  
                                        u4391 1C2A                                          u5191 41DC  
                                        u5511 156A                                          u5431 1158  
                                        _PMD3 39C3                                          u4800 47EC  
                                        u3680 2D6C                                          u5360 4E54  
                                        u4720 42FC                                          u5280 4B08  
                                        u3760 44B2                                          u3840 459E  
                                        u2880 439A                                          u3920 4056  
                                        u2960 25EE                                          u4640 2502  
                                        u4560 2214                                          u4480 1F0A  
                                        u5600 185A                                          u5520 16FA  
                                        u5440 11A0                                          _PMD4 39C4  
                                        u4801 47E8                                          u3681 2D68  
                                        u5361 4E50                                          u4721 42F8  
                                        u5281 4B04                                          u3761 44AE  
                                        u3841 459A                                          u2881 4396  
                                        u3921 4052                                          u2961 25EA  
                                        u4641 24FC                                          u4561 2210  
                                        u4481 1F06                                          u5601 1856  
                                        u5521 16F6                                          u5441 119C  
                                        _PMD5 39C5                                          u3690 2D80  
                                        u5370 4E8E                                          u4730 431E  
                                        u5290 4B42                                          u3770 44D0  
                                        u3850 45C2                                          u2890 43AC  
                                        u3930 40A6                                          u2970 2600  
                                        u4650 2504                                          u4570 2262  
                                        u4490 1F3C                                          u5610 1898  
                                        u5530 170A                                          u5506 1440  
                                        u5450 11BC                                          _PMD6 39C6  
                                        u3691 2D7C                                          u5371 4E8A  
                                        u4731 431A                                          u5291 4B3E  
                                        u3771 44CC                                          u3851 45BE  
                                        u2891 43A8                                          u3931 40A2  
                                        u2971 25FC                                          u4571 225E  
                                        u4491 1F38                                          u5611 1894  
                                        u5531 1704                                          u5451 11B8  
                                        _PMD7 39C7                                          u4820 481A  
                                        u4900 377E                                          u4740 435E  
                                        u3780 44EC                                          u3860 4602  
                                        u3940 51E4                                          u2980 2610  
                                        u4660 2518                                          u4580 2310  
                                        u5700 1A26                                          u5620 18A8  
                                        u5540 1740                                          u5460 130E  
                                        u4821 4816                                          u4901 377A  
                                        u4741 435A                                          u3781 44E8  
                                        u3861 45FE                                          u3941 51E0  
                                        u2981 260C                                          u4661 2514  
                                        u4581 230C                                          u5701 1A20  
                                        u5621 18A4                                          u5541 173C  
                                        u5461 130A                                          u3950 3EBC  
                                        u4910 378C                                          u3790 4512  
                                        u3870 4640                                          u2990 264C  
                                        u4590 234C                                          u4670 3230  
                                        u4750 5014                                          u5630 18BC  
                                        u5550 1750                                          u5470 132A  
                                        u3951 3EB8                                          u4911 3788  
                                        u3791 450E                                          u3871 463C  
                                        u2991 2648                                          u4591 2348  
                                        u4671 322C                                          u4751 5010  
                                        u5631 18B8                                          u5551 174A  
                                        u5471 1326                                          u4840 484A  
                                        u4760 544E                                          u3960 3EF0  
                                        u4920 37E8                                          u3880 4674  
                                        u4680 328E                                          u5640 18FA  
                                        u5560 17DE                                          u5536 170C  
                                        u5480 141E                                          u4841 4846  
                                        u4761 5448                                          u4921 37E4  
                                        u3881 4670                                          u4681 328A  
                                        u5641 18F6                                          u5561 17DA  
                                        u5481 141A                                          u4818 47F6  
                                        u3970 3F1E                                          u4930 383E  
                                        u4770 52B8                                          u3890 3FDA  
                                        u4690 32B0                                          u5706 1A28  
                                        u5650 190A                                          u5570 17EE  
                                        u5490 142E                                          u4819 480A  
                                        u3971 3F1A                                          u4931 383A  
                                        u4771 52B4                                          u3891 3FD6  
                                        u4691 32AC                                          u5651 1906  
                                        u5571 17EA                                          u5491 142A  
                                        u3980 3F32                                          u4940 3888  
                                        u4860 541C                                          u4780 52C8  
                                        u5660 192A                                          u5580 182A  
                                        u5556 1752                                          u3981 3F2E  
                                        u3965 3EE6                                          u4941 3884  
                                        u4861 5418                                          u4781 52C4  
                                        u5661 1926                                          u5581 1826  
                                        u4838 4824                                          u4790 47D6  
                                        u4766 5450                                          u3990 3F5A  
                                        u4950 38A6                                          u4870 46A4  
                                        u5670 1960                                          u5590 183A  
                                        u4839 4838                                          u4791 47D2  
                                        u3991 3F56                                          u4951 38A2  
                                        u4871 46A0                                          u5807 4CD0  
                                        u5671 195C                                          u5591 1836  
                                        u4960 38B6                                          u4880 46C6  
                                        u5680 19A4                                          u4961 38B2  
                                        u4881 46C2                                          u5817 4D3C  
                                        u5737 41FC                                          u5681 19A0  
                                        u4858 4850                                          u4970 38C4  
                                        u4890 46EE                                          u5690 1A16  
                                        u4859 4864                                          u4971 38C0  
                                        u4891 46EA                                          u5827 4DA8  
                                        u5747 4280                                          u5691 1A12  
                                        u4980 38FE                                          u4981 38FA  
                                        u5757 4AB4                                          u4990 390C  
                                        u4991 3908                                          u5767 4B20  
                                        u5777 4B8C                                          u5787 4BF8  
                                        u5797 4C64                                          _TMR2 3FAA  
                                        _TMR4 3F9E                                          _TMR6 3F92  
                                        _WPUA 3A41                                          _WPUB 3A51  
                                        _WPUC 3A61                                          _WPUD 3A71  
                                        _WPUE 3A81                                          abs@a 0007  
                                        _dbuf 0132                                          _labs 4F0A  
                                        _main 1010                                          _dtoa 3920  
                              _Lectura_Serial 3D8C                                          _prec 00E1  
                                        pad@i 0018                                          pad@p 0015  
                                        fsr1h 3FE2                                          fsr2h 3FDA  
                                        indf2 3FDF                                          fsr1l 3FE1  
                                        pad@w 001A                                          fsr2l 3FD9  
                               ___fpclassifyf 40B0                                          prodh 3FF4  
                                        prodl 3FF3                                          start 001A  
                             ___fldiv@new_exp 0020                               _PWM5_Initialize 5466  
                            T_tmr4@v_registro 0043                    ??_TMR4_SetInterruptHandler 0003  
                                ___param_bank 0000                    __end_of_PWM5_LoadDutyValue 52A4  
                                 ?_UART1_Read 0001                                         ??_abs 0009  
                                       ??_pad 0017                 __end_of_OSCILLATOR_Initialize 543C  
                          mensaje_terminado@i 0013                                 ___fltol@sign1 0009  
                                       ?_labs 0001                               __end_of___fladd 2A1A  
                                       ?_main 0001                                         ?_dtoa 001C  
                             __end_of___fldiv 3202                               __end_of___awdiv 4524  
                             __end_of___flneg 5206                               __end_of___awmod 45D4  
                             __end_of___flmul 2E68                               __end_of___flsub 514A  
                             __end_of___fltol 3FAC                               __end_of___lldiv 4722  
                             ___awdiv@divisor 0003                                         _U1P1H 3DED  
                                       _U1P2H 3DEF                                         _U1P3H 3DF1  
                                       _U1P1L 3DEC                                         _U1P2L 3DEE  
                                       _T2CON 3FAC                                         _U1P3L 3DF0  
                                       _T4CON 3FA0                                         _T2HLT 3FAD  
                                       _T6CON 3F94                                         _T4HLT 3FA1  
                           T_tmr4@periodo_tmr 0047                                         _T6HLT 3F95  
                                       _T2TMR 3FAA                                         _U1UIR 3DF8  
                                       _T2RST 3FAF                                         _U1RXB 3DE8  
                                       _U1TXB 3DEA                                         _T4TMR 3F9E  
                                       _T4RST 3FA3                                         i2l282 54A0  
                                       i2l364 5494                                         _T6TMR 3F92  
                                       i2l392 50E2                                         _T6RST 3F97  
                                       i2l396 5102                               ___awdiv@counter 0005  
                                       _OSCEN 39DD                                  vfpfcnvrt@fmt 0058  
                                       _TRISA 3FC2                                         _TRISB 3FC3  
                                       _TRISC 3FC4                                         _TRISD 3FC5  
                                       _TRISE 3FC6                               _TMR4_Initialize 52D0  
                             _PWM6_Initialize 5452                           ___lmul@multiplicand 0005  
                                ?_mensaje_AWG 0001                              __end_of_TMR2_ISR 54A2  
                            __end_of_TMR4_ISR 5496                                         _capas 00ED  
                                       _flags 00F5                                         _error 0110  
                             __end_of_init_hx 548A                                         _fputc 4388  
                                       _fputs 514A                                         labs@a 0001  
                                       pad@fp 0011                                         _width 00DF  
                                       _putch 54DA                                         dtoa@d 001E  
                                       dtoa@i 0026                                         dtoa@p 0022  
                                       dtoa@s 0028                                         dtoa@w 0024  
                      __end_of_Lectura_Serial 3EA6                                         pclath 3FFA  
                                       tablat 3FF5                                         plusw1 3FE3  
                                       plusw2 3FDB                                         status 3FD8  
                             __end_of_sprintf 5070                                ?___fpclassifyf 0001  
                               T_tmr2@periodo 0045           fp__UART1_DefaultFramingErrorHandler 0000  
    __end_of_UART1_DefaultFramingErrorHandler 54E0            ??_UART1_DefaultFramingErrorHandler 0001  
           ?_UART1_DefaultFramingErrorHandler 0001              _UART1_DefaultFramingErrorHandler 54DE  
                         mensaje_vels@mensaje 0003                                 T_tmr4@periodo 004B  
                             __initialization 48FC                                  __end_of_labs 4F70  
                                __end_of_main 1B60                                  __end_of_dtoa 3AB8  
                                  T_tmr2@mm_s 0041                   ??_UART1_DefaultErrorHandler 0001  
                     __end_of_TMR2_Initialize 5328                   ?_INTERRUPT_InterruptManager 0001  
                                ?_UART1_Write 0001                         _UART1_is_tx_ready$225 0001  
                                      ??_labs 0005                      _TMR2_SetInterruptHandler 54CA  
                                      ??_main 00D3                                        ??_dtoa 0020  
                               __activetblptr 0003                                get_average@sum 0015  
                             _TMR6_Initialize 53EC                              _UART1_Initialize 4EA0  
                                      ?_fputc 0001                                        ?_fputs 000A  
                            ___awdiv@dividend 0001                                        _ANSELA 3A40  
                                      ?_putch 0001                                        _ANSELB 3A50  
                                      _ANSELC 3A60                                        _ANSELD 3A70  
                                      _ANSELE 3A80                                        _RB1I2C 3A5A  
                                      _RB2I2C 3A5B                                        _RD0I2C 3A7A  
                                      _U1CON0 3DF2                                        _U1CON1 3DF3  
                                      _U1CON2 3DF4                                        _RD1I2C 3A7B  
                                      _RC3I2C 3A6A                                        _RC4I2C 3A6B  
                                      _U1BRGH 3DF6                                        _U1FIFO 3DF7  
                                      _U1BRGL 3DF5                                        _RA1PPS 3A01  
                                      _RA4PPS 3A04                               ?_Lectura_Serial 0007  
                                      _ODCONA 3A42                                        _ODCONB 3A52  
                                      _RC6PPS 3A16                                        _ODCONC 3A62  
                                      _ODCOND 3A72                                        _ODCONE 3A82  
                     __end_of_PWM5_Initialize 547A                                        i2l5420 548E  
                                      i2l5414 5496                                        i2l5416 549A  
                                      _INLVLA 3A44                                        i2l5418 548A  
                                      _INLVLB 3A54                                        _INLVLC 3A64  
                                      _INLVLD 3A74                                        _INLVLE 3A84  
                                      i2l5730 50FE                                        i2l5722 50BC  
                                      i2l5724 50CC                                        i2l5726 50DA  
                                      i2l5728 50F0                                        _OSCFRQ 39DF  
                       _UART1_SetErrorHandler 54B6                              __end_of___xxtofl 3920  
                                      _T_tmr2 3C36                                        _T_tmr4 3AB8  
                                _CCPTMRS1bits 3F5F                                  vfprintf@cfmt 005E  
                                      ___flge 3FAC                                        ___fleq 45D4  
                                      ___lmul 4E36                                     ??___fladd 0009  
                                      ___wmul 537C                                     ??___fldiv 0017  
                                   ??___awdiv 0005                                     ??___flneg 0005  
                               ?_mensaje_vels 0001                                     ??___awmod 0005  
                                   ??___flmul 0030                                     ??___flsub 0049  
                                   ??___fltol 0005                                     ??___lldiv 0009  
                                      _efgtoa 1B60                                        _floorf 355A  
                                      _gramos 0114                                        _estado 00F3  
                                      _memcpy 4F70                       __end_of_PWM6_Initialize 5466  
                     __end_of_TMR4_Initialize 52FC                                        _t_embo 012C  
                                      clear_0 4962                                        clear_1 496E  
                            ___awdiv@quotient 0007                               ___awmod@divisor 0003  
                                      _send_t 41AE                                        isa$std 0001  
                             ___awmod@counter 0005                                        pad@buf 0013  
                                      dtoa@fp 001C                                        _strcpy 5070  
                _TMR4_DefaultInterruptHandler 0000                                        fputc@c 0001  
                              _PMD_Initialize 53A6                              __end_of_set_gain 4E36  
                                      fputs@c 000E                                        fputs@i 000F  
                                   ??_init_hx 0013                                        fputs@s 000A  
                             ___fpclassifyf@e 0009                               ___fpclassifyf@u 000B  
                             ___fpclassifyf@x 0001                                  __mediumconst 0000  
                                      tblptrh 3FF7                                        tblptrl 3FF6  
                                      tblptru 3FF8                                        putch@c 0001  
                            __end_of_vfprintf 5020      TMR4_SetInterruptHandler@InterruptHandler 0001  
    TMR2_SetInterruptHandler@InterruptHandler 0001          __end_of_UART1_SetOverrunErrorHandler 54AC  
                _UART1_SetOverrunErrorHandler 54A2                     _UART1_DefaultErrorHandler 54E0  
                                   ??_sprintf 0060                                    _hx711_read 42A8  
                                  ___flge@ff1 0041                                    ___flge@ff2 0045  
                             ??___fpclassifyf 0005                              ??_recibir_numero 0003  
                                ___xxtofl@arg 000B                                  ___xxtofl@exp 000A  
                           _SYSTEM_Initialize 5352                                  ___xxtofl@val 0001  
                                  ___fleq@ff1 0001                                    ___fleq@ff2 0005  
                                  __accesstop 0060                       __end_of__initialization 4980  
                                  ___flneg@f1 0001                           mensaje_capa2@F16510 0200  
                          ?_SYSTEM_Initialize 0001                                 ___rparam_used 0001  
                                  ___fltol@f1 0001                                __pcstackCOMRAM 0001  
                              ??_mensaje_vels 0002                                  __pidataBANK0 54D8  
                                __pidataBANK1 4A00                                  __pidataBANK2 5206  
                         ??_SYSTEM_Initialize 0003                                     ?_TMR2_ISR 0001  
                                   ?_TMR4_ISR 0001                                 __end_of_fputc 4460  
                               __end_of_fputs 518E                                 __end_of_putch 54DC  
                            ?_TMR2_Initialize 0001                       __end_of_TMR6_Initialize 540A  
                      __end_of_PMD_Initialize 53CA                          mensaje_final@mensaje 0003  
                             Lectura_Serial@i 0022                     _UART1_FramingErrorHandler 01FE  
                                     ??_fputc 0005                     __end_of_SYSTEM_Initialize 537C  
                                     ??_fputs 000E                                       ??_putch 0001  
                                  __pbssBANK0 00D7                                    __pbssBANK1 0100  
               ?_UART1_SetOverrunErrorHandler 0001                        ?_UART1_SetErrorHandler 0001  
                            ?_PWM5_Initialize 0001                                    _char_leido 00E7  
                       _TMR4_InterruptHandler 0235                                       IVTBASEH 3FD6  
                                     IVTBASEL 3FD5                                       IVTBASEU 3FD7  
                              hx711_read@data 0008                                       ?_T_tmr2 0041  
                                     ?_T_tmr4 0041                                       ?___flge 0041  
                                     ?___fleq 0001                                       ?___lmul 0001  
                                ??_UART1_Read 0001                                       ?___wmul 0001  
                                  ??_TMR2_ISR 0001                                    ??_TMR4_ISR 0001  
                  __end_of_PWM6_LoadDutyValue 5270                                       ?_efgtoa 004D  
                               _mensaje_capa2 4C1C                                 _mensaje_capas 4BB0  
                                     ?_floorf 0028                                       ?_memcpy 0001  
                               _mensaje_final 4B44                                 _mensaje_boton 4C88  
                              ___lmul@product 0009                              ?_TMR4_Initialize 0001  
                            ?_PWM6_Initialize 0001                                       ?_send_t 00AF  
                             ?_PMD_Initialize 0001                                       ?_strcpy 0001  
                                     _U1ERRIE 3DFA                                       _U1ERRIR 3DF9  
                                     _U1RXPPS 3AE5                                     ?___xxtofl 0001  
                          _PWM5_LoadDutyValue 5270                                       _OSCCON1 39D9  
                                     _OSCCON3 39DB                                       _OSCTUNE 39DE  
                                     _PWM5DCH 3F6D                                       _PWM5DCL 3F6C  
                                     _PWM6DCH 3F69                                       _PWM6DCL 3F68  
                                     _PWM5CON 3F6E                                       _PWM6CON 3F6A  
                                     _SLRCONA 3A43                                       _SLRCONB 3A53  
                                     _SLRCONC 3A63                                       _SLRCOND 3A73  
                                     _SLRCONE 3A83                                   ?_hx711_read 0001  
                         ?_PWM5_LoadDutyValue 0001                            __end_of_UART1_Read 486A  
                    recibir_caracter@caracter 0001                                    _n_p_bobina 0120  
                                  _n_p_lineal 0124                           mensaje_capas@F16498 01DC  
                                     __Hparam 0000                                       __Lparam 0000  
                    mensaje_terminado@mensaje 0003                      __end_of_UART1_Initialize 4F0A  
                                   ?_set_gain 000D                    ??_TMR2_SetInterruptHandler 0003  
                        Lectura_Serial@rxData 0021                                       ___fladd 255A  
                                     ___fldiv 2E68                                       ___awdiv 4460  
                                     ___flneg 51CE                                ?_mensaje_capa2 0001  
                                     ___awmod 4524                                       ___flmul 2A1A  
                                     ___flsub 5104                                       ___fltol 3EA6  
                              ?_mensaje_capas 0001                                       ___lldiv 467E  
                              ?_mensaje_final 0001                                ?_mensaje_boton 0001  
                                   ?_vfprintf 0093                          ??_PWM5_LoadDutyValue 0003  
                                __psmallconst 1000                     Lectura_Serial@arreglo_bit 0013  
                                     __pcinit 48FC                              ?_TMR6_Initialize 0001  
                                     __ramtop 1000                                       __ptext0 1010  
                                     __ptext1 41AE                                       __ptext2 5020  
                                     __ptext3 4FCA                                       __ptext4 3202  
                                     __ptext5 1B60                                       __ptext6 5070  
                                     __ptext7 4F70                                       __ptext8 4F0A  
                                     __ptext9 355A                    recibir_caracter@rxData_buf 0002  
                       _OSCILLATOR_Initialize 5424                                     _T2CONbits 3FAC  
                                     _t_capa1 01F6                                       _init_hx 547A  
                                  ??___xxtofl 0005                                  init_hx@gain1 0011  
                            ___awmod@dividend 0001                             __end_of_mensaje_L 4D60  
                                   _T4CONbits 3FA0                              _recibir_caracter 53CA  
                    ??_PIN_MANAGER_Initialize 0001                                     _T2HLTbits 3FAD  
                                     _w_ideal 01EA                              ??_Lectura_Serial 0009  
                                     _sel_vel 00EB                     ?_TMR4_SetInterruptHandler 0001  
                                     efgtoa@c 0053                                       efgtoa@d 006B  
                                     efgtoa@e 006F                                       efgtoa@f 004F  
                                     efgtoa@g 0084                                       efgtoa@h 0079  
                                     efgtoa@i 0077                                       efgtoa@l 007D  
                                     efgtoa@m 006D                                       efgtoa@n 0082  
                                     efgtoa@p 0062                                       efgtoa@t 0064  
                                     efgtoa@u 0088                                       efgtoa@w 0071  
                                   _T6CONbits 3F94                                     _T4HLTbits 3FA1  
                                     _tension 00FA                                     _T6HLTbits 3F95  
                        __end_of_mensaje_vels 4AD8                                       _sprintf 5020  
                        end_of_initialization 4980                                       floorf@e 0036  
                                   _T2RSTbits 3FAF                                       floorf@m 0032  
                                     floorf@u 0038                                       floorf@x 0028  
                                     memcpy@d 0007                                       memcpy@n 0005  
                                   _T4RSTbits 3FA3                                       memcpy@s 0009  
                        mensaje_boton@mensaje 0003                                       fputc@fp 0003  
                                     fputs@fp 000C                                     _T6RSTbits 3F97  
                                     send_t@i 00CF                ??_UART1_SetOverrunErrorHandler 0003  
                             ___lldiv@divisor 0005                               ___lldiv@counter 000D  
                                  ??_set_gain 000F                                  mensaje_AWG@i 0009  
                           __end_of_vfpfcnvrt 355A                                    efgtoa@mode 0069  
                                  efgtoa@sign 0081                                       postdec1 3FE5  
                                     postdec2 3FDD                                       postinc0 3FEE  
                                     postinc1 3FE6                                       postinc2 3FDE  
                            vfpfcnvrt@convarg 008C                                    _vel_lineal 01EE  
                                  ??_vfprintf 005E                             UART1_Write@txData 0001  
                                     strcpy@d 0007                                       strcpy@s 0005  
                                   _PORTAbits 3FCA                                 send_t@mensaje 00CA  
                                   _PORTDbits 3FCD                                     _TMR2_flag 00F8  
                                   _TMR4_flag 00F7                                 send_t@t_total 00B3  
                                 ___fladd@grs 0010                                 ___xxtofl@sign 0009  
                                 ___fldiv@grs 0022                                   ___fldiv@rem 001B  
                            mensaje_L@mensaje 0003                                   ___flmul@grs 0035  
                               ??_get_average 0012                               ??_mensaje_capa2 0002  
                             ??_mensaje_capas 0002                               ??_mensaje_final 0002  
                             ??_mensaje_boton 0002                                __end_of_T_tmr2 3D8C  
                              __end_of_T_tmr4 3C36                  __end_of_INTERRUPT_Initialize 54D8  
                                 hx711_read@i 000C                  _TMR2_DefaultInterruptHandler 0000  
                              __end_of___flge 40B0                                __end_of___fleq 467E  
                              __end_of___lmul 4EA0                                   vfpfcnvrt@ap 005A  
                                 vfpfcnvrt@cp 0091                                   vfpfcnvrt@fp 0056  
                              __end_of___wmul 53A6                                __end_of_efgtoa 255A  
                              __end_of_floorf 376C                                __end_of_memcpy 4FCA  
                      ?_OSCILLATOR_Initialize 0001                                    floorf@F526 0100  
                              __end_of_send_t 42A8                                __end_of_strcpy 50BC  
                         start_initialization 48FC                                   __end_of_abs 51CE  
                                 __end_of_pad 4A00                       ??_UART1_SetErrorHandler 0003  
                                   T_tmr4@rpm 0041                                    ivt0x8_base 0008  
                                _gramo_arriba 0108                         __end_of___fpclassifyf 41AE  
                         mensaje_final@F16514 0196                                      ??_T_tmr2 0045  
                                    ??_T_tmr4 0043                                   vfprintf@fmt 0095  
                                    ??___flge 0049                                      ??___fleq 0009  
                            ??_PMD_Initialize 0001                          mensaje_capa2@mensaje 0003  
                                    ??___lmul 0009                                      ??___wmul 0005  
                         __end_of_get_average 48FC                                      ??_efgtoa 0054  
                           _mensaje_terminado 4AD8                                   __pdataBANK0 00FE  
                                 __pdataBANK1 0182                                   __pdataBANK2 0200  
                                    ??_floorf 002C                                      ??_memcpy 0007  
                                    ??_send_t 00B7                                    mensaje_L@i 0014  
                          ?_mensaje_terminado 0001                                      ??_strcpy 0005  
                                   ___fladd@a 0005                                     ___fladd@b 0001  
                                   ___fldiv@a 0013                                     ___fldiv@b 000F  
                 PWM5_LoadDutyValue@dutyValue 0001                                     ___flmul@a 002C  
                                   ___flmul@b 0028                                     ___flsub@a 0045  
                                   ___flsub@b 0041                                 ??_mensaje_AWG 0002  
                          _UART1_ErrorHandler 01FA                                 __pcstackBANK0 0060  
                          _PWM6_LoadDutyValue 523C                           ??_mensaje_terminado 0002  
                                ??_hx711_read 0005                              get_average@times 000E  
                         ?_PWM6_LoadDutyValue 0001                       mensaje_terminado@F16506 01CC  
                fp__UART1_DefaultErrorHandler 0000                                 set_gain@gain1 000D  
                                   __pnvBANK1 01EE                                     __pnvBANK2 0235  
                                 _efgtoa$2292 0066                                     _main$2729 00D5  
                      _PIN_MANAGER_Initialize 4722                      __end_of_recibir_caracter 53EC  
                                   _dtoa$2261 0020                             ?_UART1_Initialize 0001  
                   __end_of_mensaje_terminado 4B44          __end_of_UART1_SetFramingErrorHandler 54B6  
                _UART1_SetFramingErrorHandler 54AC                                      ?___fladd 0001  
            __end_of_TMR4_SetInterruptHandler 54CA                                      ?___fldiv 000F  
                                    ?___awdiv 0001                                      ?___flneg 0001  
                                    ?___awmod 0001                                      ?___flmul 0028  
                                    ?___flsub 0041                                      ?___fltol 0001  
                                    ?___lldiv 0001                                  _mensaje_vels 4A6C  
                          ??_UART1_Initialize 0003                           mensaje_boton@F16541 0182  
                                   _clockwise 00F6                              _uart1RxLastError 00F9  
                               ??_UART1_Write 0001                          ??_PWM6_LoadDutyValue 0003  
                ??_INTERRUPT_InterruptManager 0001                            __end_of_hx711_read 4388  
                                 __smallconst 1000                                      ?_init_hx 0011  
         fp__UART1_DefaultOverrunErrorHandler 0000      __end_of_UART1_DefaultOverrunErrorHandler 54DE  
          ??_UART1_DefaultOverrunErrorHandler 0001             ?_UART1_DefaultOverrunErrorHandler 0001  
            _UART1_DefaultOverrunErrorHandler 54DC                                  send_t@F16535 01A9  
                                    ?_sprintf 0099                                      _T2CLKCON 3FAE  
                                   _mensaje_L 4CF4                                   _U1ERRIRbits 3DF9  
                             mensaje_L@F16490 01BB                                      _T4CLKCON 3FA2  
                        _INTERRUPT_Initialize 54D4                                      _T6CLKCON 3F96  
                                   _n_vueltas 00E5                           __end_of_mensaje_AWG 4DCC  
                              ___wmul@product 0005         UART1_SetErrorHandler@interruptHandler 0001  
                                    _LATDbits 3FBD                                  send_t@i_1675 00D1  
                                    _PIE4bits 3994                                   _get_average 486A  
                                    _PIE7bits 3997                          recibir_numero@rxData 0005  
                                    i2u540_40 50F0                                      i2u540_41 50EC  
                                    i2u541_40 50FE                                      i2u541_41 50FA  
                                    _PIR3bits 39A3                                      _PIR4bits 39A4  
                                    i2u538_40 50CC                                      i2u538_41 50C8  
                                    i2u539_40 50DA                                      i2u539_41 50D6  
                                    _PIR7bits 39A7                                      _PIR9bits 39A9  
                        recibir_numero@numero 0003                                      _TMR2_ISR 5496  
                                    _TMR4_ISR 548A                                  send_t@t_capa 00AF  
               ?_UART1_SetFramingErrorHandler 0001                                     _vfpfcnvrt 3202  
                           ___wmul@multiplier 0001                                  _pasos_bobina 0128  
                   ?_TMR2_SetInterruptHandler 0001                                  _pasos_lineal 00DB  
                         __end_of_UART1_Write 5424                                    vfpfcnvrt@c 0090  
                                 _INTCON0bits 3FD2                             ___lmul@multiplier 0001  
                                  ?_mensaje_L 0001                                     copy_data0 4910  
                                   copy_data1 4932                         ?_INTERRUPT_Initialize 0001  
                           ??_TMR2_Initialize 0003                                   _gramo_abajo 010C  
                                    __Hrparam 0000                                     memcpy@tmp 000B  
                                  vfprintf@ap 0097                                      __Lrparam 0000  
                                  vfprintf@fp 0093                       ??_OSCILLATOR_Initialize 0001  
                                  ?_vfpfcnvrt 0056                             ??_PWM5_Initialize 0001  
                    _TMR4_SetInterruptHandler 54C0                            ___fpclassifyf@F465 0104  
                                  sprintf@fmt 009B                                      ___xxtofl 376C  
                          mensaje_AWG@mensaje 0003                                   _mensaje_AWG 4D60  
                                    _diametro 00E9                                      __pivt0x8 0008  
                                    __ptext10 40B0                                      __ptext11 5104  
                                    __ptext20 54DA                                      __ptext12 255A  
                                    __ptext21 518E                                      __ptext13 51CE  
                                    __ptext30 4C1C                                      __ptext22 4524  
                                    __ptext14 3FAC                                      __ptext31 4C88  
                                    __ptext23 4460                                      __ptext15 45D4  
                                    __ptext40 467E                                      __ptext32 4CF4  
                                    __ptext24 5328                                      __ptext16 3920  
                                    __ptext41 4E36                                      __ptext33 4D60  
                                    __ptext25 53CA                                      __ptext17 4986  
                                    __ptext50 54A2                                      __ptext42 3AB8  
                                    __ptext34 52A4                                      __ptext26 4A6C  
                                    __ptext18 514A                                      __ptext51 54AC  
                                    __ptext43 376C                                      __ptext35 540A  
                                    __ptext27 4AD8                                      __ptext19 4388  
                                    __ptext60 53A6                                      __ptext52 54B6  
                                    __ptext44 3C36                                      __ptext36 547A  
                                    __ptext28 4B44                                      __ptext61 4722  
                                    __ptext53 53EC                                      __ptext45 3EA6  
                                    __ptext37 4DCC                                      __ptext29 4BB0  
                                    __ptext70 54DC                                      __ptext62 5424  
                                    __ptext54 52D0                                      __ptext46 2A1A  
                                    __ptext38 486A                                      __ptext71 54DE  
                                    __ptext63 54D4                                      __ptext55 54C0  
                                    __ptext47 2E68                                      __ptext39 42A8  
                                    __ptext72 54E0                                      __ptext64 523C  
                                    __ptext56 52FC                                      __ptext48 5352  
                                    __ptext73 50BC                                      __ptext65 5270  
                                    __ptext57 54CA                                      __ptext49 4EA0  
                                    __ptext74 548A                                      __ptext66 3D8C  
                                    __ptext58 5452                                      __ptext75 5496  
                                    __ptext67 537C                                      __ptext59 5466  
                                    __ptext76 0000                                      __ptext68 543C  
                                    __ptext69 47C6                                    _U1CON0bits 3DF2  
                                   send_t@aux 00B8                 __end_of_UART1_SetErrorHandler 54C0  
                                  strcpy@dest 0001                                      _gramos_d 0130  
                           ??_TMR4_Initialize 0003                             ??_PWM6_Initialize 0001  
                                    _set_gain 4DCC                                      efgtoa@fp 004D  
                                    efgtoa@ne 0060                             mensaje_AWG@F16494 01E4  
                                    efgtoa@pp 0068                                      efgtoa@ou 0073  
                   _UART1_OverrunErrorHandler 01FC  UART1_SetOverrunErrorHandler@interruptHandler 0001  
                              _recibir_numero 5328                                      isa$xinst 0000  
                       __end_of_mensaje_capa2 4C88                    ?_UART1_DefaultErrorHandler 0001  
                                    _promedio 00D7                         __end_of_mensaje_capas 4C1C  
                       __end_of_mensaje_final 4BB0                         __end_of_mensaje_boton 4CF4  
                                    _vfprintf 4FCA            __end_of_INTERRUPT_InterruptManager 5104  
                  _INTERRUPT_InterruptManager 50BC                          mensaje_capas@mensaje 0003  
                           _UART1_is_rx_ready 543C                                   _UART1_Write 540A  
                           _UART1_is_tx_ready 52A4                            ?_UART1_is_rx_ready 0001  
              ??_UART1_SetFramingErrorHandler 0003                            ?_UART1_is_tx_ready 0001  
                                    memcpy@d1 0001                                      memcpy@s1 0003  
                      ??_INTERRUPT_Initialize 0001                           ??_UART1_is_rx_ready 0001  
                                 ??_mensaje_L 0002                           ??_UART1_is_tx_ready 0001  
                                    intlevel2 0000                                     sprintf@ap 00A1  
                              mensaje_capa2@i 001E                              T_tmr2@frecuencia 0051  
                            ___lldiv@dividend 0001                                mensaje_capas@i 000B  
                     ?_PIN_MANAGER_Initialize 0001                             ??_TMR6_Initialize 0001  
                                   strcpy@src 0003                                mensaje_final@i 0016  
                      __end_of_recibir_numero 5352                                mensaje_boton@i 0017  
                           ?_recibir_caracter 0001                                   efgtoa@nmode 006A  
                   __end_of_UART1_is_rx_ready 5452                                    _UART1_Read 47C6  
UART1_SetFramingErrorHandler@interruptHandler 0001                            ??_recibir_caracter 0001  
                   __end_of_UART1_is_tx_ready 52D0             __end_of_UART1_DefaultErrorHandler 54E2  
                                 ??_vfpfcnvrt 005C                             T_tmr2@periodo_tmr 004D  
                                    sprintf@f 00A3                                      sprintf@s 0099  
                            ___lldiv@quotient 0009                   PWM6_LoadDutyValue@dutyValue 0001  
                               mensaje_vels@i 001D                                 ___fladd@signs 000D  
              __end_of_PIN_MANAGER_Initialize 47C6                              T_tmr4@frecuencia 004F  
                                ___fladd@aexp 000E                                  ___fladd@bexp 000F  
                       _TMR2_InterruptHandler 0237                                  ?_get_average 000E  
                             ?_recibir_numero 0001                      Lectura_Serial@REF_grados 001F  
                            T_tmr2@v_registro 0049  
